
G031_LSM6DS3.elf:     file format elf32-littlearm

Sections:
Idx Name          Size      VMA       LMA       File off  Algn
  0 .isr_vector   000000bc  08000000  08000000  00010000  2**0
                  CONTENTS, ALLOC, LOAD, READONLY, DATA
  1 .text         00008f10  080000bc  080000bc  000100bc  2**2
                  CONTENTS, ALLOC, LOAD, READONLY, CODE
  2 .rodata       0000065c  08008fd0  08008fd0  00018fd0  2**3
                  CONTENTS, ALLOC, LOAD, READONLY, DATA
  3 .ARM.extab    00000000  0800962c  0800962c  000201dc  2**0
                  CONTENTS
  4 .ARM          00000000  0800962c  0800962c  000201dc  2**0
                  CONTENTS
  5 .preinit_array 00000000  0800962c  0800962c  000201dc  2**0
                  CONTENTS, ALLOC, LOAD, DATA
  6 .init_array   00000004  0800962c  0800962c  0001962c  2**2
                  CONTENTS, ALLOC, LOAD, DATA
  7 .fini_array   00000004  08009630  08009630  00019630  2**2
                  CONTENTS, ALLOC, LOAD, DATA
  8 .data         000001dc  20000000  08009634  00020000  2**2
                  CONTENTS, ALLOC, LOAD, DATA
  9 .bss          000000d4  200001dc  08009810  000201dc  2**2
                  ALLOC
 10 ._user_heap_stack 00000600  200002b0  08009810  000202b0  2**0
                  ALLOC
 11 .ARM.attributes 00000028  00000000  00000000  000201dc  2**0
                  CONTENTS, READONLY
 12 .debug_info   000072ab  00000000  00000000  00020204  2**0
                  CONTENTS, READONLY, DEBUGGING, OCTETS
 13 .debug_abbrev 00001c37  00000000  00000000  000274af  2**0
                  CONTENTS, READONLY, DEBUGGING, OCTETS
 14 .debug_aranges 00000748  00000000  00000000  000290e8  2**3
                  CONTENTS, READONLY, DEBUGGING, OCTETS
 15 .debug_ranges 00000640  00000000  00000000  00029830  2**3
                  CONTENTS, READONLY, DEBUGGING, OCTETS
 16 .debug_macro  000172f2  00000000  00000000  00029e70  2**0
                  CONTENTS, READONLY, DEBUGGING, OCTETS
 17 .debug_line   00009ceb  00000000  00000000  00041162  2**0
                  CONTENTS, READONLY, DEBUGGING, OCTETS
 18 .debug_str    0008bc26  00000000  00000000  0004ae4d  2**0
                  CONTENTS, READONLY, DEBUGGING, OCTETS
 19 .comment      00000050  00000000  00000000  000d6a73  2**0
                  CONTENTS, READONLY
 20 .debug_frame  00002bb8  00000000  00000000  000d6ac4  2**2
                  CONTENTS, READONLY, DEBUGGING, OCTETS

Disassembly of section .text:

080000bc <__do_global_dtors_aux>:
 80000bc:	b510      	push	{r4, lr}
 80000be:	4c06      	ldr	r4, [pc, #24]	; (80000d8 <__do_global_dtors_aux+0x1c>)
 80000c0:	7823      	ldrb	r3, [r4, #0]
 80000c2:	2b00      	cmp	r3, #0
 80000c4:	d107      	bne.n	80000d6 <__do_global_dtors_aux+0x1a>
 80000c6:	4b05      	ldr	r3, [pc, #20]	; (80000dc <__do_global_dtors_aux+0x20>)
 80000c8:	2b00      	cmp	r3, #0
 80000ca:	d002      	beq.n	80000d2 <__do_global_dtors_aux+0x16>
 80000cc:	4804      	ldr	r0, [pc, #16]	; (80000e0 <__do_global_dtors_aux+0x24>)
 80000ce:	e000      	b.n	80000d2 <__do_global_dtors_aux+0x16>
 80000d0:	bf00      	nop
 80000d2:	2301      	movs	r3, #1
 80000d4:	7023      	strb	r3, [r4, #0]
 80000d6:	bd10      	pop	{r4, pc}
 80000d8:	200001dc 	.word	0x200001dc
 80000dc:	00000000 	.word	0x00000000
 80000e0:	08008fb4 	.word	0x08008fb4

080000e4 <frame_dummy>:
 80000e4:	4b04      	ldr	r3, [pc, #16]	; (80000f8 <frame_dummy+0x14>)
 80000e6:	b510      	push	{r4, lr}
 80000e8:	2b00      	cmp	r3, #0
 80000ea:	d003      	beq.n	80000f4 <frame_dummy+0x10>
 80000ec:	4903      	ldr	r1, [pc, #12]	; (80000fc <frame_dummy+0x18>)
 80000ee:	4804      	ldr	r0, [pc, #16]	; (8000100 <frame_dummy+0x1c>)
 80000f0:	e000      	b.n	80000f4 <frame_dummy+0x10>
 80000f2:	bf00      	nop
 80000f4:	bd10      	pop	{r4, pc}
 80000f6:	46c0      	nop			; (mov r8, r8)
 80000f8:	00000000 	.word	0x00000000
 80000fc:	200001e0 	.word	0x200001e0
 8000100:	08008fb4 	.word	0x08008fb4

08000104 <strlen>:
 8000104:	2300      	movs	r3, #0
 8000106:	5cc2      	ldrb	r2, [r0, r3]
 8000108:	3301      	adds	r3, #1
 800010a:	2a00      	cmp	r2, #0
 800010c:	d1fb      	bne.n	8000106 <strlen+0x2>
 800010e:	1e58      	subs	r0, r3, #1
 8000110:	4770      	bx	lr
	...

08000114 <__gnu_thumb1_case_uqi>:
 8000114:	b402      	push	{r1}
 8000116:	4671      	mov	r1, lr
 8000118:	0849      	lsrs	r1, r1, #1
 800011a:	0049      	lsls	r1, r1, #1
 800011c:	5c09      	ldrb	r1, [r1, r0]
 800011e:	0049      	lsls	r1, r1, #1
 8000120:	448e      	add	lr, r1
 8000122:	bc02      	pop	{r1}
 8000124:	4770      	bx	lr
 8000126:	46c0      	nop			; (mov r8, r8)

08000128 <__gnu_thumb1_case_shi>:
 8000128:	b403      	push	{r0, r1}
 800012a:	4671      	mov	r1, lr
 800012c:	0849      	lsrs	r1, r1, #1
 800012e:	0040      	lsls	r0, r0, #1
 8000130:	0049      	lsls	r1, r1, #1
 8000132:	5e09      	ldrsh	r1, [r1, r0]
 8000134:	0049      	lsls	r1, r1, #1
 8000136:	448e      	add	lr, r1
 8000138:	bc03      	pop	{r0, r1}
 800013a:	4770      	bx	lr

0800013c <__udivsi3>:
 800013c:	2200      	movs	r2, #0
 800013e:	0843      	lsrs	r3, r0, #1
 8000140:	428b      	cmp	r3, r1
 8000142:	d374      	bcc.n	800022e <__udivsi3+0xf2>
 8000144:	0903      	lsrs	r3, r0, #4
 8000146:	428b      	cmp	r3, r1
 8000148:	d35f      	bcc.n	800020a <__udivsi3+0xce>
 800014a:	0a03      	lsrs	r3, r0, #8
 800014c:	428b      	cmp	r3, r1
 800014e:	d344      	bcc.n	80001da <__udivsi3+0x9e>
 8000150:	0b03      	lsrs	r3, r0, #12
 8000152:	428b      	cmp	r3, r1
 8000154:	d328      	bcc.n	80001a8 <__udivsi3+0x6c>
 8000156:	0c03      	lsrs	r3, r0, #16
 8000158:	428b      	cmp	r3, r1
 800015a:	d30d      	bcc.n	8000178 <__udivsi3+0x3c>
 800015c:	22ff      	movs	r2, #255	; 0xff
 800015e:	0209      	lsls	r1, r1, #8
 8000160:	ba12      	rev	r2, r2
 8000162:	0c03      	lsrs	r3, r0, #16
 8000164:	428b      	cmp	r3, r1
 8000166:	d302      	bcc.n	800016e <__udivsi3+0x32>
 8000168:	1212      	asrs	r2, r2, #8
 800016a:	0209      	lsls	r1, r1, #8
 800016c:	d065      	beq.n	800023a <__udivsi3+0xfe>
 800016e:	0b03      	lsrs	r3, r0, #12
 8000170:	428b      	cmp	r3, r1
 8000172:	d319      	bcc.n	80001a8 <__udivsi3+0x6c>
 8000174:	e000      	b.n	8000178 <__udivsi3+0x3c>
 8000176:	0a09      	lsrs	r1, r1, #8
 8000178:	0bc3      	lsrs	r3, r0, #15
 800017a:	428b      	cmp	r3, r1
 800017c:	d301      	bcc.n	8000182 <__udivsi3+0x46>
 800017e:	03cb      	lsls	r3, r1, #15
 8000180:	1ac0      	subs	r0, r0, r3
 8000182:	4152      	adcs	r2, r2
 8000184:	0b83      	lsrs	r3, r0, #14
 8000186:	428b      	cmp	r3, r1
 8000188:	d301      	bcc.n	800018e <__udivsi3+0x52>
 800018a:	038b      	lsls	r3, r1, #14
 800018c:	1ac0      	subs	r0, r0, r3
 800018e:	4152      	adcs	r2, r2
 8000190:	0b43      	lsrs	r3, r0, #13
 8000192:	428b      	cmp	r3, r1
 8000194:	d301      	bcc.n	800019a <__udivsi3+0x5e>
 8000196:	034b      	lsls	r3, r1, #13
 8000198:	1ac0      	subs	r0, r0, r3
 800019a:	4152      	adcs	r2, r2
 800019c:	0b03      	lsrs	r3, r0, #12
 800019e:	428b      	cmp	r3, r1
 80001a0:	d301      	bcc.n	80001a6 <__udivsi3+0x6a>
 80001a2:	030b      	lsls	r3, r1, #12
 80001a4:	1ac0      	subs	r0, r0, r3
 80001a6:	4152      	adcs	r2, r2
 80001a8:	0ac3      	lsrs	r3, r0, #11
 80001aa:	428b      	cmp	r3, r1
 80001ac:	d301      	bcc.n	80001b2 <__udivsi3+0x76>
 80001ae:	02cb      	lsls	r3, r1, #11
 80001b0:	1ac0      	subs	r0, r0, r3
 80001b2:	4152      	adcs	r2, r2
 80001b4:	0a83      	lsrs	r3, r0, #10
 80001b6:	428b      	cmp	r3, r1
 80001b8:	d301      	bcc.n	80001be <__udivsi3+0x82>
 80001ba:	028b      	lsls	r3, r1, #10
 80001bc:	1ac0      	subs	r0, r0, r3
 80001be:	4152      	adcs	r2, r2
 80001c0:	0a43      	lsrs	r3, r0, #9
 80001c2:	428b      	cmp	r3, r1
 80001c4:	d301      	bcc.n	80001ca <__udivsi3+0x8e>
 80001c6:	024b      	lsls	r3, r1, #9
 80001c8:	1ac0      	subs	r0, r0, r3
 80001ca:	4152      	adcs	r2, r2
 80001cc:	0a03      	lsrs	r3, r0, #8
 80001ce:	428b      	cmp	r3, r1
 80001d0:	d301      	bcc.n	80001d6 <__udivsi3+0x9a>
 80001d2:	020b      	lsls	r3, r1, #8
 80001d4:	1ac0      	subs	r0, r0, r3
 80001d6:	4152      	adcs	r2, r2
 80001d8:	d2cd      	bcs.n	8000176 <__udivsi3+0x3a>
 80001da:	09c3      	lsrs	r3, r0, #7
 80001dc:	428b      	cmp	r3, r1
 80001de:	d301      	bcc.n	80001e4 <__udivsi3+0xa8>
 80001e0:	01cb      	lsls	r3, r1, #7
 80001e2:	1ac0      	subs	r0, r0, r3
 80001e4:	4152      	adcs	r2, r2
 80001e6:	0983      	lsrs	r3, r0, #6
 80001e8:	428b      	cmp	r3, r1
 80001ea:	d301      	bcc.n	80001f0 <__udivsi3+0xb4>
 80001ec:	018b      	lsls	r3, r1, #6
 80001ee:	1ac0      	subs	r0, r0, r3
 80001f0:	4152      	adcs	r2, r2
 80001f2:	0943      	lsrs	r3, r0, #5
 80001f4:	428b      	cmp	r3, r1
 80001f6:	d301      	bcc.n	80001fc <__udivsi3+0xc0>
 80001f8:	014b      	lsls	r3, r1, #5
 80001fa:	1ac0      	subs	r0, r0, r3
 80001fc:	4152      	adcs	r2, r2
 80001fe:	0903      	lsrs	r3, r0, #4
 8000200:	428b      	cmp	r3, r1
 8000202:	d301      	bcc.n	8000208 <__udivsi3+0xcc>
 8000204:	010b      	lsls	r3, r1, #4
 8000206:	1ac0      	subs	r0, r0, r3
 8000208:	4152      	adcs	r2, r2
 800020a:	08c3      	lsrs	r3, r0, #3
 800020c:	428b      	cmp	r3, r1
 800020e:	d301      	bcc.n	8000214 <__udivsi3+0xd8>
 8000210:	00cb      	lsls	r3, r1, #3
 8000212:	1ac0      	subs	r0, r0, r3
 8000214:	4152      	adcs	r2, r2
 8000216:	0883      	lsrs	r3, r0, #2
 8000218:	428b      	cmp	r3, r1
 800021a:	d301      	bcc.n	8000220 <__udivsi3+0xe4>
 800021c:	008b      	lsls	r3, r1, #2
 800021e:	1ac0      	subs	r0, r0, r3
 8000220:	4152      	adcs	r2, r2
 8000222:	0843      	lsrs	r3, r0, #1
 8000224:	428b      	cmp	r3, r1
 8000226:	d301      	bcc.n	800022c <__udivsi3+0xf0>
 8000228:	004b      	lsls	r3, r1, #1
 800022a:	1ac0      	subs	r0, r0, r3
 800022c:	4152      	adcs	r2, r2
 800022e:	1a41      	subs	r1, r0, r1
 8000230:	d200      	bcs.n	8000234 <__udivsi3+0xf8>
 8000232:	4601      	mov	r1, r0
 8000234:	4152      	adcs	r2, r2
 8000236:	4610      	mov	r0, r2
 8000238:	4770      	bx	lr
 800023a:	e7ff      	b.n	800023c <__udivsi3+0x100>
 800023c:	b501      	push	{r0, lr}
 800023e:	2000      	movs	r0, #0
 8000240:	f000 f8f0 	bl	8000424 <__aeabi_idiv0>
 8000244:	bd02      	pop	{r1, pc}
 8000246:	46c0      	nop			; (mov r8, r8)

08000248 <__aeabi_uidivmod>:
 8000248:	2900      	cmp	r1, #0
 800024a:	d0f7      	beq.n	800023c <__udivsi3+0x100>
 800024c:	e776      	b.n	800013c <__udivsi3>
 800024e:	4770      	bx	lr

08000250 <__divsi3>:
 8000250:	4603      	mov	r3, r0
 8000252:	430b      	orrs	r3, r1
 8000254:	d47f      	bmi.n	8000356 <__divsi3+0x106>
 8000256:	2200      	movs	r2, #0
 8000258:	0843      	lsrs	r3, r0, #1
 800025a:	428b      	cmp	r3, r1
 800025c:	d374      	bcc.n	8000348 <__divsi3+0xf8>
 800025e:	0903      	lsrs	r3, r0, #4
 8000260:	428b      	cmp	r3, r1
 8000262:	d35f      	bcc.n	8000324 <__divsi3+0xd4>
 8000264:	0a03      	lsrs	r3, r0, #8
 8000266:	428b      	cmp	r3, r1
 8000268:	d344      	bcc.n	80002f4 <__divsi3+0xa4>
 800026a:	0b03      	lsrs	r3, r0, #12
 800026c:	428b      	cmp	r3, r1
 800026e:	d328      	bcc.n	80002c2 <__divsi3+0x72>
 8000270:	0c03      	lsrs	r3, r0, #16
 8000272:	428b      	cmp	r3, r1
 8000274:	d30d      	bcc.n	8000292 <__divsi3+0x42>
 8000276:	22ff      	movs	r2, #255	; 0xff
 8000278:	0209      	lsls	r1, r1, #8
 800027a:	ba12      	rev	r2, r2
 800027c:	0c03      	lsrs	r3, r0, #16
 800027e:	428b      	cmp	r3, r1
 8000280:	d302      	bcc.n	8000288 <__divsi3+0x38>
 8000282:	1212      	asrs	r2, r2, #8
 8000284:	0209      	lsls	r1, r1, #8
 8000286:	d065      	beq.n	8000354 <__divsi3+0x104>
 8000288:	0b03      	lsrs	r3, r0, #12
 800028a:	428b      	cmp	r3, r1
 800028c:	d319      	bcc.n	80002c2 <__divsi3+0x72>
 800028e:	e000      	b.n	8000292 <__divsi3+0x42>
 8000290:	0a09      	lsrs	r1, r1, #8
 8000292:	0bc3      	lsrs	r3, r0, #15
 8000294:	428b      	cmp	r3, r1
 8000296:	d301      	bcc.n	800029c <__divsi3+0x4c>
 8000298:	03cb      	lsls	r3, r1, #15
 800029a:	1ac0      	subs	r0, r0, r3
 800029c:	4152      	adcs	r2, r2
 800029e:	0b83      	lsrs	r3, r0, #14
 80002a0:	428b      	cmp	r3, r1
 80002a2:	d301      	bcc.n	80002a8 <__divsi3+0x58>
 80002a4:	038b      	lsls	r3, r1, #14
 80002a6:	1ac0      	subs	r0, r0, r3
 80002a8:	4152      	adcs	r2, r2
 80002aa:	0b43      	lsrs	r3, r0, #13
 80002ac:	428b      	cmp	r3, r1
 80002ae:	d301      	bcc.n	80002b4 <__divsi3+0x64>
 80002b0:	034b      	lsls	r3, r1, #13
 80002b2:	1ac0      	subs	r0, r0, r3
 80002b4:	4152      	adcs	r2, r2
 80002b6:	0b03      	lsrs	r3, r0, #12
 80002b8:	428b      	cmp	r3, r1
 80002ba:	d301      	bcc.n	80002c0 <__divsi3+0x70>
 80002bc:	030b      	lsls	r3, r1, #12
 80002be:	1ac0      	subs	r0, r0, r3
 80002c0:	4152      	adcs	r2, r2
 80002c2:	0ac3      	lsrs	r3, r0, #11
 80002c4:	428b      	cmp	r3, r1
 80002c6:	d301      	bcc.n	80002cc <__divsi3+0x7c>
 80002c8:	02cb      	lsls	r3, r1, #11
 80002ca:	1ac0      	subs	r0, r0, r3
 80002cc:	4152      	adcs	r2, r2
 80002ce:	0a83      	lsrs	r3, r0, #10
 80002d0:	428b      	cmp	r3, r1
 80002d2:	d301      	bcc.n	80002d8 <__divsi3+0x88>
 80002d4:	028b      	lsls	r3, r1, #10
 80002d6:	1ac0      	subs	r0, r0, r3
 80002d8:	4152      	adcs	r2, r2
 80002da:	0a43      	lsrs	r3, r0, #9
 80002dc:	428b      	cmp	r3, r1
 80002de:	d301      	bcc.n	80002e4 <__divsi3+0x94>
 80002e0:	024b      	lsls	r3, r1, #9
 80002e2:	1ac0      	subs	r0, r0, r3
 80002e4:	4152      	adcs	r2, r2
 80002e6:	0a03      	lsrs	r3, r0, #8
 80002e8:	428b      	cmp	r3, r1
 80002ea:	d301      	bcc.n	80002f0 <__divsi3+0xa0>
 80002ec:	020b      	lsls	r3, r1, #8
 80002ee:	1ac0      	subs	r0, r0, r3
 80002f0:	4152      	adcs	r2, r2
 80002f2:	d2cd      	bcs.n	8000290 <__divsi3+0x40>
 80002f4:	09c3      	lsrs	r3, r0, #7
 80002f6:	428b      	cmp	r3, r1
 80002f8:	d301      	bcc.n	80002fe <__divsi3+0xae>
 80002fa:	01cb      	lsls	r3, r1, #7
 80002fc:	1ac0      	subs	r0, r0, r3
 80002fe:	4152      	adcs	r2, r2
 8000300:	0983      	lsrs	r3, r0, #6
 8000302:	428b      	cmp	r3, r1
 8000304:	d301      	bcc.n	800030a <__divsi3+0xba>
 8000306:	018b      	lsls	r3, r1, #6
 8000308:	1ac0      	subs	r0, r0, r3
 800030a:	4152      	adcs	r2, r2
 800030c:	0943      	lsrs	r3, r0, #5
 800030e:	428b      	cmp	r3, r1
 8000310:	d301      	bcc.n	8000316 <__divsi3+0xc6>
 8000312:	014b      	lsls	r3, r1, #5
 8000314:	1ac0      	subs	r0, r0, r3
 8000316:	4152      	adcs	r2, r2
 8000318:	0903      	lsrs	r3, r0, #4
 800031a:	428b      	cmp	r3, r1
 800031c:	d301      	bcc.n	8000322 <__divsi3+0xd2>
 800031e:	010b      	lsls	r3, r1, #4
 8000320:	1ac0      	subs	r0, r0, r3
 8000322:	4152      	adcs	r2, r2
 8000324:	08c3      	lsrs	r3, r0, #3
 8000326:	428b      	cmp	r3, r1
 8000328:	d301      	bcc.n	800032e <__divsi3+0xde>
 800032a:	00cb      	lsls	r3, r1, #3
 800032c:	1ac0      	subs	r0, r0, r3
 800032e:	4152      	adcs	r2, r2
 8000330:	0883      	lsrs	r3, r0, #2
 8000332:	428b      	cmp	r3, r1
 8000334:	d301      	bcc.n	800033a <__divsi3+0xea>
 8000336:	008b      	lsls	r3, r1, #2
 8000338:	1ac0      	subs	r0, r0, r3
 800033a:	4152      	adcs	r2, r2
 800033c:	0843      	lsrs	r3, r0, #1
 800033e:	428b      	cmp	r3, r1
 8000340:	d301      	bcc.n	8000346 <__divsi3+0xf6>
 8000342:	004b      	lsls	r3, r1, #1
 8000344:	1ac0      	subs	r0, r0, r3
 8000346:	4152      	adcs	r2, r2
 8000348:	1a41      	subs	r1, r0, r1
 800034a:	d200      	bcs.n	800034e <__divsi3+0xfe>
 800034c:	4601      	mov	r1, r0
 800034e:	4152      	adcs	r2, r2
 8000350:	4610      	mov	r0, r2
 8000352:	4770      	bx	lr
 8000354:	e05d      	b.n	8000412 <__divsi3+0x1c2>
 8000356:	0fca      	lsrs	r2, r1, #31
 8000358:	d000      	beq.n	800035c <__divsi3+0x10c>
 800035a:	4249      	negs	r1, r1
 800035c:	1003      	asrs	r3, r0, #32
 800035e:	d300      	bcc.n	8000362 <__divsi3+0x112>
 8000360:	4240      	negs	r0, r0
 8000362:	4053      	eors	r3, r2
 8000364:	2200      	movs	r2, #0
 8000366:	469c      	mov	ip, r3
 8000368:	0903      	lsrs	r3, r0, #4
 800036a:	428b      	cmp	r3, r1
 800036c:	d32d      	bcc.n	80003ca <__divsi3+0x17a>
 800036e:	0a03      	lsrs	r3, r0, #8
 8000370:	428b      	cmp	r3, r1
 8000372:	d312      	bcc.n	800039a <__divsi3+0x14a>
 8000374:	22fc      	movs	r2, #252	; 0xfc
 8000376:	0189      	lsls	r1, r1, #6
 8000378:	ba12      	rev	r2, r2
 800037a:	0a03      	lsrs	r3, r0, #8
 800037c:	428b      	cmp	r3, r1
 800037e:	d30c      	bcc.n	800039a <__divsi3+0x14a>
 8000380:	0189      	lsls	r1, r1, #6
 8000382:	1192      	asrs	r2, r2, #6
 8000384:	428b      	cmp	r3, r1
 8000386:	d308      	bcc.n	800039a <__divsi3+0x14a>
 8000388:	0189      	lsls	r1, r1, #6
 800038a:	1192      	asrs	r2, r2, #6
 800038c:	428b      	cmp	r3, r1
 800038e:	d304      	bcc.n	800039a <__divsi3+0x14a>
 8000390:	0189      	lsls	r1, r1, #6
 8000392:	d03a      	beq.n	800040a <__divsi3+0x1ba>
 8000394:	1192      	asrs	r2, r2, #6
 8000396:	e000      	b.n	800039a <__divsi3+0x14a>
 8000398:	0989      	lsrs	r1, r1, #6
 800039a:	09c3      	lsrs	r3, r0, #7
 800039c:	428b      	cmp	r3, r1
 800039e:	d301      	bcc.n	80003a4 <__divsi3+0x154>
 80003a0:	01cb      	lsls	r3, r1, #7
 80003a2:	1ac0      	subs	r0, r0, r3
 80003a4:	4152      	adcs	r2, r2
 80003a6:	0983      	lsrs	r3, r0, #6
 80003a8:	428b      	cmp	r3, r1
 80003aa:	d301      	bcc.n	80003b0 <__divsi3+0x160>
 80003ac:	018b      	lsls	r3, r1, #6
 80003ae:	1ac0      	subs	r0, r0, r3
 80003b0:	4152      	adcs	r2, r2
 80003b2:	0943      	lsrs	r3, r0, #5
 80003b4:	428b      	cmp	r3, r1
 80003b6:	d301      	bcc.n	80003bc <__divsi3+0x16c>
 80003b8:	014b      	lsls	r3, r1, #5
 80003ba:	1ac0      	subs	r0, r0, r3
 80003bc:	4152      	adcs	r2, r2
 80003be:	0903      	lsrs	r3, r0, #4
 80003c0:	428b      	cmp	r3, r1
 80003c2:	d301      	bcc.n	80003c8 <__divsi3+0x178>
 80003c4:	010b      	lsls	r3, r1, #4
 80003c6:	1ac0      	subs	r0, r0, r3
 80003c8:	4152      	adcs	r2, r2
 80003ca:	08c3      	lsrs	r3, r0, #3
 80003cc:	428b      	cmp	r3, r1
 80003ce:	d301      	bcc.n	80003d4 <__divsi3+0x184>
 80003d0:	00cb      	lsls	r3, r1, #3
 80003d2:	1ac0      	subs	r0, r0, r3
 80003d4:	4152      	adcs	r2, r2
 80003d6:	0883      	lsrs	r3, r0, #2
 80003d8:	428b      	cmp	r3, r1
 80003da:	d301      	bcc.n	80003e0 <__divsi3+0x190>
 80003dc:	008b      	lsls	r3, r1, #2
 80003de:	1ac0      	subs	r0, r0, r3
 80003e0:	4152      	adcs	r2, r2
 80003e2:	d2d9      	bcs.n	8000398 <__divsi3+0x148>
 80003e4:	0843      	lsrs	r3, r0, #1
 80003e6:	428b      	cmp	r3, r1
 80003e8:	d301      	bcc.n	80003ee <__divsi3+0x19e>
 80003ea:	004b      	lsls	r3, r1, #1
 80003ec:	1ac0      	subs	r0, r0, r3
 80003ee:	4152      	adcs	r2, r2
 80003f0:	1a41      	subs	r1, r0, r1
 80003f2:	d200      	bcs.n	80003f6 <__divsi3+0x1a6>
 80003f4:	4601      	mov	r1, r0
 80003f6:	4663      	mov	r3, ip
 80003f8:	4152      	adcs	r2, r2
 80003fa:	105b      	asrs	r3, r3, #1
 80003fc:	4610      	mov	r0, r2
 80003fe:	d301      	bcc.n	8000404 <__divsi3+0x1b4>
 8000400:	4240      	negs	r0, r0
 8000402:	2b00      	cmp	r3, #0
 8000404:	d500      	bpl.n	8000408 <__divsi3+0x1b8>
 8000406:	4249      	negs	r1, r1
 8000408:	4770      	bx	lr
 800040a:	4663      	mov	r3, ip
 800040c:	105b      	asrs	r3, r3, #1
 800040e:	d300      	bcc.n	8000412 <__divsi3+0x1c2>
 8000410:	4240      	negs	r0, r0
 8000412:	b501      	push	{r0, lr}
 8000414:	2000      	movs	r0, #0
 8000416:	f000 f805 	bl	8000424 <__aeabi_idiv0>
 800041a:	bd02      	pop	{r1, pc}

0800041c <__aeabi_idivmod>:
 800041c:	2900      	cmp	r1, #0
 800041e:	d0f8      	beq.n	8000412 <__divsi3+0x1c2>
 8000420:	e716      	b.n	8000250 <__divsi3>
 8000422:	4770      	bx	lr

08000424 <__aeabi_idiv0>:
 8000424:	4770      	bx	lr
 8000426:	46c0      	nop			; (mov r8, r8)

08000428 <__aeabi_cdrcmple>:
 8000428:	4684      	mov	ip, r0
 800042a:	0010      	movs	r0, r2
 800042c:	4662      	mov	r2, ip
 800042e:	468c      	mov	ip, r1
 8000430:	0019      	movs	r1, r3
 8000432:	4663      	mov	r3, ip
 8000434:	e000      	b.n	8000438 <__aeabi_cdcmpeq>
 8000436:	46c0      	nop			; (mov r8, r8)

08000438 <__aeabi_cdcmpeq>:
 8000438:	b51f      	push	{r0, r1, r2, r3, r4, lr}
 800043a:	f001 fd97 	bl	8001f6c <__ledf2>
 800043e:	2800      	cmp	r0, #0
 8000440:	d401      	bmi.n	8000446 <__aeabi_cdcmpeq+0xe>
 8000442:	2100      	movs	r1, #0
 8000444:	42c8      	cmn	r0, r1
 8000446:	bd1f      	pop	{r0, r1, r2, r3, r4, pc}

08000448 <__aeabi_dcmpeq>:
 8000448:	b510      	push	{r4, lr}
 800044a:	f001 fce7 	bl	8001e1c <__eqdf2>
 800044e:	4240      	negs	r0, r0
 8000450:	3001      	adds	r0, #1
 8000452:	bd10      	pop	{r4, pc}

08000454 <__aeabi_dcmplt>:
 8000454:	b510      	push	{r4, lr}
 8000456:	f001 fd89 	bl	8001f6c <__ledf2>
 800045a:	2800      	cmp	r0, #0
 800045c:	db01      	blt.n	8000462 <__aeabi_dcmplt+0xe>
 800045e:	2000      	movs	r0, #0
 8000460:	bd10      	pop	{r4, pc}
 8000462:	2001      	movs	r0, #1
 8000464:	bd10      	pop	{r4, pc}
 8000466:	46c0      	nop			; (mov r8, r8)

08000468 <__aeabi_dcmple>:
 8000468:	b510      	push	{r4, lr}
 800046a:	f001 fd7f 	bl	8001f6c <__ledf2>
 800046e:	2800      	cmp	r0, #0
 8000470:	dd01      	ble.n	8000476 <__aeabi_dcmple+0xe>
 8000472:	2000      	movs	r0, #0
 8000474:	bd10      	pop	{r4, pc}
 8000476:	2001      	movs	r0, #1
 8000478:	bd10      	pop	{r4, pc}
 800047a:	46c0      	nop			; (mov r8, r8)

0800047c <__aeabi_dcmpgt>:
 800047c:	b510      	push	{r4, lr}
 800047e:	f001 fd0f 	bl	8001ea0 <__gedf2>
 8000482:	2800      	cmp	r0, #0
 8000484:	dc01      	bgt.n	800048a <__aeabi_dcmpgt+0xe>
 8000486:	2000      	movs	r0, #0
 8000488:	bd10      	pop	{r4, pc}
 800048a:	2001      	movs	r0, #1
 800048c:	bd10      	pop	{r4, pc}
 800048e:	46c0      	nop			; (mov r8, r8)

08000490 <__aeabi_dcmpge>:
 8000490:	b510      	push	{r4, lr}
 8000492:	f001 fd05 	bl	8001ea0 <__gedf2>
 8000496:	2800      	cmp	r0, #0
 8000498:	da01      	bge.n	800049e <__aeabi_dcmpge+0xe>
 800049a:	2000      	movs	r0, #0
 800049c:	bd10      	pop	{r4, pc}
 800049e:	2001      	movs	r0, #1
 80004a0:	bd10      	pop	{r4, pc}
 80004a2:	46c0      	nop			; (mov r8, r8)

080004a4 <__aeabi_cfrcmple>:
 80004a4:	4684      	mov	ip, r0
 80004a6:	0008      	movs	r0, r1
 80004a8:	4661      	mov	r1, ip
 80004aa:	e7ff      	b.n	80004ac <__aeabi_cfcmpeq>

080004ac <__aeabi_cfcmpeq>:
 80004ac:	b51f      	push	{r0, r1, r2, r3, r4, lr}
 80004ae:	f000 fb55 	bl	8000b5c <__lesf2>
 80004b2:	2800      	cmp	r0, #0
 80004b4:	d401      	bmi.n	80004ba <__aeabi_cfcmpeq+0xe>
 80004b6:	2100      	movs	r1, #0
 80004b8:	42c8      	cmn	r0, r1
 80004ba:	bd1f      	pop	{r0, r1, r2, r3, r4, pc}

080004bc <__aeabi_fcmpeq>:
 80004bc:	b510      	push	{r4, lr}
 80004be:	f000 fae1 	bl	8000a84 <__eqsf2>
 80004c2:	4240      	negs	r0, r0
 80004c4:	3001      	adds	r0, #1
 80004c6:	bd10      	pop	{r4, pc}

080004c8 <__aeabi_fcmplt>:
 80004c8:	b510      	push	{r4, lr}
 80004ca:	f000 fb47 	bl	8000b5c <__lesf2>
 80004ce:	2800      	cmp	r0, #0
 80004d0:	db01      	blt.n	80004d6 <__aeabi_fcmplt+0xe>
 80004d2:	2000      	movs	r0, #0
 80004d4:	bd10      	pop	{r4, pc}
 80004d6:	2001      	movs	r0, #1
 80004d8:	bd10      	pop	{r4, pc}
 80004da:	46c0      	nop			; (mov r8, r8)

080004dc <__aeabi_fcmple>:
 80004dc:	b510      	push	{r4, lr}
 80004de:	f000 fb3d 	bl	8000b5c <__lesf2>
 80004e2:	2800      	cmp	r0, #0
 80004e4:	dd01      	ble.n	80004ea <__aeabi_fcmple+0xe>
 80004e6:	2000      	movs	r0, #0
 80004e8:	bd10      	pop	{r4, pc}
 80004ea:	2001      	movs	r0, #1
 80004ec:	bd10      	pop	{r4, pc}
 80004ee:	46c0      	nop			; (mov r8, r8)

080004f0 <__aeabi_fcmpgt>:
 80004f0:	b510      	push	{r4, lr}
 80004f2:	f000 faed 	bl	8000ad0 <__gesf2>
 80004f6:	2800      	cmp	r0, #0
 80004f8:	dc01      	bgt.n	80004fe <__aeabi_fcmpgt+0xe>
 80004fa:	2000      	movs	r0, #0
 80004fc:	bd10      	pop	{r4, pc}
 80004fe:	2001      	movs	r0, #1
 8000500:	bd10      	pop	{r4, pc}
 8000502:	46c0      	nop			; (mov r8, r8)

08000504 <__aeabi_fcmpge>:
 8000504:	b510      	push	{r4, lr}
 8000506:	f000 fae3 	bl	8000ad0 <__gesf2>
 800050a:	2800      	cmp	r0, #0
 800050c:	da01      	bge.n	8000512 <__aeabi_fcmpge+0xe>
 800050e:	2000      	movs	r0, #0
 8000510:	bd10      	pop	{r4, pc}
 8000512:	2001      	movs	r0, #1
 8000514:	bd10      	pop	{r4, pc}
 8000516:	46c0      	nop			; (mov r8, r8)

08000518 <__aeabi_fadd>:
 8000518:	b5f0      	push	{r4, r5, r6, r7, lr}
 800051a:	46c6      	mov	lr, r8
 800051c:	0243      	lsls	r3, r0, #9
 800051e:	0a5b      	lsrs	r3, r3, #9
 8000520:	024e      	lsls	r6, r1, #9
 8000522:	0045      	lsls	r5, r0, #1
 8000524:	004f      	lsls	r7, r1, #1
 8000526:	00da      	lsls	r2, r3, #3
 8000528:	0fc4      	lsrs	r4, r0, #31
 800052a:	469c      	mov	ip, r3
 800052c:	0a70      	lsrs	r0, r6, #9
 800052e:	4690      	mov	r8, r2
 8000530:	b500      	push	{lr}
 8000532:	0e2d      	lsrs	r5, r5, #24
 8000534:	0e3f      	lsrs	r7, r7, #24
 8000536:	0fc9      	lsrs	r1, r1, #31
 8000538:	09b6      	lsrs	r6, r6, #6
 800053a:	428c      	cmp	r4, r1
 800053c:	d04b      	beq.n	80005d6 <__aeabi_fadd+0xbe>
 800053e:	1bea      	subs	r2, r5, r7
 8000540:	2a00      	cmp	r2, #0
 8000542:	dd36      	ble.n	80005b2 <__aeabi_fadd+0x9a>
 8000544:	2f00      	cmp	r7, #0
 8000546:	d061      	beq.n	800060c <__aeabi_fadd+0xf4>
 8000548:	2dff      	cmp	r5, #255	; 0xff
 800054a:	d100      	bne.n	800054e <__aeabi_fadd+0x36>
 800054c:	e0ad      	b.n	80006aa <__aeabi_fadd+0x192>
 800054e:	2380      	movs	r3, #128	; 0x80
 8000550:	04db      	lsls	r3, r3, #19
 8000552:	431e      	orrs	r6, r3
 8000554:	2a1b      	cmp	r2, #27
 8000556:	dc00      	bgt.n	800055a <__aeabi_fadd+0x42>
 8000558:	e0d3      	b.n	8000702 <__aeabi_fadd+0x1ea>
 800055a:	2001      	movs	r0, #1
 800055c:	4643      	mov	r3, r8
 800055e:	1a18      	subs	r0, r3, r0
 8000560:	0143      	lsls	r3, r0, #5
 8000562:	d400      	bmi.n	8000566 <__aeabi_fadd+0x4e>
 8000564:	e08c      	b.n	8000680 <__aeabi_fadd+0x168>
 8000566:	0180      	lsls	r0, r0, #6
 8000568:	0987      	lsrs	r7, r0, #6
 800056a:	0038      	movs	r0, r7
 800056c:	f002 fcda 	bl	8002f24 <__clzsi2>
 8000570:	3805      	subs	r0, #5
 8000572:	4087      	lsls	r7, r0
 8000574:	4285      	cmp	r5, r0
 8000576:	dc00      	bgt.n	800057a <__aeabi_fadd+0x62>
 8000578:	e0b6      	b.n	80006e8 <__aeabi_fadd+0x1d0>
 800057a:	1a2d      	subs	r5, r5, r0
 800057c:	48b3      	ldr	r0, [pc, #716]	; (800084c <__aeabi_fadd+0x334>)
 800057e:	4038      	ands	r0, r7
 8000580:	0743      	lsls	r3, r0, #29
 8000582:	d004      	beq.n	800058e <__aeabi_fadd+0x76>
 8000584:	230f      	movs	r3, #15
 8000586:	4003      	ands	r3, r0
 8000588:	2b04      	cmp	r3, #4
 800058a:	d000      	beq.n	800058e <__aeabi_fadd+0x76>
 800058c:	3004      	adds	r0, #4
 800058e:	0143      	lsls	r3, r0, #5
 8000590:	d400      	bmi.n	8000594 <__aeabi_fadd+0x7c>
 8000592:	e078      	b.n	8000686 <__aeabi_fadd+0x16e>
 8000594:	1c6a      	adds	r2, r5, #1
 8000596:	2dfe      	cmp	r5, #254	; 0xfe
 8000598:	d065      	beq.n	8000666 <__aeabi_fadd+0x14e>
 800059a:	0180      	lsls	r0, r0, #6
 800059c:	0a43      	lsrs	r3, r0, #9
 800059e:	469c      	mov	ip, r3
 80005a0:	b2d2      	uxtb	r2, r2
 80005a2:	4663      	mov	r3, ip
 80005a4:	05d0      	lsls	r0, r2, #23
 80005a6:	4318      	orrs	r0, r3
 80005a8:	07e4      	lsls	r4, r4, #31
 80005aa:	4320      	orrs	r0, r4
 80005ac:	bc80      	pop	{r7}
 80005ae:	46b8      	mov	r8, r7
 80005b0:	bdf0      	pop	{r4, r5, r6, r7, pc}
 80005b2:	2a00      	cmp	r2, #0
 80005b4:	d035      	beq.n	8000622 <__aeabi_fadd+0x10a>
 80005b6:	1b7a      	subs	r2, r7, r5
 80005b8:	2d00      	cmp	r5, #0
 80005ba:	d000      	beq.n	80005be <__aeabi_fadd+0xa6>
 80005bc:	e0af      	b.n	800071e <__aeabi_fadd+0x206>
 80005be:	4643      	mov	r3, r8
 80005c0:	2b00      	cmp	r3, #0
 80005c2:	d100      	bne.n	80005c6 <__aeabi_fadd+0xae>
 80005c4:	e0a7      	b.n	8000716 <__aeabi_fadd+0x1fe>
 80005c6:	1e53      	subs	r3, r2, #1
 80005c8:	2a01      	cmp	r2, #1
 80005ca:	d100      	bne.n	80005ce <__aeabi_fadd+0xb6>
 80005cc:	e12f      	b.n	800082e <__aeabi_fadd+0x316>
 80005ce:	2aff      	cmp	r2, #255	; 0xff
 80005d0:	d069      	beq.n	80006a6 <__aeabi_fadd+0x18e>
 80005d2:	001a      	movs	r2, r3
 80005d4:	e0aa      	b.n	800072c <__aeabi_fadd+0x214>
 80005d6:	1be9      	subs	r1, r5, r7
 80005d8:	2900      	cmp	r1, #0
 80005da:	dd70      	ble.n	80006be <__aeabi_fadd+0x1a6>
 80005dc:	2f00      	cmp	r7, #0
 80005de:	d037      	beq.n	8000650 <__aeabi_fadd+0x138>
 80005e0:	2dff      	cmp	r5, #255	; 0xff
 80005e2:	d062      	beq.n	80006aa <__aeabi_fadd+0x192>
 80005e4:	2380      	movs	r3, #128	; 0x80
 80005e6:	04db      	lsls	r3, r3, #19
 80005e8:	431e      	orrs	r6, r3
 80005ea:	291b      	cmp	r1, #27
 80005ec:	dc00      	bgt.n	80005f0 <__aeabi_fadd+0xd8>
 80005ee:	e0b0      	b.n	8000752 <__aeabi_fadd+0x23a>
 80005f0:	2001      	movs	r0, #1
 80005f2:	4440      	add	r0, r8
 80005f4:	0143      	lsls	r3, r0, #5
 80005f6:	d543      	bpl.n	8000680 <__aeabi_fadd+0x168>
 80005f8:	3501      	adds	r5, #1
 80005fa:	2dff      	cmp	r5, #255	; 0xff
 80005fc:	d033      	beq.n	8000666 <__aeabi_fadd+0x14e>
 80005fe:	2301      	movs	r3, #1
 8000600:	4a93      	ldr	r2, [pc, #588]	; (8000850 <__aeabi_fadd+0x338>)
 8000602:	4003      	ands	r3, r0
 8000604:	0840      	lsrs	r0, r0, #1
 8000606:	4010      	ands	r0, r2
 8000608:	4318      	orrs	r0, r3
 800060a:	e7b9      	b.n	8000580 <__aeabi_fadd+0x68>
 800060c:	2e00      	cmp	r6, #0
 800060e:	d100      	bne.n	8000612 <__aeabi_fadd+0xfa>
 8000610:	e083      	b.n	800071a <__aeabi_fadd+0x202>
 8000612:	1e51      	subs	r1, r2, #1
 8000614:	2a01      	cmp	r2, #1
 8000616:	d100      	bne.n	800061a <__aeabi_fadd+0x102>
 8000618:	e0d8      	b.n	80007cc <__aeabi_fadd+0x2b4>
 800061a:	2aff      	cmp	r2, #255	; 0xff
 800061c:	d045      	beq.n	80006aa <__aeabi_fadd+0x192>
 800061e:	000a      	movs	r2, r1
 8000620:	e798      	b.n	8000554 <__aeabi_fadd+0x3c>
 8000622:	27fe      	movs	r7, #254	; 0xfe
 8000624:	1c6a      	adds	r2, r5, #1
 8000626:	4217      	tst	r7, r2
 8000628:	d000      	beq.n	800062c <__aeabi_fadd+0x114>
 800062a:	e086      	b.n	800073a <__aeabi_fadd+0x222>
 800062c:	2d00      	cmp	r5, #0
 800062e:	d000      	beq.n	8000632 <__aeabi_fadd+0x11a>
 8000630:	e0b7      	b.n	80007a2 <__aeabi_fadd+0x28a>
 8000632:	4643      	mov	r3, r8
 8000634:	2b00      	cmp	r3, #0
 8000636:	d100      	bne.n	800063a <__aeabi_fadd+0x122>
 8000638:	e0f3      	b.n	8000822 <__aeabi_fadd+0x30a>
 800063a:	2200      	movs	r2, #0
 800063c:	2e00      	cmp	r6, #0
 800063e:	d0b0      	beq.n	80005a2 <__aeabi_fadd+0x8a>
 8000640:	1b98      	subs	r0, r3, r6
 8000642:	0143      	lsls	r3, r0, #5
 8000644:	d400      	bmi.n	8000648 <__aeabi_fadd+0x130>
 8000646:	e0fa      	b.n	800083e <__aeabi_fadd+0x326>
 8000648:	4643      	mov	r3, r8
 800064a:	000c      	movs	r4, r1
 800064c:	1af0      	subs	r0, r6, r3
 800064e:	e797      	b.n	8000580 <__aeabi_fadd+0x68>
 8000650:	2e00      	cmp	r6, #0
 8000652:	d100      	bne.n	8000656 <__aeabi_fadd+0x13e>
 8000654:	e0c8      	b.n	80007e8 <__aeabi_fadd+0x2d0>
 8000656:	1e4a      	subs	r2, r1, #1
 8000658:	2901      	cmp	r1, #1
 800065a:	d100      	bne.n	800065e <__aeabi_fadd+0x146>
 800065c:	e0ae      	b.n	80007bc <__aeabi_fadd+0x2a4>
 800065e:	29ff      	cmp	r1, #255	; 0xff
 8000660:	d023      	beq.n	80006aa <__aeabi_fadd+0x192>
 8000662:	0011      	movs	r1, r2
 8000664:	e7c1      	b.n	80005ea <__aeabi_fadd+0xd2>
 8000666:	2300      	movs	r3, #0
 8000668:	22ff      	movs	r2, #255	; 0xff
 800066a:	469c      	mov	ip, r3
 800066c:	e799      	b.n	80005a2 <__aeabi_fadd+0x8a>
 800066e:	21fe      	movs	r1, #254	; 0xfe
 8000670:	1c6a      	adds	r2, r5, #1
 8000672:	4211      	tst	r1, r2
 8000674:	d077      	beq.n	8000766 <__aeabi_fadd+0x24e>
 8000676:	2aff      	cmp	r2, #255	; 0xff
 8000678:	d0f5      	beq.n	8000666 <__aeabi_fadd+0x14e>
 800067a:	0015      	movs	r5, r2
 800067c:	4446      	add	r6, r8
 800067e:	0870      	lsrs	r0, r6, #1
 8000680:	0743      	lsls	r3, r0, #29
 8000682:	d000      	beq.n	8000686 <__aeabi_fadd+0x16e>
 8000684:	e77e      	b.n	8000584 <__aeabi_fadd+0x6c>
 8000686:	08c3      	lsrs	r3, r0, #3
 8000688:	2dff      	cmp	r5, #255	; 0xff
 800068a:	d00e      	beq.n	80006aa <__aeabi_fadd+0x192>
 800068c:	025b      	lsls	r3, r3, #9
 800068e:	0a5b      	lsrs	r3, r3, #9
 8000690:	469c      	mov	ip, r3
 8000692:	b2ea      	uxtb	r2, r5
 8000694:	e785      	b.n	80005a2 <__aeabi_fadd+0x8a>
 8000696:	2e00      	cmp	r6, #0
 8000698:	d007      	beq.n	80006aa <__aeabi_fadd+0x192>
 800069a:	2280      	movs	r2, #128	; 0x80
 800069c:	03d2      	lsls	r2, r2, #15
 800069e:	4213      	tst	r3, r2
 80006a0:	d003      	beq.n	80006aa <__aeabi_fadd+0x192>
 80006a2:	4210      	tst	r0, r2
 80006a4:	d101      	bne.n	80006aa <__aeabi_fadd+0x192>
 80006a6:	000c      	movs	r4, r1
 80006a8:	0003      	movs	r3, r0
 80006aa:	2b00      	cmp	r3, #0
 80006ac:	d0db      	beq.n	8000666 <__aeabi_fadd+0x14e>
 80006ae:	2080      	movs	r0, #128	; 0x80
 80006b0:	03c0      	lsls	r0, r0, #15
 80006b2:	4318      	orrs	r0, r3
 80006b4:	0240      	lsls	r0, r0, #9
 80006b6:	0a43      	lsrs	r3, r0, #9
 80006b8:	469c      	mov	ip, r3
 80006ba:	22ff      	movs	r2, #255	; 0xff
 80006bc:	e771      	b.n	80005a2 <__aeabi_fadd+0x8a>
 80006be:	2900      	cmp	r1, #0
 80006c0:	d0d5      	beq.n	800066e <__aeabi_fadd+0x156>
 80006c2:	1b7a      	subs	r2, r7, r5
 80006c4:	2d00      	cmp	r5, #0
 80006c6:	d160      	bne.n	800078a <__aeabi_fadd+0x272>
 80006c8:	4643      	mov	r3, r8
 80006ca:	2b00      	cmp	r3, #0
 80006cc:	d024      	beq.n	8000718 <__aeabi_fadd+0x200>
 80006ce:	1e53      	subs	r3, r2, #1
 80006d0:	2a01      	cmp	r2, #1
 80006d2:	d073      	beq.n	80007bc <__aeabi_fadd+0x2a4>
 80006d4:	2aff      	cmp	r2, #255	; 0xff
 80006d6:	d0e7      	beq.n	80006a8 <__aeabi_fadd+0x190>
 80006d8:	001a      	movs	r2, r3
 80006da:	2a1b      	cmp	r2, #27
 80006dc:	dc00      	bgt.n	80006e0 <__aeabi_fadd+0x1c8>
 80006de:	e085      	b.n	80007ec <__aeabi_fadd+0x2d4>
 80006e0:	2001      	movs	r0, #1
 80006e2:	003d      	movs	r5, r7
 80006e4:	1980      	adds	r0, r0, r6
 80006e6:	e785      	b.n	80005f4 <__aeabi_fadd+0xdc>
 80006e8:	2320      	movs	r3, #32
 80006ea:	003a      	movs	r2, r7
 80006ec:	1b45      	subs	r5, r0, r5
 80006ee:	0038      	movs	r0, r7
 80006f0:	3501      	adds	r5, #1
 80006f2:	40ea      	lsrs	r2, r5
 80006f4:	1b5d      	subs	r5, r3, r5
 80006f6:	40a8      	lsls	r0, r5
 80006f8:	1e43      	subs	r3, r0, #1
 80006fa:	4198      	sbcs	r0, r3
 80006fc:	2500      	movs	r5, #0
 80006fe:	4310      	orrs	r0, r2
 8000700:	e73e      	b.n	8000580 <__aeabi_fadd+0x68>
 8000702:	2320      	movs	r3, #32
 8000704:	0030      	movs	r0, r6
 8000706:	1a9b      	subs	r3, r3, r2
 8000708:	0031      	movs	r1, r6
 800070a:	4098      	lsls	r0, r3
 800070c:	40d1      	lsrs	r1, r2
 800070e:	1e43      	subs	r3, r0, #1
 8000710:	4198      	sbcs	r0, r3
 8000712:	4308      	orrs	r0, r1
 8000714:	e722      	b.n	800055c <__aeabi_fadd+0x44>
 8000716:	000c      	movs	r4, r1
 8000718:	0003      	movs	r3, r0
 800071a:	0015      	movs	r5, r2
 800071c:	e7b4      	b.n	8000688 <__aeabi_fadd+0x170>
 800071e:	2fff      	cmp	r7, #255	; 0xff
 8000720:	d0c1      	beq.n	80006a6 <__aeabi_fadd+0x18e>
 8000722:	2380      	movs	r3, #128	; 0x80
 8000724:	4640      	mov	r0, r8
 8000726:	04db      	lsls	r3, r3, #19
 8000728:	4318      	orrs	r0, r3
 800072a:	4680      	mov	r8, r0
 800072c:	2a1b      	cmp	r2, #27
 800072e:	dd51      	ble.n	80007d4 <__aeabi_fadd+0x2bc>
 8000730:	2001      	movs	r0, #1
 8000732:	000c      	movs	r4, r1
 8000734:	003d      	movs	r5, r7
 8000736:	1a30      	subs	r0, r6, r0
 8000738:	e712      	b.n	8000560 <__aeabi_fadd+0x48>
 800073a:	4643      	mov	r3, r8
 800073c:	1b9f      	subs	r7, r3, r6
 800073e:	017b      	lsls	r3, r7, #5
 8000740:	d42b      	bmi.n	800079a <__aeabi_fadd+0x282>
 8000742:	2f00      	cmp	r7, #0
 8000744:	d000      	beq.n	8000748 <__aeabi_fadd+0x230>
 8000746:	e710      	b.n	800056a <__aeabi_fadd+0x52>
 8000748:	2300      	movs	r3, #0
 800074a:	2400      	movs	r4, #0
 800074c:	2200      	movs	r2, #0
 800074e:	469c      	mov	ip, r3
 8000750:	e727      	b.n	80005a2 <__aeabi_fadd+0x8a>
 8000752:	2320      	movs	r3, #32
 8000754:	0032      	movs	r2, r6
 8000756:	0030      	movs	r0, r6
 8000758:	40ca      	lsrs	r2, r1
 800075a:	1a59      	subs	r1, r3, r1
 800075c:	4088      	lsls	r0, r1
 800075e:	1e43      	subs	r3, r0, #1
 8000760:	4198      	sbcs	r0, r3
 8000762:	4310      	orrs	r0, r2
 8000764:	e745      	b.n	80005f2 <__aeabi_fadd+0xda>
 8000766:	2d00      	cmp	r5, #0
 8000768:	d14a      	bne.n	8000800 <__aeabi_fadd+0x2e8>
 800076a:	4643      	mov	r3, r8
 800076c:	2b00      	cmp	r3, #0
 800076e:	d063      	beq.n	8000838 <__aeabi_fadd+0x320>
 8000770:	2200      	movs	r2, #0
 8000772:	2e00      	cmp	r6, #0
 8000774:	d100      	bne.n	8000778 <__aeabi_fadd+0x260>
 8000776:	e714      	b.n	80005a2 <__aeabi_fadd+0x8a>
 8000778:	0030      	movs	r0, r6
 800077a:	4440      	add	r0, r8
 800077c:	0143      	lsls	r3, r0, #5
 800077e:	d400      	bmi.n	8000782 <__aeabi_fadd+0x26a>
 8000780:	e77e      	b.n	8000680 <__aeabi_fadd+0x168>
 8000782:	4b32      	ldr	r3, [pc, #200]	; (800084c <__aeabi_fadd+0x334>)
 8000784:	3501      	adds	r5, #1
 8000786:	4018      	ands	r0, r3
 8000788:	e77a      	b.n	8000680 <__aeabi_fadd+0x168>
 800078a:	2fff      	cmp	r7, #255	; 0xff
 800078c:	d08c      	beq.n	80006a8 <__aeabi_fadd+0x190>
 800078e:	2380      	movs	r3, #128	; 0x80
 8000790:	4641      	mov	r1, r8
 8000792:	04db      	lsls	r3, r3, #19
 8000794:	4319      	orrs	r1, r3
 8000796:	4688      	mov	r8, r1
 8000798:	e79f      	b.n	80006da <__aeabi_fadd+0x1c2>
 800079a:	4643      	mov	r3, r8
 800079c:	000c      	movs	r4, r1
 800079e:	1af7      	subs	r7, r6, r3
 80007a0:	e6e3      	b.n	800056a <__aeabi_fadd+0x52>
 80007a2:	4642      	mov	r2, r8
 80007a4:	2a00      	cmp	r2, #0
 80007a6:	d000      	beq.n	80007aa <__aeabi_fadd+0x292>
 80007a8:	e775      	b.n	8000696 <__aeabi_fadd+0x17e>
 80007aa:	2e00      	cmp	r6, #0
 80007ac:	d000      	beq.n	80007b0 <__aeabi_fadd+0x298>
 80007ae:	e77a      	b.n	80006a6 <__aeabi_fadd+0x18e>
 80007b0:	2380      	movs	r3, #128	; 0x80
 80007b2:	03db      	lsls	r3, r3, #15
 80007b4:	2400      	movs	r4, #0
 80007b6:	469c      	mov	ip, r3
 80007b8:	22ff      	movs	r2, #255	; 0xff
 80007ba:	e6f2      	b.n	80005a2 <__aeabi_fadd+0x8a>
 80007bc:	0030      	movs	r0, r6
 80007be:	4440      	add	r0, r8
 80007c0:	2501      	movs	r5, #1
 80007c2:	0143      	lsls	r3, r0, #5
 80007c4:	d400      	bmi.n	80007c8 <__aeabi_fadd+0x2b0>
 80007c6:	e75b      	b.n	8000680 <__aeabi_fadd+0x168>
 80007c8:	2502      	movs	r5, #2
 80007ca:	e718      	b.n	80005fe <__aeabi_fadd+0xe6>
 80007cc:	4643      	mov	r3, r8
 80007ce:	2501      	movs	r5, #1
 80007d0:	1b98      	subs	r0, r3, r6
 80007d2:	e6c5      	b.n	8000560 <__aeabi_fadd+0x48>
 80007d4:	2320      	movs	r3, #32
 80007d6:	4644      	mov	r4, r8
 80007d8:	4640      	mov	r0, r8
 80007da:	40d4      	lsrs	r4, r2
 80007dc:	1a9a      	subs	r2, r3, r2
 80007de:	4090      	lsls	r0, r2
 80007e0:	1e43      	subs	r3, r0, #1
 80007e2:	4198      	sbcs	r0, r3
 80007e4:	4320      	orrs	r0, r4
 80007e6:	e7a4      	b.n	8000732 <__aeabi_fadd+0x21a>
 80007e8:	000d      	movs	r5, r1
 80007ea:	e74d      	b.n	8000688 <__aeabi_fadd+0x170>
 80007ec:	2320      	movs	r3, #32
 80007ee:	4641      	mov	r1, r8
 80007f0:	4640      	mov	r0, r8
 80007f2:	40d1      	lsrs	r1, r2
 80007f4:	1a9a      	subs	r2, r3, r2
 80007f6:	4090      	lsls	r0, r2
 80007f8:	1e43      	subs	r3, r0, #1
 80007fa:	4198      	sbcs	r0, r3
 80007fc:	4308      	orrs	r0, r1
 80007fe:	e770      	b.n	80006e2 <__aeabi_fadd+0x1ca>
 8000800:	4642      	mov	r2, r8
 8000802:	2a00      	cmp	r2, #0
 8000804:	d100      	bne.n	8000808 <__aeabi_fadd+0x2f0>
 8000806:	e74f      	b.n	80006a8 <__aeabi_fadd+0x190>
 8000808:	2e00      	cmp	r6, #0
 800080a:	d100      	bne.n	800080e <__aeabi_fadd+0x2f6>
 800080c:	e74d      	b.n	80006aa <__aeabi_fadd+0x192>
 800080e:	2280      	movs	r2, #128	; 0x80
 8000810:	03d2      	lsls	r2, r2, #15
 8000812:	4213      	tst	r3, r2
 8000814:	d100      	bne.n	8000818 <__aeabi_fadd+0x300>
 8000816:	e748      	b.n	80006aa <__aeabi_fadd+0x192>
 8000818:	4210      	tst	r0, r2
 800081a:	d000      	beq.n	800081e <__aeabi_fadd+0x306>
 800081c:	e745      	b.n	80006aa <__aeabi_fadd+0x192>
 800081e:	0003      	movs	r3, r0
 8000820:	e743      	b.n	80006aa <__aeabi_fadd+0x192>
 8000822:	2e00      	cmp	r6, #0
 8000824:	d090      	beq.n	8000748 <__aeabi_fadd+0x230>
 8000826:	000c      	movs	r4, r1
 8000828:	4684      	mov	ip, r0
 800082a:	2200      	movs	r2, #0
 800082c:	e6b9      	b.n	80005a2 <__aeabi_fadd+0x8a>
 800082e:	4643      	mov	r3, r8
 8000830:	000c      	movs	r4, r1
 8000832:	1af0      	subs	r0, r6, r3
 8000834:	3501      	adds	r5, #1
 8000836:	e693      	b.n	8000560 <__aeabi_fadd+0x48>
 8000838:	4684      	mov	ip, r0
 800083a:	2200      	movs	r2, #0
 800083c:	e6b1      	b.n	80005a2 <__aeabi_fadd+0x8a>
 800083e:	2800      	cmp	r0, #0
 8000840:	d000      	beq.n	8000844 <__aeabi_fadd+0x32c>
 8000842:	e71d      	b.n	8000680 <__aeabi_fadd+0x168>
 8000844:	2300      	movs	r3, #0
 8000846:	2400      	movs	r4, #0
 8000848:	469c      	mov	ip, r3
 800084a:	e6aa      	b.n	80005a2 <__aeabi_fadd+0x8a>
 800084c:	fbffffff 	.word	0xfbffffff
 8000850:	7dffffff 	.word	0x7dffffff

08000854 <__aeabi_fdiv>:
 8000854:	b5f0      	push	{r4, r5, r6, r7, lr}
 8000856:	464f      	mov	r7, r9
 8000858:	4646      	mov	r6, r8
 800085a:	46d6      	mov	lr, sl
 800085c:	0245      	lsls	r5, r0, #9
 800085e:	b5c0      	push	{r6, r7, lr}
 8000860:	0047      	lsls	r7, r0, #1
 8000862:	1c0c      	adds	r4, r1, #0
 8000864:	0a6d      	lsrs	r5, r5, #9
 8000866:	0e3f      	lsrs	r7, r7, #24
 8000868:	0fc6      	lsrs	r6, r0, #31
 800086a:	2f00      	cmp	r7, #0
 800086c:	d100      	bne.n	8000870 <__aeabi_fdiv+0x1c>
 800086e:	e070      	b.n	8000952 <__aeabi_fdiv+0xfe>
 8000870:	2fff      	cmp	r7, #255	; 0xff
 8000872:	d100      	bne.n	8000876 <__aeabi_fdiv+0x22>
 8000874:	e075      	b.n	8000962 <__aeabi_fdiv+0x10e>
 8000876:	00eb      	lsls	r3, r5, #3
 8000878:	2580      	movs	r5, #128	; 0x80
 800087a:	04ed      	lsls	r5, r5, #19
 800087c:	431d      	orrs	r5, r3
 800087e:	2300      	movs	r3, #0
 8000880:	4699      	mov	r9, r3
 8000882:	469a      	mov	sl, r3
 8000884:	3f7f      	subs	r7, #127	; 0x7f
 8000886:	0260      	lsls	r0, r4, #9
 8000888:	0a43      	lsrs	r3, r0, #9
 800088a:	4698      	mov	r8, r3
 800088c:	0063      	lsls	r3, r4, #1
 800088e:	0e1b      	lsrs	r3, r3, #24
 8000890:	0fe4      	lsrs	r4, r4, #31
 8000892:	2b00      	cmp	r3, #0
 8000894:	d04e      	beq.n	8000934 <__aeabi_fdiv+0xe0>
 8000896:	2bff      	cmp	r3, #255	; 0xff
 8000898:	d046      	beq.n	8000928 <__aeabi_fdiv+0xd4>
 800089a:	4642      	mov	r2, r8
 800089c:	00d0      	lsls	r0, r2, #3
 800089e:	2280      	movs	r2, #128	; 0x80
 80008a0:	04d2      	lsls	r2, r2, #19
 80008a2:	4302      	orrs	r2, r0
 80008a4:	4690      	mov	r8, r2
 80008a6:	2200      	movs	r2, #0
 80008a8:	3b7f      	subs	r3, #127	; 0x7f
 80008aa:	0031      	movs	r1, r6
 80008ac:	1aff      	subs	r7, r7, r3
 80008ae:	464b      	mov	r3, r9
 80008b0:	4061      	eors	r1, r4
 80008b2:	b2c9      	uxtb	r1, r1
 80008b4:	4313      	orrs	r3, r2
 80008b6:	2b0f      	cmp	r3, #15
 80008b8:	d900      	bls.n	80008bc <__aeabi_fdiv+0x68>
 80008ba:	e0b5      	b.n	8000a28 <__aeabi_fdiv+0x1d4>
 80008bc:	486e      	ldr	r0, [pc, #440]	; (8000a78 <__aeabi_fdiv+0x224>)
 80008be:	009b      	lsls	r3, r3, #2
 80008c0:	58c3      	ldr	r3, [r0, r3]
 80008c2:	469f      	mov	pc, r3
 80008c4:	2300      	movs	r3, #0
 80008c6:	4698      	mov	r8, r3
 80008c8:	0026      	movs	r6, r4
 80008ca:	4645      	mov	r5, r8
 80008cc:	4692      	mov	sl, r2
 80008ce:	4653      	mov	r3, sl
 80008d0:	2b02      	cmp	r3, #2
 80008d2:	d100      	bne.n	80008d6 <__aeabi_fdiv+0x82>
 80008d4:	e089      	b.n	80009ea <__aeabi_fdiv+0x196>
 80008d6:	2b03      	cmp	r3, #3
 80008d8:	d100      	bne.n	80008dc <__aeabi_fdiv+0x88>
 80008da:	e09e      	b.n	8000a1a <__aeabi_fdiv+0x1c6>
 80008dc:	2b01      	cmp	r3, #1
 80008de:	d018      	beq.n	8000912 <__aeabi_fdiv+0xbe>
 80008e0:	003b      	movs	r3, r7
 80008e2:	337f      	adds	r3, #127	; 0x7f
 80008e4:	2b00      	cmp	r3, #0
 80008e6:	dd69      	ble.n	80009bc <__aeabi_fdiv+0x168>
 80008e8:	076a      	lsls	r2, r5, #29
 80008ea:	d004      	beq.n	80008f6 <__aeabi_fdiv+0xa2>
 80008ec:	220f      	movs	r2, #15
 80008ee:	402a      	ands	r2, r5
 80008f0:	2a04      	cmp	r2, #4
 80008f2:	d000      	beq.n	80008f6 <__aeabi_fdiv+0xa2>
 80008f4:	3504      	adds	r5, #4
 80008f6:	012a      	lsls	r2, r5, #4
 80008f8:	d503      	bpl.n	8000902 <__aeabi_fdiv+0xae>
 80008fa:	4b60      	ldr	r3, [pc, #384]	; (8000a7c <__aeabi_fdiv+0x228>)
 80008fc:	401d      	ands	r5, r3
 80008fe:	003b      	movs	r3, r7
 8000900:	3380      	adds	r3, #128	; 0x80
 8000902:	2bfe      	cmp	r3, #254	; 0xfe
 8000904:	dd00      	ble.n	8000908 <__aeabi_fdiv+0xb4>
 8000906:	e070      	b.n	80009ea <__aeabi_fdiv+0x196>
 8000908:	01ad      	lsls	r5, r5, #6
 800090a:	0a6d      	lsrs	r5, r5, #9
 800090c:	b2d8      	uxtb	r0, r3
 800090e:	e002      	b.n	8000916 <__aeabi_fdiv+0xc2>
 8000910:	000e      	movs	r6, r1
 8000912:	2000      	movs	r0, #0
 8000914:	2500      	movs	r5, #0
 8000916:	05c0      	lsls	r0, r0, #23
 8000918:	4328      	orrs	r0, r5
 800091a:	07f6      	lsls	r6, r6, #31
 800091c:	4330      	orrs	r0, r6
 800091e:	bce0      	pop	{r5, r6, r7}
 8000920:	46ba      	mov	sl, r7
 8000922:	46b1      	mov	r9, r6
 8000924:	46a8      	mov	r8, r5
 8000926:	bdf0      	pop	{r4, r5, r6, r7, pc}
 8000928:	4643      	mov	r3, r8
 800092a:	2b00      	cmp	r3, #0
 800092c:	d13f      	bne.n	80009ae <__aeabi_fdiv+0x15a>
 800092e:	2202      	movs	r2, #2
 8000930:	3fff      	subs	r7, #255	; 0xff
 8000932:	e003      	b.n	800093c <__aeabi_fdiv+0xe8>
 8000934:	4643      	mov	r3, r8
 8000936:	2b00      	cmp	r3, #0
 8000938:	d12d      	bne.n	8000996 <__aeabi_fdiv+0x142>
 800093a:	2201      	movs	r2, #1
 800093c:	0031      	movs	r1, r6
 800093e:	464b      	mov	r3, r9
 8000940:	4061      	eors	r1, r4
 8000942:	b2c9      	uxtb	r1, r1
 8000944:	4313      	orrs	r3, r2
 8000946:	2b0f      	cmp	r3, #15
 8000948:	d834      	bhi.n	80009b4 <__aeabi_fdiv+0x160>
 800094a:	484d      	ldr	r0, [pc, #308]	; (8000a80 <__aeabi_fdiv+0x22c>)
 800094c:	009b      	lsls	r3, r3, #2
 800094e:	58c3      	ldr	r3, [r0, r3]
 8000950:	469f      	mov	pc, r3
 8000952:	2d00      	cmp	r5, #0
 8000954:	d113      	bne.n	800097e <__aeabi_fdiv+0x12a>
 8000956:	2304      	movs	r3, #4
 8000958:	4699      	mov	r9, r3
 800095a:	3b03      	subs	r3, #3
 800095c:	2700      	movs	r7, #0
 800095e:	469a      	mov	sl, r3
 8000960:	e791      	b.n	8000886 <__aeabi_fdiv+0x32>
 8000962:	2d00      	cmp	r5, #0
 8000964:	d105      	bne.n	8000972 <__aeabi_fdiv+0x11e>
 8000966:	2308      	movs	r3, #8
 8000968:	4699      	mov	r9, r3
 800096a:	3b06      	subs	r3, #6
 800096c:	27ff      	movs	r7, #255	; 0xff
 800096e:	469a      	mov	sl, r3
 8000970:	e789      	b.n	8000886 <__aeabi_fdiv+0x32>
 8000972:	230c      	movs	r3, #12
 8000974:	4699      	mov	r9, r3
 8000976:	3b09      	subs	r3, #9
 8000978:	27ff      	movs	r7, #255	; 0xff
 800097a:	469a      	mov	sl, r3
 800097c:	e783      	b.n	8000886 <__aeabi_fdiv+0x32>
 800097e:	0028      	movs	r0, r5
 8000980:	f002 fad0 	bl	8002f24 <__clzsi2>
 8000984:	2776      	movs	r7, #118	; 0x76
 8000986:	1f43      	subs	r3, r0, #5
 8000988:	409d      	lsls	r5, r3
 800098a:	2300      	movs	r3, #0
 800098c:	427f      	negs	r7, r7
 800098e:	4699      	mov	r9, r3
 8000990:	469a      	mov	sl, r3
 8000992:	1a3f      	subs	r7, r7, r0
 8000994:	e777      	b.n	8000886 <__aeabi_fdiv+0x32>
 8000996:	4640      	mov	r0, r8
 8000998:	f002 fac4 	bl	8002f24 <__clzsi2>
 800099c:	4642      	mov	r2, r8
 800099e:	1f43      	subs	r3, r0, #5
 80009a0:	409a      	lsls	r2, r3
 80009a2:	2376      	movs	r3, #118	; 0x76
 80009a4:	425b      	negs	r3, r3
 80009a6:	4690      	mov	r8, r2
 80009a8:	1a1b      	subs	r3, r3, r0
 80009aa:	2200      	movs	r2, #0
 80009ac:	e77d      	b.n	80008aa <__aeabi_fdiv+0x56>
 80009ae:	23ff      	movs	r3, #255	; 0xff
 80009b0:	2203      	movs	r2, #3
 80009b2:	e77a      	b.n	80008aa <__aeabi_fdiv+0x56>
 80009b4:	000e      	movs	r6, r1
 80009b6:	20ff      	movs	r0, #255	; 0xff
 80009b8:	2500      	movs	r5, #0
 80009ba:	e7ac      	b.n	8000916 <__aeabi_fdiv+0xc2>
 80009bc:	2001      	movs	r0, #1
 80009be:	1ac0      	subs	r0, r0, r3
 80009c0:	281b      	cmp	r0, #27
 80009c2:	dca6      	bgt.n	8000912 <__aeabi_fdiv+0xbe>
 80009c4:	379e      	adds	r7, #158	; 0x9e
 80009c6:	002a      	movs	r2, r5
 80009c8:	40bd      	lsls	r5, r7
 80009ca:	40c2      	lsrs	r2, r0
 80009cc:	1e6b      	subs	r3, r5, #1
 80009ce:	419d      	sbcs	r5, r3
 80009d0:	4315      	orrs	r5, r2
 80009d2:	076b      	lsls	r3, r5, #29
 80009d4:	d004      	beq.n	80009e0 <__aeabi_fdiv+0x18c>
 80009d6:	230f      	movs	r3, #15
 80009d8:	402b      	ands	r3, r5
 80009da:	2b04      	cmp	r3, #4
 80009dc:	d000      	beq.n	80009e0 <__aeabi_fdiv+0x18c>
 80009de:	3504      	adds	r5, #4
 80009e0:	016b      	lsls	r3, r5, #5
 80009e2:	d544      	bpl.n	8000a6e <__aeabi_fdiv+0x21a>
 80009e4:	2001      	movs	r0, #1
 80009e6:	2500      	movs	r5, #0
 80009e8:	e795      	b.n	8000916 <__aeabi_fdiv+0xc2>
 80009ea:	20ff      	movs	r0, #255	; 0xff
 80009ec:	2500      	movs	r5, #0
 80009ee:	e792      	b.n	8000916 <__aeabi_fdiv+0xc2>
 80009f0:	2580      	movs	r5, #128	; 0x80
 80009f2:	2600      	movs	r6, #0
 80009f4:	20ff      	movs	r0, #255	; 0xff
 80009f6:	03ed      	lsls	r5, r5, #15
 80009f8:	e78d      	b.n	8000916 <__aeabi_fdiv+0xc2>
 80009fa:	2300      	movs	r3, #0
 80009fc:	4698      	mov	r8, r3
 80009fe:	2080      	movs	r0, #128	; 0x80
 8000a00:	03c0      	lsls	r0, r0, #15
 8000a02:	4205      	tst	r5, r0
 8000a04:	d009      	beq.n	8000a1a <__aeabi_fdiv+0x1c6>
 8000a06:	4643      	mov	r3, r8
 8000a08:	4203      	tst	r3, r0
 8000a0a:	d106      	bne.n	8000a1a <__aeabi_fdiv+0x1c6>
 8000a0c:	4645      	mov	r5, r8
 8000a0e:	4305      	orrs	r5, r0
 8000a10:	026d      	lsls	r5, r5, #9
 8000a12:	0026      	movs	r6, r4
 8000a14:	20ff      	movs	r0, #255	; 0xff
 8000a16:	0a6d      	lsrs	r5, r5, #9
 8000a18:	e77d      	b.n	8000916 <__aeabi_fdiv+0xc2>
 8000a1a:	2080      	movs	r0, #128	; 0x80
 8000a1c:	03c0      	lsls	r0, r0, #15
 8000a1e:	4305      	orrs	r5, r0
 8000a20:	026d      	lsls	r5, r5, #9
 8000a22:	20ff      	movs	r0, #255	; 0xff
 8000a24:	0a6d      	lsrs	r5, r5, #9
 8000a26:	e776      	b.n	8000916 <__aeabi_fdiv+0xc2>
 8000a28:	4642      	mov	r2, r8
 8000a2a:	016b      	lsls	r3, r5, #5
 8000a2c:	0150      	lsls	r0, r2, #5
 8000a2e:	4283      	cmp	r3, r0
 8000a30:	d219      	bcs.n	8000a66 <__aeabi_fdiv+0x212>
 8000a32:	221b      	movs	r2, #27
 8000a34:	2500      	movs	r5, #0
 8000a36:	3f01      	subs	r7, #1
 8000a38:	2601      	movs	r6, #1
 8000a3a:	001c      	movs	r4, r3
 8000a3c:	006d      	lsls	r5, r5, #1
 8000a3e:	005b      	lsls	r3, r3, #1
 8000a40:	2c00      	cmp	r4, #0
 8000a42:	db01      	blt.n	8000a48 <__aeabi_fdiv+0x1f4>
 8000a44:	4298      	cmp	r0, r3
 8000a46:	d801      	bhi.n	8000a4c <__aeabi_fdiv+0x1f8>
 8000a48:	1a1b      	subs	r3, r3, r0
 8000a4a:	4335      	orrs	r5, r6
 8000a4c:	3a01      	subs	r2, #1
 8000a4e:	2a00      	cmp	r2, #0
 8000a50:	d1f3      	bne.n	8000a3a <__aeabi_fdiv+0x1e6>
 8000a52:	1e5a      	subs	r2, r3, #1
 8000a54:	4193      	sbcs	r3, r2
 8000a56:	431d      	orrs	r5, r3
 8000a58:	003b      	movs	r3, r7
 8000a5a:	337f      	adds	r3, #127	; 0x7f
 8000a5c:	000e      	movs	r6, r1
 8000a5e:	2b00      	cmp	r3, #0
 8000a60:	dd00      	ble.n	8000a64 <__aeabi_fdiv+0x210>
 8000a62:	e741      	b.n	80008e8 <__aeabi_fdiv+0x94>
 8000a64:	e7aa      	b.n	80009bc <__aeabi_fdiv+0x168>
 8000a66:	221a      	movs	r2, #26
 8000a68:	2501      	movs	r5, #1
 8000a6a:	1a1b      	subs	r3, r3, r0
 8000a6c:	e7e4      	b.n	8000a38 <__aeabi_fdiv+0x1e4>
 8000a6e:	01ad      	lsls	r5, r5, #6
 8000a70:	2000      	movs	r0, #0
 8000a72:	0a6d      	lsrs	r5, r5, #9
 8000a74:	e74f      	b.n	8000916 <__aeabi_fdiv+0xc2>
 8000a76:	46c0      	nop			; (mov r8, r8)
 8000a78:	08009098 	.word	0x08009098
 8000a7c:	f7ffffff 	.word	0xf7ffffff
 8000a80:	080090d8 	.word	0x080090d8

08000a84 <__eqsf2>:
 8000a84:	b570      	push	{r4, r5, r6, lr}
 8000a86:	0042      	lsls	r2, r0, #1
 8000a88:	0245      	lsls	r5, r0, #9
 8000a8a:	024e      	lsls	r6, r1, #9
 8000a8c:	004c      	lsls	r4, r1, #1
 8000a8e:	0fc3      	lsrs	r3, r0, #31
 8000a90:	0a6d      	lsrs	r5, r5, #9
 8000a92:	2001      	movs	r0, #1
 8000a94:	0e12      	lsrs	r2, r2, #24
 8000a96:	0a76      	lsrs	r6, r6, #9
 8000a98:	0e24      	lsrs	r4, r4, #24
 8000a9a:	0fc9      	lsrs	r1, r1, #31
 8000a9c:	2aff      	cmp	r2, #255	; 0xff
 8000a9e:	d006      	beq.n	8000aae <__eqsf2+0x2a>
 8000aa0:	2cff      	cmp	r4, #255	; 0xff
 8000aa2:	d003      	beq.n	8000aac <__eqsf2+0x28>
 8000aa4:	42a2      	cmp	r2, r4
 8000aa6:	d101      	bne.n	8000aac <__eqsf2+0x28>
 8000aa8:	42b5      	cmp	r5, r6
 8000aaa:	d006      	beq.n	8000aba <__eqsf2+0x36>
 8000aac:	bd70      	pop	{r4, r5, r6, pc}
 8000aae:	2d00      	cmp	r5, #0
 8000ab0:	d1fc      	bne.n	8000aac <__eqsf2+0x28>
 8000ab2:	2cff      	cmp	r4, #255	; 0xff
 8000ab4:	d1fa      	bne.n	8000aac <__eqsf2+0x28>
 8000ab6:	2e00      	cmp	r6, #0
 8000ab8:	d1f8      	bne.n	8000aac <__eqsf2+0x28>
 8000aba:	428b      	cmp	r3, r1
 8000abc:	d006      	beq.n	8000acc <__eqsf2+0x48>
 8000abe:	2001      	movs	r0, #1
 8000ac0:	2a00      	cmp	r2, #0
 8000ac2:	d1f3      	bne.n	8000aac <__eqsf2+0x28>
 8000ac4:	0028      	movs	r0, r5
 8000ac6:	1e43      	subs	r3, r0, #1
 8000ac8:	4198      	sbcs	r0, r3
 8000aca:	e7ef      	b.n	8000aac <__eqsf2+0x28>
 8000acc:	2000      	movs	r0, #0
 8000ace:	e7ed      	b.n	8000aac <__eqsf2+0x28>

08000ad0 <__gesf2>:
 8000ad0:	b570      	push	{r4, r5, r6, lr}
 8000ad2:	0042      	lsls	r2, r0, #1
 8000ad4:	0245      	lsls	r5, r0, #9
 8000ad6:	024e      	lsls	r6, r1, #9
 8000ad8:	004c      	lsls	r4, r1, #1
 8000ada:	0fc3      	lsrs	r3, r0, #31
 8000adc:	0a6d      	lsrs	r5, r5, #9
 8000ade:	0e12      	lsrs	r2, r2, #24
 8000ae0:	0a76      	lsrs	r6, r6, #9
 8000ae2:	0e24      	lsrs	r4, r4, #24
 8000ae4:	0fc8      	lsrs	r0, r1, #31
 8000ae6:	2aff      	cmp	r2, #255	; 0xff
 8000ae8:	d01b      	beq.n	8000b22 <__gesf2+0x52>
 8000aea:	2cff      	cmp	r4, #255	; 0xff
 8000aec:	d00e      	beq.n	8000b0c <__gesf2+0x3c>
 8000aee:	2a00      	cmp	r2, #0
 8000af0:	d11b      	bne.n	8000b2a <__gesf2+0x5a>
 8000af2:	2c00      	cmp	r4, #0
 8000af4:	d101      	bne.n	8000afa <__gesf2+0x2a>
 8000af6:	2e00      	cmp	r6, #0
 8000af8:	d01c      	beq.n	8000b34 <__gesf2+0x64>
 8000afa:	2d00      	cmp	r5, #0
 8000afc:	d00c      	beq.n	8000b18 <__gesf2+0x48>
 8000afe:	4283      	cmp	r3, r0
 8000b00:	d01c      	beq.n	8000b3c <__gesf2+0x6c>
 8000b02:	2102      	movs	r1, #2
 8000b04:	1e58      	subs	r0, r3, #1
 8000b06:	4008      	ands	r0, r1
 8000b08:	3801      	subs	r0, #1
 8000b0a:	bd70      	pop	{r4, r5, r6, pc}
 8000b0c:	2e00      	cmp	r6, #0
 8000b0e:	d122      	bne.n	8000b56 <__gesf2+0x86>
 8000b10:	2a00      	cmp	r2, #0
 8000b12:	d1f4      	bne.n	8000afe <__gesf2+0x2e>
 8000b14:	2d00      	cmp	r5, #0
 8000b16:	d1f2      	bne.n	8000afe <__gesf2+0x2e>
 8000b18:	2800      	cmp	r0, #0
 8000b1a:	d1f6      	bne.n	8000b0a <__gesf2+0x3a>
 8000b1c:	2001      	movs	r0, #1
 8000b1e:	4240      	negs	r0, r0
 8000b20:	e7f3      	b.n	8000b0a <__gesf2+0x3a>
 8000b22:	2d00      	cmp	r5, #0
 8000b24:	d117      	bne.n	8000b56 <__gesf2+0x86>
 8000b26:	2cff      	cmp	r4, #255	; 0xff
 8000b28:	d0f0      	beq.n	8000b0c <__gesf2+0x3c>
 8000b2a:	2c00      	cmp	r4, #0
 8000b2c:	d1e7      	bne.n	8000afe <__gesf2+0x2e>
 8000b2e:	2e00      	cmp	r6, #0
 8000b30:	d1e5      	bne.n	8000afe <__gesf2+0x2e>
 8000b32:	e7e6      	b.n	8000b02 <__gesf2+0x32>
 8000b34:	2000      	movs	r0, #0
 8000b36:	2d00      	cmp	r5, #0
 8000b38:	d0e7      	beq.n	8000b0a <__gesf2+0x3a>
 8000b3a:	e7e2      	b.n	8000b02 <__gesf2+0x32>
 8000b3c:	42a2      	cmp	r2, r4
 8000b3e:	dc05      	bgt.n	8000b4c <__gesf2+0x7c>
 8000b40:	dbea      	blt.n	8000b18 <__gesf2+0x48>
 8000b42:	42b5      	cmp	r5, r6
 8000b44:	d802      	bhi.n	8000b4c <__gesf2+0x7c>
 8000b46:	d3e7      	bcc.n	8000b18 <__gesf2+0x48>
 8000b48:	2000      	movs	r0, #0
 8000b4a:	e7de      	b.n	8000b0a <__gesf2+0x3a>
 8000b4c:	4243      	negs	r3, r0
 8000b4e:	4158      	adcs	r0, r3
 8000b50:	0040      	lsls	r0, r0, #1
 8000b52:	3801      	subs	r0, #1
 8000b54:	e7d9      	b.n	8000b0a <__gesf2+0x3a>
 8000b56:	2002      	movs	r0, #2
 8000b58:	4240      	negs	r0, r0
 8000b5a:	e7d6      	b.n	8000b0a <__gesf2+0x3a>

08000b5c <__lesf2>:
 8000b5c:	b570      	push	{r4, r5, r6, lr}
 8000b5e:	0042      	lsls	r2, r0, #1
 8000b60:	0245      	lsls	r5, r0, #9
 8000b62:	024e      	lsls	r6, r1, #9
 8000b64:	004c      	lsls	r4, r1, #1
 8000b66:	0fc3      	lsrs	r3, r0, #31
 8000b68:	0a6d      	lsrs	r5, r5, #9
 8000b6a:	0e12      	lsrs	r2, r2, #24
 8000b6c:	0a76      	lsrs	r6, r6, #9
 8000b6e:	0e24      	lsrs	r4, r4, #24
 8000b70:	0fc8      	lsrs	r0, r1, #31
 8000b72:	2aff      	cmp	r2, #255	; 0xff
 8000b74:	d00b      	beq.n	8000b8e <__lesf2+0x32>
 8000b76:	2cff      	cmp	r4, #255	; 0xff
 8000b78:	d00d      	beq.n	8000b96 <__lesf2+0x3a>
 8000b7a:	2a00      	cmp	r2, #0
 8000b7c:	d11f      	bne.n	8000bbe <__lesf2+0x62>
 8000b7e:	2c00      	cmp	r4, #0
 8000b80:	d116      	bne.n	8000bb0 <__lesf2+0x54>
 8000b82:	2e00      	cmp	r6, #0
 8000b84:	d114      	bne.n	8000bb0 <__lesf2+0x54>
 8000b86:	2000      	movs	r0, #0
 8000b88:	2d00      	cmp	r5, #0
 8000b8a:	d010      	beq.n	8000bae <__lesf2+0x52>
 8000b8c:	e009      	b.n	8000ba2 <__lesf2+0x46>
 8000b8e:	2d00      	cmp	r5, #0
 8000b90:	d10c      	bne.n	8000bac <__lesf2+0x50>
 8000b92:	2cff      	cmp	r4, #255	; 0xff
 8000b94:	d113      	bne.n	8000bbe <__lesf2+0x62>
 8000b96:	2e00      	cmp	r6, #0
 8000b98:	d108      	bne.n	8000bac <__lesf2+0x50>
 8000b9a:	2a00      	cmp	r2, #0
 8000b9c:	d008      	beq.n	8000bb0 <__lesf2+0x54>
 8000b9e:	4283      	cmp	r3, r0
 8000ba0:	d012      	beq.n	8000bc8 <__lesf2+0x6c>
 8000ba2:	2102      	movs	r1, #2
 8000ba4:	1e58      	subs	r0, r3, #1
 8000ba6:	4008      	ands	r0, r1
 8000ba8:	3801      	subs	r0, #1
 8000baa:	e000      	b.n	8000bae <__lesf2+0x52>
 8000bac:	2002      	movs	r0, #2
 8000bae:	bd70      	pop	{r4, r5, r6, pc}
 8000bb0:	2d00      	cmp	r5, #0
 8000bb2:	d1f4      	bne.n	8000b9e <__lesf2+0x42>
 8000bb4:	2800      	cmp	r0, #0
 8000bb6:	d1fa      	bne.n	8000bae <__lesf2+0x52>
 8000bb8:	2001      	movs	r0, #1
 8000bba:	4240      	negs	r0, r0
 8000bbc:	e7f7      	b.n	8000bae <__lesf2+0x52>
 8000bbe:	2c00      	cmp	r4, #0
 8000bc0:	d1ed      	bne.n	8000b9e <__lesf2+0x42>
 8000bc2:	2e00      	cmp	r6, #0
 8000bc4:	d1eb      	bne.n	8000b9e <__lesf2+0x42>
 8000bc6:	e7ec      	b.n	8000ba2 <__lesf2+0x46>
 8000bc8:	42a2      	cmp	r2, r4
 8000bca:	dc05      	bgt.n	8000bd8 <__lesf2+0x7c>
 8000bcc:	dbf2      	blt.n	8000bb4 <__lesf2+0x58>
 8000bce:	42b5      	cmp	r5, r6
 8000bd0:	d802      	bhi.n	8000bd8 <__lesf2+0x7c>
 8000bd2:	d3ef      	bcc.n	8000bb4 <__lesf2+0x58>
 8000bd4:	2000      	movs	r0, #0
 8000bd6:	e7ea      	b.n	8000bae <__lesf2+0x52>
 8000bd8:	4243      	negs	r3, r0
 8000bda:	4158      	adcs	r0, r3
 8000bdc:	0040      	lsls	r0, r0, #1
 8000bde:	3801      	subs	r0, #1
 8000be0:	e7e5      	b.n	8000bae <__lesf2+0x52>
 8000be2:	46c0      	nop			; (mov r8, r8)

08000be4 <__aeabi_fmul>:
 8000be4:	b5f0      	push	{r4, r5, r6, r7, lr}
 8000be6:	464f      	mov	r7, r9
 8000be8:	4646      	mov	r6, r8
 8000bea:	46d6      	mov	lr, sl
 8000bec:	0244      	lsls	r4, r0, #9
 8000bee:	0045      	lsls	r5, r0, #1
 8000bf0:	b5c0      	push	{r6, r7, lr}
 8000bf2:	0a64      	lsrs	r4, r4, #9
 8000bf4:	1c0f      	adds	r7, r1, #0
 8000bf6:	0e2d      	lsrs	r5, r5, #24
 8000bf8:	0fc6      	lsrs	r6, r0, #31
 8000bfa:	2d00      	cmp	r5, #0
 8000bfc:	d100      	bne.n	8000c00 <__aeabi_fmul+0x1c>
 8000bfe:	e08d      	b.n	8000d1c <__aeabi_fmul+0x138>
 8000c00:	2dff      	cmp	r5, #255	; 0xff
 8000c02:	d100      	bne.n	8000c06 <__aeabi_fmul+0x22>
 8000c04:	e092      	b.n	8000d2c <__aeabi_fmul+0x148>
 8000c06:	2300      	movs	r3, #0
 8000c08:	2080      	movs	r0, #128	; 0x80
 8000c0a:	4699      	mov	r9, r3
 8000c0c:	469a      	mov	sl, r3
 8000c0e:	00e4      	lsls	r4, r4, #3
 8000c10:	04c0      	lsls	r0, r0, #19
 8000c12:	4304      	orrs	r4, r0
 8000c14:	3d7f      	subs	r5, #127	; 0x7f
 8000c16:	0278      	lsls	r0, r7, #9
 8000c18:	0a43      	lsrs	r3, r0, #9
 8000c1a:	4698      	mov	r8, r3
 8000c1c:	007b      	lsls	r3, r7, #1
 8000c1e:	0e1b      	lsrs	r3, r3, #24
 8000c20:	0fff      	lsrs	r7, r7, #31
 8000c22:	2b00      	cmp	r3, #0
 8000c24:	d100      	bne.n	8000c28 <__aeabi_fmul+0x44>
 8000c26:	e070      	b.n	8000d0a <__aeabi_fmul+0x126>
 8000c28:	2bff      	cmp	r3, #255	; 0xff
 8000c2a:	d100      	bne.n	8000c2e <__aeabi_fmul+0x4a>
 8000c2c:	e086      	b.n	8000d3c <__aeabi_fmul+0x158>
 8000c2e:	4642      	mov	r2, r8
 8000c30:	00d0      	lsls	r0, r2, #3
 8000c32:	2280      	movs	r2, #128	; 0x80
 8000c34:	3b7f      	subs	r3, #127	; 0x7f
 8000c36:	18ed      	adds	r5, r5, r3
 8000c38:	2300      	movs	r3, #0
 8000c3a:	04d2      	lsls	r2, r2, #19
 8000c3c:	4302      	orrs	r2, r0
 8000c3e:	4690      	mov	r8, r2
 8000c40:	469c      	mov	ip, r3
 8000c42:	0031      	movs	r1, r6
 8000c44:	464b      	mov	r3, r9
 8000c46:	4079      	eors	r1, r7
 8000c48:	1c68      	adds	r0, r5, #1
 8000c4a:	2b0f      	cmp	r3, #15
 8000c4c:	d81c      	bhi.n	8000c88 <__aeabi_fmul+0xa4>
 8000c4e:	4a76      	ldr	r2, [pc, #472]	; (8000e28 <__aeabi_fmul+0x244>)
 8000c50:	009b      	lsls	r3, r3, #2
 8000c52:	58d3      	ldr	r3, [r2, r3]
 8000c54:	469f      	mov	pc, r3
 8000c56:	0039      	movs	r1, r7
 8000c58:	4644      	mov	r4, r8
 8000c5a:	46e2      	mov	sl, ip
 8000c5c:	4653      	mov	r3, sl
 8000c5e:	2b02      	cmp	r3, #2
 8000c60:	d00f      	beq.n	8000c82 <__aeabi_fmul+0x9e>
 8000c62:	2b03      	cmp	r3, #3
 8000c64:	d100      	bne.n	8000c68 <__aeabi_fmul+0x84>
 8000c66:	e0d7      	b.n	8000e18 <__aeabi_fmul+0x234>
 8000c68:	2b01      	cmp	r3, #1
 8000c6a:	d137      	bne.n	8000cdc <__aeabi_fmul+0xf8>
 8000c6c:	2000      	movs	r0, #0
 8000c6e:	2400      	movs	r4, #0
 8000c70:	05c0      	lsls	r0, r0, #23
 8000c72:	4320      	orrs	r0, r4
 8000c74:	07c9      	lsls	r1, r1, #31
 8000c76:	4308      	orrs	r0, r1
 8000c78:	bce0      	pop	{r5, r6, r7}
 8000c7a:	46ba      	mov	sl, r7
 8000c7c:	46b1      	mov	r9, r6
 8000c7e:	46a8      	mov	r8, r5
 8000c80:	bdf0      	pop	{r4, r5, r6, r7, pc}
 8000c82:	20ff      	movs	r0, #255	; 0xff
 8000c84:	2400      	movs	r4, #0
 8000c86:	e7f3      	b.n	8000c70 <__aeabi_fmul+0x8c>
 8000c88:	0c26      	lsrs	r6, r4, #16
 8000c8a:	0424      	lsls	r4, r4, #16
 8000c8c:	0c22      	lsrs	r2, r4, #16
 8000c8e:	4644      	mov	r4, r8
 8000c90:	0424      	lsls	r4, r4, #16
 8000c92:	0c24      	lsrs	r4, r4, #16
 8000c94:	4643      	mov	r3, r8
 8000c96:	0027      	movs	r7, r4
 8000c98:	0c1b      	lsrs	r3, r3, #16
 8000c9a:	4357      	muls	r7, r2
 8000c9c:	4374      	muls	r4, r6
 8000c9e:	435a      	muls	r2, r3
 8000ca0:	435e      	muls	r6, r3
 8000ca2:	1912      	adds	r2, r2, r4
 8000ca4:	0c3b      	lsrs	r3, r7, #16
 8000ca6:	189b      	adds	r3, r3, r2
 8000ca8:	429c      	cmp	r4, r3
 8000caa:	d903      	bls.n	8000cb4 <__aeabi_fmul+0xd0>
 8000cac:	2280      	movs	r2, #128	; 0x80
 8000cae:	0252      	lsls	r2, r2, #9
 8000cb0:	4694      	mov	ip, r2
 8000cb2:	4466      	add	r6, ip
 8000cb4:	043f      	lsls	r7, r7, #16
 8000cb6:	041a      	lsls	r2, r3, #16
 8000cb8:	0c3f      	lsrs	r7, r7, #16
 8000cba:	19d2      	adds	r2, r2, r7
 8000cbc:	0194      	lsls	r4, r2, #6
 8000cbe:	1e67      	subs	r7, r4, #1
 8000cc0:	41bc      	sbcs	r4, r7
 8000cc2:	0c1b      	lsrs	r3, r3, #16
 8000cc4:	0e92      	lsrs	r2, r2, #26
 8000cc6:	199b      	adds	r3, r3, r6
 8000cc8:	4314      	orrs	r4, r2
 8000cca:	019b      	lsls	r3, r3, #6
 8000ccc:	431c      	orrs	r4, r3
 8000cce:	011b      	lsls	r3, r3, #4
 8000cd0:	d400      	bmi.n	8000cd4 <__aeabi_fmul+0xf0>
 8000cd2:	e09b      	b.n	8000e0c <__aeabi_fmul+0x228>
 8000cd4:	2301      	movs	r3, #1
 8000cd6:	0862      	lsrs	r2, r4, #1
 8000cd8:	401c      	ands	r4, r3
 8000cda:	4314      	orrs	r4, r2
 8000cdc:	0002      	movs	r2, r0
 8000cde:	327f      	adds	r2, #127	; 0x7f
 8000ce0:	2a00      	cmp	r2, #0
 8000ce2:	dd64      	ble.n	8000dae <__aeabi_fmul+0x1ca>
 8000ce4:	0763      	lsls	r3, r4, #29
 8000ce6:	d004      	beq.n	8000cf2 <__aeabi_fmul+0x10e>
 8000ce8:	230f      	movs	r3, #15
 8000cea:	4023      	ands	r3, r4
 8000cec:	2b04      	cmp	r3, #4
 8000cee:	d000      	beq.n	8000cf2 <__aeabi_fmul+0x10e>
 8000cf0:	3404      	adds	r4, #4
 8000cf2:	0123      	lsls	r3, r4, #4
 8000cf4:	d503      	bpl.n	8000cfe <__aeabi_fmul+0x11a>
 8000cf6:	0002      	movs	r2, r0
 8000cf8:	4b4c      	ldr	r3, [pc, #304]	; (8000e2c <__aeabi_fmul+0x248>)
 8000cfa:	3280      	adds	r2, #128	; 0x80
 8000cfc:	401c      	ands	r4, r3
 8000cfe:	2afe      	cmp	r2, #254	; 0xfe
 8000d00:	dcbf      	bgt.n	8000c82 <__aeabi_fmul+0x9e>
 8000d02:	01a4      	lsls	r4, r4, #6
 8000d04:	0a64      	lsrs	r4, r4, #9
 8000d06:	b2d0      	uxtb	r0, r2
 8000d08:	e7b2      	b.n	8000c70 <__aeabi_fmul+0x8c>
 8000d0a:	4643      	mov	r3, r8
 8000d0c:	2b00      	cmp	r3, #0
 8000d0e:	d13d      	bne.n	8000d8c <__aeabi_fmul+0x1a8>
 8000d10:	464a      	mov	r2, r9
 8000d12:	3301      	adds	r3, #1
 8000d14:	431a      	orrs	r2, r3
 8000d16:	4691      	mov	r9, r2
 8000d18:	469c      	mov	ip, r3
 8000d1a:	e792      	b.n	8000c42 <__aeabi_fmul+0x5e>
 8000d1c:	2c00      	cmp	r4, #0
 8000d1e:	d129      	bne.n	8000d74 <__aeabi_fmul+0x190>
 8000d20:	2304      	movs	r3, #4
 8000d22:	4699      	mov	r9, r3
 8000d24:	3b03      	subs	r3, #3
 8000d26:	2500      	movs	r5, #0
 8000d28:	469a      	mov	sl, r3
 8000d2a:	e774      	b.n	8000c16 <__aeabi_fmul+0x32>
 8000d2c:	2c00      	cmp	r4, #0
 8000d2e:	d11b      	bne.n	8000d68 <__aeabi_fmul+0x184>
 8000d30:	2308      	movs	r3, #8
 8000d32:	4699      	mov	r9, r3
 8000d34:	3b06      	subs	r3, #6
 8000d36:	25ff      	movs	r5, #255	; 0xff
 8000d38:	469a      	mov	sl, r3
 8000d3a:	e76c      	b.n	8000c16 <__aeabi_fmul+0x32>
 8000d3c:	4643      	mov	r3, r8
 8000d3e:	35ff      	adds	r5, #255	; 0xff
 8000d40:	2b00      	cmp	r3, #0
 8000d42:	d10b      	bne.n	8000d5c <__aeabi_fmul+0x178>
 8000d44:	2302      	movs	r3, #2
 8000d46:	464a      	mov	r2, r9
 8000d48:	431a      	orrs	r2, r3
 8000d4a:	4691      	mov	r9, r2
 8000d4c:	469c      	mov	ip, r3
 8000d4e:	e778      	b.n	8000c42 <__aeabi_fmul+0x5e>
 8000d50:	4653      	mov	r3, sl
 8000d52:	0031      	movs	r1, r6
 8000d54:	2b02      	cmp	r3, #2
 8000d56:	d000      	beq.n	8000d5a <__aeabi_fmul+0x176>
 8000d58:	e783      	b.n	8000c62 <__aeabi_fmul+0x7e>
 8000d5a:	e792      	b.n	8000c82 <__aeabi_fmul+0x9e>
 8000d5c:	2303      	movs	r3, #3
 8000d5e:	464a      	mov	r2, r9
 8000d60:	431a      	orrs	r2, r3
 8000d62:	4691      	mov	r9, r2
 8000d64:	469c      	mov	ip, r3
 8000d66:	e76c      	b.n	8000c42 <__aeabi_fmul+0x5e>
 8000d68:	230c      	movs	r3, #12
 8000d6a:	4699      	mov	r9, r3
 8000d6c:	3b09      	subs	r3, #9
 8000d6e:	25ff      	movs	r5, #255	; 0xff
 8000d70:	469a      	mov	sl, r3
 8000d72:	e750      	b.n	8000c16 <__aeabi_fmul+0x32>
 8000d74:	0020      	movs	r0, r4
 8000d76:	f002 f8d5 	bl	8002f24 <__clzsi2>
 8000d7a:	2576      	movs	r5, #118	; 0x76
 8000d7c:	1f43      	subs	r3, r0, #5
 8000d7e:	409c      	lsls	r4, r3
 8000d80:	2300      	movs	r3, #0
 8000d82:	426d      	negs	r5, r5
 8000d84:	4699      	mov	r9, r3
 8000d86:	469a      	mov	sl, r3
 8000d88:	1a2d      	subs	r5, r5, r0
 8000d8a:	e744      	b.n	8000c16 <__aeabi_fmul+0x32>
 8000d8c:	4640      	mov	r0, r8
 8000d8e:	f002 f8c9 	bl	8002f24 <__clzsi2>
 8000d92:	4642      	mov	r2, r8
 8000d94:	1f43      	subs	r3, r0, #5
 8000d96:	409a      	lsls	r2, r3
 8000d98:	2300      	movs	r3, #0
 8000d9a:	1a2d      	subs	r5, r5, r0
 8000d9c:	4690      	mov	r8, r2
 8000d9e:	469c      	mov	ip, r3
 8000da0:	3d76      	subs	r5, #118	; 0x76
 8000da2:	e74e      	b.n	8000c42 <__aeabi_fmul+0x5e>
 8000da4:	2480      	movs	r4, #128	; 0x80
 8000da6:	2100      	movs	r1, #0
 8000da8:	20ff      	movs	r0, #255	; 0xff
 8000daa:	03e4      	lsls	r4, r4, #15
 8000dac:	e760      	b.n	8000c70 <__aeabi_fmul+0x8c>
 8000dae:	2301      	movs	r3, #1
 8000db0:	1a9b      	subs	r3, r3, r2
 8000db2:	2b1b      	cmp	r3, #27
 8000db4:	dd00      	ble.n	8000db8 <__aeabi_fmul+0x1d4>
 8000db6:	e759      	b.n	8000c6c <__aeabi_fmul+0x88>
 8000db8:	0022      	movs	r2, r4
 8000dba:	309e      	adds	r0, #158	; 0x9e
 8000dbc:	40da      	lsrs	r2, r3
 8000dbe:	4084      	lsls	r4, r0
 8000dc0:	0013      	movs	r3, r2
 8000dc2:	1e62      	subs	r2, r4, #1
 8000dc4:	4194      	sbcs	r4, r2
 8000dc6:	431c      	orrs	r4, r3
 8000dc8:	0763      	lsls	r3, r4, #29
 8000dca:	d004      	beq.n	8000dd6 <__aeabi_fmul+0x1f2>
 8000dcc:	230f      	movs	r3, #15
 8000dce:	4023      	ands	r3, r4
 8000dd0:	2b04      	cmp	r3, #4
 8000dd2:	d000      	beq.n	8000dd6 <__aeabi_fmul+0x1f2>
 8000dd4:	3404      	adds	r4, #4
 8000dd6:	0163      	lsls	r3, r4, #5
 8000dd8:	d51a      	bpl.n	8000e10 <__aeabi_fmul+0x22c>
 8000dda:	2001      	movs	r0, #1
 8000ddc:	2400      	movs	r4, #0
 8000dde:	e747      	b.n	8000c70 <__aeabi_fmul+0x8c>
 8000de0:	2080      	movs	r0, #128	; 0x80
 8000de2:	03c0      	lsls	r0, r0, #15
 8000de4:	4204      	tst	r4, r0
 8000de6:	d009      	beq.n	8000dfc <__aeabi_fmul+0x218>
 8000de8:	4643      	mov	r3, r8
 8000dea:	4203      	tst	r3, r0
 8000dec:	d106      	bne.n	8000dfc <__aeabi_fmul+0x218>
 8000dee:	4644      	mov	r4, r8
 8000df0:	4304      	orrs	r4, r0
 8000df2:	0264      	lsls	r4, r4, #9
 8000df4:	0039      	movs	r1, r7
 8000df6:	20ff      	movs	r0, #255	; 0xff
 8000df8:	0a64      	lsrs	r4, r4, #9
 8000dfa:	e739      	b.n	8000c70 <__aeabi_fmul+0x8c>
 8000dfc:	2080      	movs	r0, #128	; 0x80
 8000dfe:	03c0      	lsls	r0, r0, #15
 8000e00:	4304      	orrs	r4, r0
 8000e02:	0264      	lsls	r4, r4, #9
 8000e04:	0031      	movs	r1, r6
 8000e06:	20ff      	movs	r0, #255	; 0xff
 8000e08:	0a64      	lsrs	r4, r4, #9
 8000e0a:	e731      	b.n	8000c70 <__aeabi_fmul+0x8c>
 8000e0c:	0028      	movs	r0, r5
 8000e0e:	e765      	b.n	8000cdc <__aeabi_fmul+0xf8>
 8000e10:	01a4      	lsls	r4, r4, #6
 8000e12:	2000      	movs	r0, #0
 8000e14:	0a64      	lsrs	r4, r4, #9
 8000e16:	e72b      	b.n	8000c70 <__aeabi_fmul+0x8c>
 8000e18:	2080      	movs	r0, #128	; 0x80
 8000e1a:	03c0      	lsls	r0, r0, #15
 8000e1c:	4304      	orrs	r4, r0
 8000e1e:	0264      	lsls	r4, r4, #9
 8000e20:	20ff      	movs	r0, #255	; 0xff
 8000e22:	0a64      	lsrs	r4, r4, #9
 8000e24:	e724      	b.n	8000c70 <__aeabi_fmul+0x8c>
 8000e26:	46c0      	nop			; (mov r8, r8)
 8000e28:	08009118 	.word	0x08009118
 8000e2c:	f7ffffff 	.word	0xf7ffffff

08000e30 <__aeabi_fsub>:
 8000e30:	b5f8      	push	{r3, r4, r5, r6, r7, lr}
 8000e32:	46ce      	mov	lr, r9
 8000e34:	4647      	mov	r7, r8
 8000e36:	0243      	lsls	r3, r0, #9
 8000e38:	0a5b      	lsrs	r3, r3, #9
 8000e3a:	024e      	lsls	r6, r1, #9
 8000e3c:	00da      	lsls	r2, r3, #3
 8000e3e:	4694      	mov	ip, r2
 8000e40:	0a72      	lsrs	r2, r6, #9
 8000e42:	4691      	mov	r9, r2
 8000e44:	0045      	lsls	r5, r0, #1
 8000e46:	004a      	lsls	r2, r1, #1
 8000e48:	b580      	push	{r7, lr}
 8000e4a:	0e2d      	lsrs	r5, r5, #24
 8000e4c:	001f      	movs	r7, r3
 8000e4e:	0fc4      	lsrs	r4, r0, #31
 8000e50:	0e12      	lsrs	r2, r2, #24
 8000e52:	0fc9      	lsrs	r1, r1, #31
 8000e54:	09b6      	lsrs	r6, r6, #6
 8000e56:	2aff      	cmp	r2, #255	; 0xff
 8000e58:	d05b      	beq.n	8000f12 <__aeabi_fsub+0xe2>
 8000e5a:	2001      	movs	r0, #1
 8000e5c:	4041      	eors	r1, r0
 8000e5e:	428c      	cmp	r4, r1
 8000e60:	d039      	beq.n	8000ed6 <__aeabi_fsub+0xa6>
 8000e62:	1aa8      	subs	r0, r5, r2
 8000e64:	2800      	cmp	r0, #0
 8000e66:	dd5a      	ble.n	8000f1e <__aeabi_fsub+0xee>
 8000e68:	2a00      	cmp	r2, #0
 8000e6a:	d06a      	beq.n	8000f42 <__aeabi_fsub+0x112>
 8000e6c:	2dff      	cmp	r5, #255	; 0xff
 8000e6e:	d100      	bne.n	8000e72 <__aeabi_fsub+0x42>
 8000e70:	e0d9      	b.n	8001026 <__aeabi_fsub+0x1f6>
 8000e72:	2280      	movs	r2, #128	; 0x80
 8000e74:	04d2      	lsls	r2, r2, #19
 8000e76:	4316      	orrs	r6, r2
 8000e78:	281b      	cmp	r0, #27
 8000e7a:	dc00      	bgt.n	8000e7e <__aeabi_fsub+0x4e>
 8000e7c:	e0e9      	b.n	8001052 <__aeabi_fsub+0x222>
 8000e7e:	2001      	movs	r0, #1
 8000e80:	4663      	mov	r3, ip
 8000e82:	1a18      	subs	r0, r3, r0
 8000e84:	0143      	lsls	r3, r0, #5
 8000e86:	d400      	bmi.n	8000e8a <__aeabi_fsub+0x5a>
 8000e88:	e0b4      	b.n	8000ff4 <__aeabi_fsub+0x1c4>
 8000e8a:	0180      	lsls	r0, r0, #6
 8000e8c:	0987      	lsrs	r7, r0, #6
 8000e8e:	0038      	movs	r0, r7
 8000e90:	f002 f848 	bl	8002f24 <__clzsi2>
 8000e94:	3805      	subs	r0, #5
 8000e96:	4087      	lsls	r7, r0
 8000e98:	4285      	cmp	r5, r0
 8000e9a:	dc00      	bgt.n	8000e9e <__aeabi_fsub+0x6e>
 8000e9c:	e0cc      	b.n	8001038 <__aeabi_fsub+0x208>
 8000e9e:	1a2d      	subs	r5, r5, r0
 8000ea0:	48b5      	ldr	r0, [pc, #724]	; (8001178 <__aeabi_fsub+0x348>)
 8000ea2:	4038      	ands	r0, r7
 8000ea4:	0743      	lsls	r3, r0, #29
 8000ea6:	d004      	beq.n	8000eb2 <__aeabi_fsub+0x82>
 8000ea8:	230f      	movs	r3, #15
 8000eaa:	4003      	ands	r3, r0
 8000eac:	2b04      	cmp	r3, #4
 8000eae:	d000      	beq.n	8000eb2 <__aeabi_fsub+0x82>
 8000eb0:	3004      	adds	r0, #4
 8000eb2:	0143      	lsls	r3, r0, #5
 8000eb4:	d400      	bmi.n	8000eb8 <__aeabi_fsub+0x88>
 8000eb6:	e0a0      	b.n	8000ffa <__aeabi_fsub+0x1ca>
 8000eb8:	1c6a      	adds	r2, r5, #1
 8000eba:	2dfe      	cmp	r5, #254	; 0xfe
 8000ebc:	d100      	bne.n	8000ec0 <__aeabi_fsub+0x90>
 8000ebe:	e08d      	b.n	8000fdc <__aeabi_fsub+0x1ac>
 8000ec0:	0180      	lsls	r0, r0, #6
 8000ec2:	0a47      	lsrs	r7, r0, #9
 8000ec4:	b2d2      	uxtb	r2, r2
 8000ec6:	05d0      	lsls	r0, r2, #23
 8000ec8:	4338      	orrs	r0, r7
 8000eca:	07e4      	lsls	r4, r4, #31
 8000ecc:	4320      	orrs	r0, r4
 8000ece:	bcc0      	pop	{r6, r7}
 8000ed0:	46b9      	mov	r9, r7
 8000ed2:	46b0      	mov	r8, r6
 8000ed4:	bdf8      	pop	{r3, r4, r5, r6, r7, pc}
 8000ed6:	1aa8      	subs	r0, r5, r2
 8000ed8:	4680      	mov	r8, r0
 8000eda:	2800      	cmp	r0, #0
 8000edc:	dd45      	ble.n	8000f6a <__aeabi_fsub+0x13a>
 8000ede:	2a00      	cmp	r2, #0
 8000ee0:	d070      	beq.n	8000fc4 <__aeabi_fsub+0x194>
 8000ee2:	2dff      	cmp	r5, #255	; 0xff
 8000ee4:	d100      	bne.n	8000ee8 <__aeabi_fsub+0xb8>
 8000ee6:	e09e      	b.n	8001026 <__aeabi_fsub+0x1f6>
 8000ee8:	2380      	movs	r3, #128	; 0x80
 8000eea:	04db      	lsls	r3, r3, #19
 8000eec:	431e      	orrs	r6, r3
 8000eee:	4643      	mov	r3, r8
 8000ef0:	2b1b      	cmp	r3, #27
 8000ef2:	dc00      	bgt.n	8000ef6 <__aeabi_fsub+0xc6>
 8000ef4:	e0d2      	b.n	800109c <__aeabi_fsub+0x26c>
 8000ef6:	2001      	movs	r0, #1
 8000ef8:	4460      	add	r0, ip
 8000efa:	0143      	lsls	r3, r0, #5
 8000efc:	d57a      	bpl.n	8000ff4 <__aeabi_fsub+0x1c4>
 8000efe:	3501      	adds	r5, #1
 8000f00:	2dff      	cmp	r5, #255	; 0xff
 8000f02:	d06b      	beq.n	8000fdc <__aeabi_fsub+0x1ac>
 8000f04:	2301      	movs	r3, #1
 8000f06:	4a9d      	ldr	r2, [pc, #628]	; (800117c <__aeabi_fsub+0x34c>)
 8000f08:	4003      	ands	r3, r0
 8000f0a:	0840      	lsrs	r0, r0, #1
 8000f0c:	4010      	ands	r0, r2
 8000f0e:	4318      	orrs	r0, r3
 8000f10:	e7c8      	b.n	8000ea4 <__aeabi_fsub+0x74>
 8000f12:	2e00      	cmp	r6, #0
 8000f14:	d020      	beq.n	8000f58 <__aeabi_fsub+0x128>
 8000f16:	428c      	cmp	r4, r1
 8000f18:	d023      	beq.n	8000f62 <__aeabi_fsub+0x132>
 8000f1a:	0028      	movs	r0, r5
 8000f1c:	38ff      	subs	r0, #255	; 0xff
 8000f1e:	2800      	cmp	r0, #0
 8000f20:	d039      	beq.n	8000f96 <__aeabi_fsub+0x166>
 8000f22:	1b57      	subs	r7, r2, r5
 8000f24:	2d00      	cmp	r5, #0
 8000f26:	d000      	beq.n	8000f2a <__aeabi_fsub+0xfa>
 8000f28:	e09d      	b.n	8001066 <__aeabi_fsub+0x236>
 8000f2a:	4663      	mov	r3, ip
 8000f2c:	2b00      	cmp	r3, #0
 8000f2e:	d100      	bne.n	8000f32 <__aeabi_fsub+0x102>
 8000f30:	e0db      	b.n	80010ea <__aeabi_fsub+0x2ba>
 8000f32:	1e7b      	subs	r3, r7, #1
 8000f34:	2f01      	cmp	r7, #1
 8000f36:	d100      	bne.n	8000f3a <__aeabi_fsub+0x10a>
 8000f38:	e10d      	b.n	8001156 <__aeabi_fsub+0x326>
 8000f3a:	2fff      	cmp	r7, #255	; 0xff
 8000f3c:	d071      	beq.n	8001022 <__aeabi_fsub+0x1f2>
 8000f3e:	001f      	movs	r7, r3
 8000f40:	e098      	b.n	8001074 <__aeabi_fsub+0x244>
 8000f42:	2e00      	cmp	r6, #0
 8000f44:	d100      	bne.n	8000f48 <__aeabi_fsub+0x118>
 8000f46:	e0a7      	b.n	8001098 <__aeabi_fsub+0x268>
 8000f48:	1e42      	subs	r2, r0, #1
 8000f4a:	2801      	cmp	r0, #1
 8000f4c:	d100      	bne.n	8000f50 <__aeabi_fsub+0x120>
 8000f4e:	e0e6      	b.n	800111e <__aeabi_fsub+0x2ee>
 8000f50:	28ff      	cmp	r0, #255	; 0xff
 8000f52:	d068      	beq.n	8001026 <__aeabi_fsub+0x1f6>
 8000f54:	0010      	movs	r0, r2
 8000f56:	e78f      	b.n	8000e78 <__aeabi_fsub+0x48>
 8000f58:	2001      	movs	r0, #1
 8000f5a:	4041      	eors	r1, r0
 8000f5c:	42a1      	cmp	r1, r4
 8000f5e:	d000      	beq.n	8000f62 <__aeabi_fsub+0x132>
 8000f60:	e77f      	b.n	8000e62 <__aeabi_fsub+0x32>
 8000f62:	20ff      	movs	r0, #255	; 0xff
 8000f64:	4240      	negs	r0, r0
 8000f66:	4680      	mov	r8, r0
 8000f68:	44a8      	add	r8, r5
 8000f6a:	4640      	mov	r0, r8
 8000f6c:	2800      	cmp	r0, #0
 8000f6e:	d038      	beq.n	8000fe2 <__aeabi_fsub+0x1b2>
 8000f70:	1b51      	subs	r1, r2, r5
 8000f72:	2d00      	cmp	r5, #0
 8000f74:	d100      	bne.n	8000f78 <__aeabi_fsub+0x148>
 8000f76:	e0ae      	b.n	80010d6 <__aeabi_fsub+0x2a6>
 8000f78:	2aff      	cmp	r2, #255	; 0xff
 8000f7a:	d100      	bne.n	8000f7e <__aeabi_fsub+0x14e>
 8000f7c:	e0df      	b.n	800113e <__aeabi_fsub+0x30e>
 8000f7e:	2380      	movs	r3, #128	; 0x80
 8000f80:	4660      	mov	r0, ip
 8000f82:	04db      	lsls	r3, r3, #19
 8000f84:	4318      	orrs	r0, r3
 8000f86:	4684      	mov	ip, r0
 8000f88:	291b      	cmp	r1, #27
 8000f8a:	dc00      	bgt.n	8000f8e <__aeabi_fsub+0x15e>
 8000f8c:	e0d9      	b.n	8001142 <__aeabi_fsub+0x312>
 8000f8e:	2001      	movs	r0, #1
 8000f90:	0015      	movs	r5, r2
 8000f92:	1980      	adds	r0, r0, r6
 8000f94:	e7b1      	b.n	8000efa <__aeabi_fsub+0xca>
 8000f96:	20fe      	movs	r0, #254	; 0xfe
 8000f98:	1c6a      	adds	r2, r5, #1
 8000f9a:	4210      	tst	r0, r2
 8000f9c:	d171      	bne.n	8001082 <__aeabi_fsub+0x252>
 8000f9e:	2d00      	cmp	r5, #0
 8000fa0:	d000      	beq.n	8000fa4 <__aeabi_fsub+0x174>
 8000fa2:	e0a6      	b.n	80010f2 <__aeabi_fsub+0x2c2>
 8000fa4:	4663      	mov	r3, ip
 8000fa6:	2b00      	cmp	r3, #0
 8000fa8:	d100      	bne.n	8000fac <__aeabi_fsub+0x17c>
 8000faa:	e0d9      	b.n	8001160 <__aeabi_fsub+0x330>
 8000fac:	2200      	movs	r2, #0
 8000fae:	2e00      	cmp	r6, #0
 8000fb0:	d100      	bne.n	8000fb4 <__aeabi_fsub+0x184>
 8000fb2:	e788      	b.n	8000ec6 <__aeabi_fsub+0x96>
 8000fb4:	1b98      	subs	r0, r3, r6
 8000fb6:	0143      	lsls	r3, r0, #5
 8000fb8:	d400      	bmi.n	8000fbc <__aeabi_fsub+0x18c>
 8000fba:	e0e1      	b.n	8001180 <__aeabi_fsub+0x350>
 8000fbc:	4663      	mov	r3, ip
 8000fbe:	000c      	movs	r4, r1
 8000fc0:	1af0      	subs	r0, r6, r3
 8000fc2:	e76f      	b.n	8000ea4 <__aeabi_fsub+0x74>
 8000fc4:	2e00      	cmp	r6, #0
 8000fc6:	d100      	bne.n	8000fca <__aeabi_fsub+0x19a>
 8000fc8:	e0b7      	b.n	800113a <__aeabi_fsub+0x30a>
 8000fca:	0002      	movs	r2, r0
 8000fcc:	3a01      	subs	r2, #1
 8000fce:	2801      	cmp	r0, #1
 8000fd0:	d100      	bne.n	8000fd4 <__aeabi_fsub+0x1a4>
 8000fd2:	e09c      	b.n	800110e <__aeabi_fsub+0x2de>
 8000fd4:	28ff      	cmp	r0, #255	; 0xff
 8000fd6:	d026      	beq.n	8001026 <__aeabi_fsub+0x1f6>
 8000fd8:	4690      	mov	r8, r2
 8000fda:	e788      	b.n	8000eee <__aeabi_fsub+0xbe>
 8000fdc:	22ff      	movs	r2, #255	; 0xff
 8000fde:	2700      	movs	r7, #0
 8000fe0:	e771      	b.n	8000ec6 <__aeabi_fsub+0x96>
 8000fe2:	20fe      	movs	r0, #254	; 0xfe
 8000fe4:	1c6a      	adds	r2, r5, #1
 8000fe6:	4210      	tst	r0, r2
 8000fe8:	d064      	beq.n	80010b4 <__aeabi_fsub+0x284>
 8000fea:	2aff      	cmp	r2, #255	; 0xff
 8000fec:	d0f6      	beq.n	8000fdc <__aeabi_fsub+0x1ac>
 8000fee:	0015      	movs	r5, r2
 8000ff0:	4466      	add	r6, ip
 8000ff2:	0870      	lsrs	r0, r6, #1
 8000ff4:	0743      	lsls	r3, r0, #29
 8000ff6:	d000      	beq.n	8000ffa <__aeabi_fsub+0x1ca>
 8000ff8:	e756      	b.n	8000ea8 <__aeabi_fsub+0x78>
 8000ffa:	08c3      	lsrs	r3, r0, #3
 8000ffc:	2dff      	cmp	r5, #255	; 0xff
 8000ffe:	d012      	beq.n	8001026 <__aeabi_fsub+0x1f6>
 8001000:	025b      	lsls	r3, r3, #9
 8001002:	0a5f      	lsrs	r7, r3, #9
 8001004:	b2ea      	uxtb	r2, r5
 8001006:	e75e      	b.n	8000ec6 <__aeabi_fsub+0x96>
 8001008:	4662      	mov	r2, ip
 800100a:	2a00      	cmp	r2, #0
 800100c:	d100      	bne.n	8001010 <__aeabi_fsub+0x1e0>
 800100e:	e096      	b.n	800113e <__aeabi_fsub+0x30e>
 8001010:	2e00      	cmp	r6, #0
 8001012:	d008      	beq.n	8001026 <__aeabi_fsub+0x1f6>
 8001014:	2280      	movs	r2, #128	; 0x80
 8001016:	03d2      	lsls	r2, r2, #15
 8001018:	4213      	tst	r3, r2
 800101a:	d004      	beq.n	8001026 <__aeabi_fsub+0x1f6>
 800101c:	4648      	mov	r0, r9
 800101e:	4210      	tst	r0, r2
 8001020:	d101      	bne.n	8001026 <__aeabi_fsub+0x1f6>
 8001022:	000c      	movs	r4, r1
 8001024:	464b      	mov	r3, r9
 8001026:	2b00      	cmp	r3, #0
 8001028:	d0d8      	beq.n	8000fdc <__aeabi_fsub+0x1ac>
 800102a:	2780      	movs	r7, #128	; 0x80
 800102c:	03ff      	lsls	r7, r7, #15
 800102e:	431f      	orrs	r7, r3
 8001030:	027f      	lsls	r7, r7, #9
 8001032:	22ff      	movs	r2, #255	; 0xff
 8001034:	0a7f      	lsrs	r7, r7, #9
 8001036:	e746      	b.n	8000ec6 <__aeabi_fsub+0x96>
 8001038:	2320      	movs	r3, #32
 800103a:	003a      	movs	r2, r7
 800103c:	1b45      	subs	r5, r0, r5
 800103e:	0038      	movs	r0, r7
 8001040:	3501      	adds	r5, #1
 8001042:	40ea      	lsrs	r2, r5
 8001044:	1b5d      	subs	r5, r3, r5
 8001046:	40a8      	lsls	r0, r5
 8001048:	1e43      	subs	r3, r0, #1
 800104a:	4198      	sbcs	r0, r3
 800104c:	2500      	movs	r5, #0
 800104e:	4310      	orrs	r0, r2
 8001050:	e728      	b.n	8000ea4 <__aeabi_fsub+0x74>
 8001052:	2320      	movs	r3, #32
 8001054:	1a1b      	subs	r3, r3, r0
 8001056:	0032      	movs	r2, r6
 8001058:	409e      	lsls	r6, r3
 800105a:	40c2      	lsrs	r2, r0
 800105c:	0030      	movs	r0, r6
 800105e:	1e43      	subs	r3, r0, #1
 8001060:	4198      	sbcs	r0, r3
 8001062:	4310      	orrs	r0, r2
 8001064:	e70c      	b.n	8000e80 <__aeabi_fsub+0x50>
 8001066:	2aff      	cmp	r2, #255	; 0xff
 8001068:	d0db      	beq.n	8001022 <__aeabi_fsub+0x1f2>
 800106a:	2380      	movs	r3, #128	; 0x80
 800106c:	4660      	mov	r0, ip
 800106e:	04db      	lsls	r3, r3, #19
 8001070:	4318      	orrs	r0, r3
 8001072:	4684      	mov	ip, r0
 8001074:	2f1b      	cmp	r7, #27
 8001076:	dd56      	ble.n	8001126 <__aeabi_fsub+0x2f6>
 8001078:	2001      	movs	r0, #1
 800107a:	000c      	movs	r4, r1
 800107c:	0015      	movs	r5, r2
 800107e:	1a30      	subs	r0, r6, r0
 8001080:	e700      	b.n	8000e84 <__aeabi_fsub+0x54>
 8001082:	4663      	mov	r3, ip
 8001084:	1b9f      	subs	r7, r3, r6
 8001086:	017b      	lsls	r3, r7, #5
 8001088:	d43d      	bmi.n	8001106 <__aeabi_fsub+0x2d6>
 800108a:	2f00      	cmp	r7, #0
 800108c:	d000      	beq.n	8001090 <__aeabi_fsub+0x260>
 800108e:	e6fe      	b.n	8000e8e <__aeabi_fsub+0x5e>
 8001090:	2400      	movs	r4, #0
 8001092:	2200      	movs	r2, #0
 8001094:	2700      	movs	r7, #0
 8001096:	e716      	b.n	8000ec6 <__aeabi_fsub+0x96>
 8001098:	0005      	movs	r5, r0
 800109a:	e7af      	b.n	8000ffc <__aeabi_fsub+0x1cc>
 800109c:	0032      	movs	r2, r6
 800109e:	4643      	mov	r3, r8
 80010a0:	4641      	mov	r1, r8
 80010a2:	40da      	lsrs	r2, r3
 80010a4:	2320      	movs	r3, #32
 80010a6:	1a5b      	subs	r3, r3, r1
 80010a8:	409e      	lsls	r6, r3
 80010aa:	0030      	movs	r0, r6
 80010ac:	1e43      	subs	r3, r0, #1
 80010ae:	4198      	sbcs	r0, r3
 80010b0:	4310      	orrs	r0, r2
 80010b2:	e721      	b.n	8000ef8 <__aeabi_fsub+0xc8>
 80010b4:	2d00      	cmp	r5, #0
 80010b6:	d1a7      	bne.n	8001008 <__aeabi_fsub+0x1d8>
 80010b8:	4663      	mov	r3, ip
 80010ba:	2b00      	cmp	r3, #0
 80010bc:	d059      	beq.n	8001172 <__aeabi_fsub+0x342>
 80010be:	2200      	movs	r2, #0
 80010c0:	2e00      	cmp	r6, #0
 80010c2:	d100      	bne.n	80010c6 <__aeabi_fsub+0x296>
 80010c4:	e6ff      	b.n	8000ec6 <__aeabi_fsub+0x96>
 80010c6:	0030      	movs	r0, r6
 80010c8:	4460      	add	r0, ip
 80010ca:	0143      	lsls	r3, r0, #5
 80010cc:	d592      	bpl.n	8000ff4 <__aeabi_fsub+0x1c4>
 80010ce:	4b2a      	ldr	r3, [pc, #168]	; (8001178 <__aeabi_fsub+0x348>)
 80010d0:	3501      	adds	r5, #1
 80010d2:	4018      	ands	r0, r3
 80010d4:	e78e      	b.n	8000ff4 <__aeabi_fsub+0x1c4>
 80010d6:	4663      	mov	r3, ip
 80010d8:	2b00      	cmp	r3, #0
 80010da:	d047      	beq.n	800116c <__aeabi_fsub+0x33c>
 80010dc:	1e4b      	subs	r3, r1, #1
 80010de:	2901      	cmp	r1, #1
 80010e0:	d015      	beq.n	800110e <__aeabi_fsub+0x2de>
 80010e2:	29ff      	cmp	r1, #255	; 0xff
 80010e4:	d02b      	beq.n	800113e <__aeabi_fsub+0x30e>
 80010e6:	0019      	movs	r1, r3
 80010e8:	e74e      	b.n	8000f88 <__aeabi_fsub+0x158>
 80010ea:	000c      	movs	r4, r1
 80010ec:	464b      	mov	r3, r9
 80010ee:	003d      	movs	r5, r7
 80010f0:	e784      	b.n	8000ffc <__aeabi_fsub+0x1cc>
 80010f2:	4662      	mov	r2, ip
 80010f4:	2a00      	cmp	r2, #0
 80010f6:	d18b      	bne.n	8001010 <__aeabi_fsub+0x1e0>
 80010f8:	2e00      	cmp	r6, #0
 80010fa:	d192      	bne.n	8001022 <__aeabi_fsub+0x1f2>
 80010fc:	2780      	movs	r7, #128	; 0x80
 80010fe:	2400      	movs	r4, #0
 8001100:	22ff      	movs	r2, #255	; 0xff
 8001102:	03ff      	lsls	r7, r7, #15
 8001104:	e6df      	b.n	8000ec6 <__aeabi_fsub+0x96>
 8001106:	4663      	mov	r3, ip
 8001108:	000c      	movs	r4, r1
 800110a:	1af7      	subs	r7, r6, r3
 800110c:	e6bf      	b.n	8000e8e <__aeabi_fsub+0x5e>
 800110e:	0030      	movs	r0, r6
 8001110:	4460      	add	r0, ip
 8001112:	2501      	movs	r5, #1
 8001114:	0143      	lsls	r3, r0, #5
 8001116:	d400      	bmi.n	800111a <__aeabi_fsub+0x2ea>
 8001118:	e76c      	b.n	8000ff4 <__aeabi_fsub+0x1c4>
 800111a:	2502      	movs	r5, #2
 800111c:	e6f2      	b.n	8000f04 <__aeabi_fsub+0xd4>
 800111e:	4663      	mov	r3, ip
 8001120:	2501      	movs	r5, #1
 8001122:	1b98      	subs	r0, r3, r6
 8001124:	e6ae      	b.n	8000e84 <__aeabi_fsub+0x54>
 8001126:	2320      	movs	r3, #32
 8001128:	4664      	mov	r4, ip
 800112a:	4660      	mov	r0, ip
 800112c:	40fc      	lsrs	r4, r7
 800112e:	1bdf      	subs	r7, r3, r7
 8001130:	40b8      	lsls	r0, r7
 8001132:	1e43      	subs	r3, r0, #1
 8001134:	4198      	sbcs	r0, r3
 8001136:	4320      	orrs	r0, r4
 8001138:	e79f      	b.n	800107a <__aeabi_fsub+0x24a>
 800113a:	0005      	movs	r5, r0
 800113c:	e75e      	b.n	8000ffc <__aeabi_fsub+0x1cc>
 800113e:	464b      	mov	r3, r9
 8001140:	e771      	b.n	8001026 <__aeabi_fsub+0x1f6>
 8001142:	2320      	movs	r3, #32
 8001144:	4665      	mov	r5, ip
 8001146:	4660      	mov	r0, ip
 8001148:	40cd      	lsrs	r5, r1
 800114a:	1a59      	subs	r1, r3, r1
 800114c:	4088      	lsls	r0, r1
 800114e:	1e43      	subs	r3, r0, #1
 8001150:	4198      	sbcs	r0, r3
 8001152:	4328      	orrs	r0, r5
 8001154:	e71c      	b.n	8000f90 <__aeabi_fsub+0x160>
 8001156:	4663      	mov	r3, ip
 8001158:	000c      	movs	r4, r1
 800115a:	2501      	movs	r5, #1
 800115c:	1af0      	subs	r0, r6, r3
 800115e:	e691      	b.n	8000e84 <__aeabi_fsub+0x54>
 8001160:	2e00      	cmp	r6, #0
 8001162:	d095      	beq.n	8001090 <__aeabi_fsub+0x260>
 8001164:	000c      	movs	r4, r1
 8001166:	464f      	mov	r7, r9
 8001168:	2200      	movs	r2, #0
 800116a:	e6ac      	b.n	8000ec6 <__aeabi_fsub+0x96>
 800116c:	464b      	mov	r3, r9
 800116e:	000d      	movs	r5, r1
 8001170:	e744      	b.n	8000ffc <__aeabi_fsub+0x1cc>
 8001172:	464f      	mov	r7, r9
 8001174:	2200      	movs	r2, #0
 8001176:	e6a6      	b.n	8000ec6 <__aeabi_fsub+0x96>
 8001178:	fbffffff 	.word	0xfbffffff
 800117c:	7dffffff 	.word	0x7dffffff
 8001180:	2800      	cmp	r0, #0
 8001182:	d000      	beq.n	8001186 <__aeabi_fsub+0x356>
 8001184:	e736      	b.n	8000ff4 <__aeabi_fsub+0x1c4>
 8001186:	2400      	movs	r4, #0
 8001188:	2700      	movs	r7, #0
 800118a:	e69c      	b.n	8000ec6 <__aeabi_fsub+0x96>

0800118c <__aeabi_fcmpun>:
 800118c:	0243      	lsls	r3, r0, #9
 800118e:	024a      	lsls	r2, r1, #9
 8001190:	0040      	lsls	r0, r0, #1
 8001192:	0049      	lsls	r1, r1, #1
 8001194:	0a5b      	lsrs	r3, r3, #9
 8001196:	0a52      	lsrs	r2, r2, #9
 8001198:	0e09      	lsrs	r1, r1, #24
 800119a:	0e00      	lsrs	r0, r0, #24
 800119c:	28ff      	cmp	r0, #255	; 0xff
 800119e:	d006      	beq.n	80011ae <__aeabi_fcmpun+0x22>
 80011a0:	2000      	movs	r0, #0
 80011a2:	29ff      	cmp	r1, #255	; 0xff
 80011a4:	d102      	bne.n	80011ac <__aeabi_fcmpun+0x20>
 80011a6:	1e53      	subs	r3, r2, #1
 80011a8:	419a      	sbcs	r2, r3
 80011aa:	0010      	movs	r0, r2
 80011ac:	4770      	bx	lr
 80011ae:	38fe      	subs	r0, #254	; 0xfe
 80011b0:	2b00      	cmp	r3, #0
 80011b2:	d1fb      	bne.n	80011ac <__aeabi_fcmpun+0x20>
 80011b4:	e7f4      	b.n	80011a0 <__aeabi_fcmpun+0x14>
 80011b6:	46c0      	nop			; (mov r8, r8)

080011b8 <__aeabi_dadd>:
 80011b8:	b5f0      	push	{r4, r5, r6, r7, lr}
 80011ba:	464f      	mov	r7, r9
 80011bc:	4646      	mov	r6, r8
 80011be:	46d6      	mov	lr, sl
 80011c0:	000d      	movs	r5, r1
 80011c2:	0004      	movs	r4, r0
 80011c4:	b5c0      	push	{r6, r7, lr}
 80011c6:	001f      	movs	r7, r3
 80011c8:	0011      	movs	r1, r2
 80011ca:	0328      	lsls	r0, r5, #12
 80011cc:	0f62      	lsrs	r2, r4, #29
 80011ce:	0a40      	lsrs	r0, r0, #9
 80011d0:	4310      	orrs	r0, r2
 80011d2:	007a      	lsls	r2, r7, #1
 80011d4:	0d52      	lsrs	r2, r2, #21
 80011d6:	00e3      	lsls	r3, r4, #3
 80011d8:	033c      	lsls	r4, r7, #12
 80011da:	4691      	mov	r9, r2
 80011dc:	0a64      	lsrs	r4, r4, #9
 80011de:	0ffa      	lsrs	r2, r7, #31
 80011e0:	0f4f      	lsrs	r7, r1, #29
 80011e2:	006e      	lsls	r6, r5, #1
 80011e4:	4327      	orrs	r7, r4
 80011e6:	4692      	mov	sl, r2
 80011e8:	46b8      	mov	r8, r7
 80011ea:	0d76      	lsrs	r6, r6, #21
 80011ec:	0fed      	lsrs	r5, r5, #31
 80011ee:	00c9      	lsls	r1, r1, #3
 80011f0:	4295      	cmp	r5, r2
 80011f2:	d100      	bne.n	80011f6 <__aeabi_dadd+0x3e>
 80011f4:	e099      	b.n	800132a <__aeabi_dadd+0x172>
 80011f6:	464c      	mov	r4, r9
 80011f8:	1b34      	subs	r4, r6, r4
 80011fa:	46a4      	mov	ip, r4
 80011fc:	2c00      	cmp	r4, #0
 80011fe:	dc00      	bgt.n	8001202 <__aeabi_dadd+0x4a>
 8001200:	e07c      	b.n	80012fc <__aeabi_dadd+0x144>
 8001202:	464a      	mov	r2, r9
 8001204:	2a00      	cmp	r2, #0
 8001206:	d100      	bne.n	800120a <__aeabi_dadd+0x52>
 8001208:	e0b8      	b.n	800137c <__aeabi_dadd+0x1c4>
 800120a:	4ac5      	ldr	r2, [pc, #788]	; (8001520 <__aeabi_dadd+0x368>)
 800120c:	4296      	cmp	r6, r2
 800120e:	d100      	bne.n	8001212 <__aeabi_dadd+0x5a>
 8001210:	e11c      	b.n	800144c <__aeabi_dadd+0x294>
 8001212:	2280      	movs	r2, #128	; 0x80
 8001214:	003c      	movs	r4, r7
 8001216:	0412      	lsls	r2, r2, #16
 8001218:	4314      	orrs	r4, r2
 800121a:	46a0      	mov	r8, r4
 800121c:	4662      	mov	r2, ip
 800121e:	2a38      	cmp	r2, #56	; 0x38
 8001220:	dd00      	ble.n	8001224 <__aeabi_dadd+0x6c>
 8001222:	e161      	b.n	80014e8 <__aeabi_dadd+0x330>
 8001224:	2a1f      	cmp	r2, #31
 8001226:	dd00      	ble.n	800122a <__aeabi_dadd+0x72>
 8001228:	e1cc      	b.n	80015c4 <__aeabi_dadd+0x40c>
 800122a:	4664      	mov	r4, ip
 800122c:	2220      	movs	r2, #32
 800122e:	1b12      	subs	r2, r2, r4
 8001230:	4644      	mov	r4, r8
 8001232:	4094      	lsls	r4, r2
 8001234:	000f      	movs	r7, r1
 8001236:	46a1      	mov	r9, r4
 8001238:	4664      	mov	r4, ip
 800123a:	4091      	lsls	r1, r2
 800123c:	40e7      	lsrs	r7, r4
 800123e:	464c      	mov	r4, r9
 8001240:	1e4a      	subs	r2, r1, #1
 8001242:	4191      	sbcs	r1, r2
 8001244:	433c      	orrs	r4, r7
 8001246:	4642      	mov	r2, r8
 8001248:	4321      	orrs	r1, r4
 800124a:	4664      	mov	r4, ip
 800124c:	40e2      	lsrs	r2, r4
 800124e:	1a80      	subs	r0, r0, r2
 8001250:	1a5c      	subs	r4, r3, r1
 8001252:	42a3      	cmp	r3, r4
 8001254:	419b      	sbcs	r3, r3
 8001256:	425f      	negs	r7, r3
 8001258:	1bc7      	subs	r7, r0, r7
 800125a:	023b      	lsls	r3, r7, #8
 800125c:	d400      	bmi.n	8001260 <__aeabi_dadd+0xa8>
 800125e:	e0d0      	b.n	8001402 <__aeabi_dadd+0x24a>
 8001260:	027f      	lsls	r7, r7, #9
 8001262:	0a7f      	lsrs	r7, r7, #9
 8001264:	2f00      	cmp	r7, #0
 8001266:	d100      	bne.n	800126a <__aeabi_dadd+0xb2>
 8001268:	e0ff      	b.n	800146a <__aeabi_dadd+0x2b2>
 800126a:	0038      	movs	r0, r7
 800126c:	f001 fe5a 	bl	8002f24 <__clzsi2>
 8001270:	0001      	movs	r1, r0
 8001272:	3908      	subs	r1, #8
 8001274:	2320      	movs	r3, #32
 8001276:	0022      	movs	r2, r4
 8001278:	1a5b      	subs	r3, r3, r1
 800127a:	408f      	lsls	r7, r1
 800127c:	40da      	lsrs	r2, r3
 800127e:	408c      	lsls	r4, r1
 8001280:	4317      	orrs	r7, r2
 8001282:	42b1      	cmp	r1, r6
 8001284:	da00      	bge.n	8001288 <__aeabi_dadd+0xd0>
 8001286:	e0ff      	b.n	8001488 <__aeabi_dadd+0x2d0>
 8001288:	1b89      	subs	r1, r1, r6
 800128a:	1c4b      	adds	r3, r1, #1
 800128c:	2b1f      	cmp	r3, #31
 800128e:	dd00      	ble.n	8001292 <__aeabi_dadd+0xda>
 8001290:	e0a8      	b.n	80013e4 <__aeabi_dadd+0x22c>
 8001292:	2220      	movs	r2, #32
 8001294:	0039      	movs	r1, r7
 8001296:	1ad2      	subs	r2, r2, r3
 8001298:	0020      	movs	r0, r4
 800129a:	4094      	lsls	r4, r2
 800129c:	4091      	lsls	r1, r2
 800129e:	40d8      	lsrs	r0, r3
 80012a0:	1e62      	subs	r2, r4, #1
 80012a2:	4194      	sbcs	r4, r2
 80012a4:	40df      	lsrs	r7, r3
 80012a6:	2600      	movs	r6, #0
 80012a8:	4301      	orrs	r1, r0
 80012aa:	430c      	orrs	r4, r1
 80012ac:	0763      	lsls	r3, r4, #29
 80012ae:	d009      	beq.n	80012c4 <__aeabi_dadd+0x10c>
 80012b0:	230f      	movs	r3, #15
 80012b2:	4023      	ands	r3, r4
 80012b4:	2b04      	cmp	r3, #4
 80012b6:	d005      	beq.n	80012c4 <__aeabi_dadd+0x10c>
 80012b8:	1d23      	adds	r3, r4, #4
 80012ba:	42a3      	cmp	r3, r4
 80012bc:	41a4      	sbcs	r4, r4
 80012be:	4264      	negs	r4, r4
 80012c0:	193f      	adds	r7, r7, r4
 80012c2:	001c      	movs	r4, r3
 80012c4:	023b      	lsls	r3, r7, #8
 80012c6:	d400      	bmi.n	80012ca <__aeabi_dadd+0x112>
 80012c8:	e09e      	b.n	8001408 <__aeabi_dadd+0x250>
 80012ca:	4b95      	ldr	r3, [pc, #596]	; (8001520 <__aeabi_dadd+0x368>)
 80012cc:	3601      	adds	r6, #1
 80012ce:	429e      	cmp	r6, r3
 80012d0:	d100      	bne.n	80012d4 <__aeabi_dadd+0x11c>
 80012d2:	e0b7      	b.n	8001444 <__aeabi_dadd+0x28c>
 80012d4:	4a93      	ldr	r2, [pc, #588]	; (8001524 <__aeabi_dadd+0x36c>)
 80012d6:	08e4      	lsrs	r4, r4, #3
 80012d8:	4017      	ands	r7, r2
 80012da:	077b      	lsls	r3, r7, #29
 80012dc:	0571      	lsls	r1, r6, #21
 80012de:	027f      	lsls	r7, r7, #9
 80012e0:	4323      	orrs	r3, r4
 80012e2:	0b3f      	lsrs	r7, r7, #12
 80012e4:	0d4a      	lsrs	r2, r1, #21
 80012e6:	0512      	lsls	r2, r2, #20
 80012e8:	433a      	orrs	r2, r7
 80012ea:	07ed      	lsls	r5, r5, #31
 80012ec:	432a      	orrs	r2, r5
 80012ee:	0018      	movs	r0, r3
 80012f0:	0011      	movs	r1, r2
 80012f2:	bce0      	pop	{r5, r6, r7}
 80012f4:	46ba      	mov	sl, r7
 80012f6:	46b1      	mov	r9, r6
 80012f8:	46a8      	mov	r8, r5
 80012fa:	bdf0      	pop	{r4, r5, r6, r7, pc}
 80012fc:	2c00      	cmp	r4, #0
 80012fe:	d04b      	beq.n	8001398 <__aeabi_dadd+0x1e0>
 8001300:	464c      	mov	r4, r9
 8001302:	1ba4      	subs	r4, r4, r6
 8001304:	46a4      	mov	ip, r4
 8001306:	2e00      	cmp	r6, #0
 8001308:	d000      	beq.n	800130c <__aeabi_dadd+0x154>
 800130a:	e123      	b.n	8001554 <__aeabi_dadd+0x39c>
 800130c:	0004      	movs	r4, r0
 800130e:	431c      	orrs	r4, r3
 8001310:	d100      	bne.n	8001314 <__aeabi_dadd+0x15c>
 8001312:	e1af      	b.n	8001674 <__aeabi_dadd+0x4bc>
 8001314:	4662      	mov	r2, ip
 8001316:	1e54      	subs	r4, r2, #1
 8001318:	2a01      	cmp	r2, #1
 800131a:	d100      	bne.n	800131e <__aeabi_dadd+0x166>
 800131c:	e215      	b.n	800174a <__aeabi_dadd+0x592>
 800131e:	4d80      	ldr	r5, [pc, #512]	; (8001520 <__aeabi_dadd+0x368>)
 8001320:	45ac      	cmp	ip, r5
 8001322:	d100      	bne.n	8001326 <__aeabi_dadd+0x16e>
 8001324:	e1c8      	b.n	80016b8 <__aeabi_dadd+0x500>
 8001326:	46a4      	mov	ip, r4
 8001328:	e11b      	b.n	8001562 <__aeabi_dadd+0x3aa>
 800132a:	464a      	mov	r2, r9
 800132c:	1ab2      	subs	r2, r6, r2
 800132e:	4694      	mov	ip, r2
 8001330:	2a00      	cmp	r2, #0
 8001332:	dc00      	bgt.n	8001336 <__aeabi_dadd+0x17e>
 8001334:	e0ac      	b.n	8001490 <__aeabi_dadd+0x2d8>
 8001336:	464a      	mov	r2, r9
 8001338:	2a00      	cmp	r2, #0
 800133a:	d043      	beq.n	80013c4 <__aeabi_dadd+0x20c>
 800133c:	4a78      	ldr	r2, [pc, #480]	; (8001520 <__aeabi_dadd+0x368>)
 800133e:	4296      	cmp	r6, r2
 8001340:	d100      	bne.n	8001344 <__aeabi_dadd+0x18c>
 8001342:	e1af      	b.n	80016a4 <__aeabi_dadd+0x4ec>
 8001344:	2280      	movs	r2, #128	; 0x80
 8001346:	003c      	movs	r4, r7
 8001348:	0412      	lsls	r2, r2, #16
 800134a:	4314      	orrs	r4, r2
 800134c:	46a0      	mov	r8, r4
 800134e:	4662      	mov	r2, ip
 8001350:	2a38      	cmp	r2, #56	; 0x38
 8001352:	dc67      	bgt.n	8001424 <__aeabi_dadd+0x26c>
 8001354:	2a1f      	cmp	r2, #31
 8001356:	dc00      	bgt.n	800135a <__aeabi_dadd+0x1a2>
 8001358:	e15f      	b.n	800161a <__aeabi_dadd+0x462>
 800135a:	4647      	mov	r7, r8
 800135c:	3a20      	subs	r2, #32
 800135e:	40d7      	lsrs	r7, r2
 8001360:	4662      	mov	r2, ip
 8001362:	2a20      	cmp	r2, #32
 8001364:	d005      	beq.n	8001372 <__aeabi_dadd+0x1ba>
 8001366:	4664      	mov	r4, ip
 8001368:	2240      	movs	r2, #64	; 0x40
 800136a:	1b12      	subs	r2, r2, r4
 800136c:	4644      	mov	r4, r8
 800136e:	4094      	lsls	r4, r2
 8001370:	4321      	orrs	r1, r4
 8001372:	1e4a      	subs	r2, r1, #1
 8001374:	4191      	sbcs	r1, r2
 8001376:	000c      	movs	r4, r1
 8001378:	433c      	orrs	r4, r7
 800137a:	e057      	b.n	800142c <__aeabi_dadd+0x274>
 800137c:	003a      	movs	r2, r7
 800137e:	430a      	orrs	r2, r1
 8001380:	d100      	bne.n	8001384 <__aeabi_dadd+0x1cc>
 8001382:	e105      	b.n	8001590 <__aeabi_dadd+0x3d8>
 8001384:	0022      	movs	r2, r4
 8001386:	3a01      	subs	r2, #1
 8001388:	2c01      	cmp	r4, #1
 800138a:	d100      	bne.n	800138e <__aeabi_dadd+0x1d6>
 800138c:	e182      	b.n	8001694 <__aeabi_dadd+0x4dc>
 800138e:	4c64      	ldr	r4, [pc, #400]	; (8001520 <__aeabi_dadd+0x368>)
 8001390:	45a4      	cmp	ip, r4
 8001392:	d05b      	beq.n	800144c <__aeabi_dadd+0x294>
 8001394:	4694      	mov	ip, r2
 8001396:	e741      	b.n	800121c <__aeabi_dadd+0x64>
 8001398:	4c63      	ldr	r4, [pc, #396]	; (8001528 <__aeabi_dadd+0x370>)
 800139a:	1c77      	adds	r7, r6, #1
 800139c:	4227      	tst	r7, r4
 800139e:	d000      	beq.n	80013a2 <__aeabi_dadd+0x1ea>
 80013a0:	e0c4      	b.n	800152c <__aeabi_dadd+0x374>
 80013a2:	0004      	movs	r4, r0
 80013a4:	431c      	orrs	r4, r3
 80013a6:	2e00      	cmp	r6, #0
 80013a8:	d000      	beq.n	80013ac <__aeabi_dadd+0x1f4>
 80013aa:	e169      	b.n	8001680 <__aeabi_dadd+0x4c8>
 80013ac:	2c00      	cmp	r4, #0
 80013ae:	d100      	bne.n	80013b2 <__aeabi_dadd+0x1fa>
 80013b0:	e1bf      	b.n	8001732 <__aeabi_dadd+0x57a>
 80013b2:	4644      	mov	r4, r8
 80013b4:	430c      	orrs	r4, r1
 80013b6:	d000      	beq.n	80013ba <__aeabi_dadd+0x202>
 80013b8:	e1d0      	b.n	800175c <__aeabi_dadd+0x5a4>
 80013ba:	0742      	lsls	r2, r0, #29
 80013bc:	08db      	lsrs	r3, r3, #3
 80013be:	4313      	orrs	r3, r2
 80013c0:	08c0      	lsrs	r0, r0, #3
 80013c2:	e029      	b.n	8001418 <__aeabi_dadd+0x260>
 80013c4:	003a      	movs	r2, r7
 80013c6:	430a      	orrs	r2, r1
 80013c8:	d100      	bne.n	80013cc <__aeabi_dadd+0x214>
 80013ca:	e170      	b.n	80016ae <__aeabi_dadd+0x4f6>
 80013cc:	4662      	mov	r2, ip
 80013ce:	4664      	mov	r4, ip
 80013d0:	3a01      	subs	r2, #1
 80013d2:	2c01      	cmp	r4, #1
 80013d4:	d100      	bne.n	80013d8 <__aeabi_dadd+0x220>
 80013d6:	e0e0      	b.n	800159a <__aeabi_dadd+0x3e2>
 80013d8:	4c51      	ldr	r4, [pc, #324]	; (8001520 <__aeabi_dadd+0x368>)
 80013da:	45a4      	cmp	ip, r4
 80013dc:	d100      	bne.n	80013e0 <__aeabi_dadd+0x228>
 80013de:	e161      	b.n	80016a4 <__aeabi_dadd+0x4ec>
 80013e0:	4694      	mov	ip, r2
 80013e2:	e7b4      	b.n	800134e <__aeabi_dadd+0x196>
 80013e4:	003a      	movs	r2, r7
 80013e6:	391f      	subs	r1, #31
 80013e8:	40ca      	lsrs	r2, r1
 80013ea:	0011      	movs	r1, r2
 80013ec:	2b20      	cmp	r3, #32
 80013ee:	d003      	beq.n	80013f8 <__aeabi_dadd+0x240>
 80013f0:	2240      	movs	r2, #64	; 0x40
 80013f2:	1ad3      	subs	r3, r2, r3
 80013f4:	409f      	lsls	r7, r3
 80013f6:	433c      	orrs	r4, r7
 80013f8:	1e63      	subs	r3, r4, #1
 80013fa:	419c      	sbcs	r4, r3
 80013fc:	2700      	movs	r7, #0
 80013fe:	2600      	movs	r6, #0
 8001400:	430c      	orrs	r4, r1
 8001402:	0763      	lsls	r3, r4, #29
 8001404:	d000      	beq.n	8001408 <__aeabi_dadd+0x250>
 8001406:	e753      	b.n	80012b0 <__aeabi_dadd+0xf8>
 8001408:	46b4      	mov	ip, r6
 800140a:	08e4      	lsrs	r4, r4, #3
 800140c:	077b      	lsls	r3, r7, #29
 800140e:	4323      	orrs	r3, r4
 8001410:	08f8      	lsrs	r0, r7, #3
 8001412:	4a43      	ldr	r2, [pc, #268]	; (8001520 <__aeabi_dadd+0x368>)
 8001414:	4594      	cmp	ip, r2
 8001416:	d01d      	beq.n	8001454 <__aeabi_dadd+0x29c>
 8001418:	4662      	mov	r2, ip
 800141a:	0307      	lsls	r7, r0, #12
 800141c:	0552      	lsls	r2, r2, #21
 800141e:	0b3f      	lsrs	r7, r7, #12
 8001420:	0d52      	lsrs	r2, r2, #21
 8001422:	e760      	b.n	80012e6 <__aeabi_dadd+0x12e>
 8001424:	4644      	mov	r4, r8
 8001426:	430c      	orrs	r4, r1
 8001428:	1e62      	subs	r2, r4, #1
 800142a:	4194      	sbcs	r4, r2
 800142c:	18e4      	adds	r4, r4, r3
 800142e:	429c      	cmp	r4, r3
 8001430:	419b      	sbcs	r3, r3
 8001432:	425f      	negs	r7, r3
 8001434:	183f      	adds	r7, r7, r0
 8001436:	023b      	lsls	r3, r7, #8
 8001438:	d5e3      	bpl.n	8001402 <__aeabi_dadd+0x24a>
 800143a:	4b39      	ldr	r3, [pc, #228]	; (8001520 <__aeabi_dadd+0x368>)
 800143c:	3601      	adds	r6, #1
 800143e:	429e      	cmp	r6, r3
 8001440:	d000      	beq.n	8001444 <__aeabi_dadd+0x28c>
 8001442:	e0b5      	b.n	80015b0 <__aeabi_dadd+0x3f8>
 8001444:	0032      	movs	r2, r6
 8001446:	2700      	movs	r7, #0
 8001448:	2300      	movs	r3, #0
 800144a:	e74c      	b.n	80012e6 <__aeabi_dadd+0x12e>
 800144c:	0742      	lsls	r2, r0, #29
 800144e:	08db      	lsrs	r3, r3, #3
 8001450:	4313      	orrs	r3, r2
 8001452:	08c0      	lsrs	r0, r0, #3
 8001454:	001a      	movs	r2, r3
 8001456:	4302      	orrs	r2, r0
 8001458:	d100      	bne.n	800145c <__aeabi_dadd+0x2a4>
 800145a:	e1e1      	b.n	8001820 <__aeabi_dadd+0x668>
 800145c:	2780      	movs	r7, #128	; 0x80
 800145e:	033f      	lsls	r7, r7, #12
 8001460:	4307      	orrs	r7, r0
 8001462:	033f      	lsls	r7, r7, #12
 8001464:	4a2e      	ldr	r2, [pc, #184]	; (8001520 <__aeabi_dadd+0x368>)
 8001466:	0b3f      	lsrs	r7, r7, #12
 8001468:	e73d      	b.n	80012e6 <__aeabi_dadd+0x12e>
 800146a:	0020      	movs	r0, r4
 800146c:	f001 fd5a 	bl	8002f24 <__clzsi2>
 8001470:	0001      	movs	r1, r0
 8001472:	3118      	adds	r1, #24
 8001474:	291f      	cmp	r1, #31
 8001476:	dc00      	bgt.n	800147a <__aeabi_dadd+0x2c2>
 8001478:	e6fc      	b.n	8001274 <__aeabi_dadd+0xbc>
 800147a:	3808      	subs	r0, #8
 800147c:	4084      	lsls	r4, r0
 800147e:	0027      	movs	r7, r4
 8001480:	2400      	movs	r4, #0
 8001482:	42b1      	cmp	r1, r6
 8001484:	db00      	blt.n	8001488 <__aeabi_dadd+0x2d0>
 8001486:	e6ff      	b.n	8001288 <__aeabi_dadd+0xd0>
 8001488:	4a26      	ldr	r2, [pc, #152]	; (8001524 <__aeabi_dadd+0x36c>)
 800148a:	1a76      	subs	r6, r6, r1
 800148c:	4017      	ands	r7, r2
 800148e:	e70d      	b.n	80012ac <__aeabi_dadd+0xf4>
 8001490:	2a00      	cmp	r2, #0
 8001492:	d02f      	beq.n	80014f4 <__aeabi_dadd+0x33c>
 8001494:	464a      	mov	r2, r9
 8001496:	1b92      	subs	r2, r2, r6
 8001498:	4694      	mov	ip, r2
 800149a:	2e00      	cmp	r6, #0
 800149c:	d100      	bne.n	80014a0 <__aeabi_dadd+0x2e8>
 800149e:	e0ad      	b.n	80015fc <__aeabi_dadd+0x444>
 80014a0:	4a1f      	ldr	r2, [pc, #124]	; (8001520 <__aeabi_dadd+0x368>)
 80014a2:	4591      	cmp	r9, r2
 80014a4:	d100      	bne.n	80014a8 <__aeabi_dadd+0x2f0>
 80014a6:	e10f      	b.n	80016c8 <__aeabi_dadd+0x510>
 80014a8:	2280      	movs	r2, #128	; 0x80
 80014aa:	0412      	lsls	r2, r2, #16
 80014ac:	4310      	orrs	r0, r2
 80014ae:	4662      	mov	r2, ip
 80014b0:	2a38      	cmp	r2, #56	; 0x38
 80014b2:	dd00      	ble.n	80014b6 <__aeabi_dadd+0x2fe>
 80014b4:	e10f      	b.n	80016d6 <__aeabi_dadd+0x51e>
 80014b6:	2a1f      	cmp	r2, #31
 80014b8:	dd00      	ble.n	80014bc <__aeabi_dadd+0x304>
 80014ba:	e180      	b.n	80017be <__aeabi_dadd+0x606>
 80014bc:	4664      	mov	r4, ip
 80014be:	2220      	movs	r2, #32
 80014c0:	001e      	movs	r6, r3
 80014c2:	1b12      	subs	r2, r2, r4
 80014c4:	4667      	mov	r7, ip
 80014c6:	0004      	movs	r4, r0
 80014c8:	4093      	lsls	r3, r2
 80014ca:	4094      	lsls	r4, r2
 80014cc:	40fe      	lsrs	r6, r7
 80014ce:	1e5a      	subs	r2, r3, #1
 80014d0:	4193      	sbcs	r3, r2
 80014d2:	40f8      	lsrs	r0, r7
 80014d4:	4334      	orrs	r4, r6
 80014d6:	431c      	orrs	r4, r3
 80014d8:	4480      	add	r8, r0
 80014da:	1864      	adds	r4, r4, r1
 80014dc:	428c      	cmp	r4, r1
 80014de:	41bf      	sbcs	r7, r7
 80014e0:	427f      	negs	r7, r7
 80014e2:	464e      	mov	r6, r9
 80014e4:	4447      	add	r7, r8
 80014e6:	e7a6      	b.n	8001436 <__aeabi_dadd+0x27e>
 80014e8:	4642      	mov	r2, r8
 80014ea:	430a      	orrs	r2, r1
 80014ec:	0011      	movs	r1, r2
 80014ee:	1e4a      	subs	r2, r1, #1
 80014f0:	4191      	sbcs	r1, r2
 80014f2:	e6ad      	b.n	8001250 <__aeabi_dadd+0x98>
 80014f4:	4c0c      	ldr	r4, [pc, #48]	; (8001528 <__aeabi_dadd+0x370>)
 80014f6:	1c72      	adds	r2, r6, #1
 80014f8:	4222      	tst	r2, r4
 80014fa:	d000      	beq.n	80014fe <__aeabi_dadd+0x346>
 80014fc:	e0a1      	b.n	8001642 <__aeabi_dadd+0x48a>
 80014fe:	0002      	movs	r2, r0
 8001500:	431a      	orrs	r2, r3
 8001502:	2e00      	cmp	r6, #0
 8001504:	d000      	beq.n	8001508 <__aeabi_dadd+0x350>
 8001506:	e0fa      	b.n	80016fe <__aeabi_dadd+0x546>
 8001508:	2a00      	cmp	r2, #0
 800150a:	d100      	bne.n	800150e <__aeabi_dadd+0x356>
 800150c:	e145      	b.n	800179a <__aeabi_dadd+0x5e2>
 800150e:	003a      	movs	r2, r7
 8001510:	430a      	orrs	r2, r1
 8001512:	d000      	beq.n	8001516 <__aeabi_dadd+0x35e>
 8001514:	e146      	b.n	80017a4 <__aeabi_dadd+0x5ec>
 8001516:	0742      	lsls	r2, r0, #29
 8001518:	08db      	lsrs	r3, r3, #3
 800151a:	4313      	orrs	r3, r2
 800151c:	08c0      	lsrs	r0, r0, #3
 800151e:	e77b      	b.n	8001418 <__aeabi_dadd+0x260>
 8001520:	000007ff 	.word	0x000007ff
 8001524:	ff7fffff 	.word	0xff7fffff
 8001528:	000007fe 	.word	0x000007fe
 800152c:	4647      	mov	r7, r8
 800152e:	1a5c      	subs	r4, r3, r1
 8001530:	1bc2      	subs	r2, r0, r7
 8001532:	42a3      	cmp	r3, r4
 8001534:	41bf      	sbcs	r7, r7
 8001536:	427f      	negs	r7, r7
 8001538:	46b9      	mov	r9, r7
 800153a:	0017      	movs	r7, r2
 800153c:	464a      	mov	r2, r9
 800153e:	1abf      	subs	r7, r7, r2
 8001540:	023a      	lsls	r2, r7, #8
 8001542:	d500      	bpl.n	8001546 <__aeabi_dadd+0x38e>
 8001544:	e08d      	b.n	8001662 <__aeabi_dadd+0x4aa>
 8001546:	0023      	movs	r3, r4
 8001548:	433b      	orrs	r3, r7
 800154a:	d000      	beq.n	800154e <__aeabi_dadd+0x396>
 800154c:	e68a      	b.n	8001264 <__aeabi_dadd+0xac>
 800154e:	2000      	movs	r0, #0
 8001550:	2500      	movs	r5, #0
 8001552:	e761      	b.n	8001418 <__aeabi_dadd+0x260>
 8001554:	4cb4      	ldr	r4, [pc, #720]	; (8001828 <__aeabi_dadd+0x670>)
 8001556:	45a1      	cmp	r9, r4
 8001558:	d100      	bne.n	800155c <__aeabi_dadd+0x3a4>
 800155a:	e0ad      	b.n	80016b8 <__aeabi_dadd+0x500>
 800155c:	2480      	movs	r4, #128	; 0x80
 800155e:	0424      	lsls	r4, r4, #16
 8001560:	4320      	orrs	r0, r4
 8001562:	4664      	mov	r4, ip
 8001564:	2c38      	cmp	r4, #56	; 0x38
 8001566:	dc3d      	bgt.n	80015e4 <__aeabi_dadd+0x42c>
 8001568:	4662      	mov	r2, ip
 800156a:	2c1f      	cmp	r4, #31
 800156c:	dd00      	ble.n	8001570 <__aeabi_dadd+0x3b8>
 800156e:	e0b7      	b.n	80016e0 <__aeabi_dadd+0x528>
 8001570:	2520      	movs	r5, #32
 8001572:	001e      	movs	r6, r3
 8001574:	1b2d      	subs	r5, r5, r4
 8001576:	0004      	movs	r4, r0
 8001578:	40ab      	lsls	r3, r5
 800157a:	40ac      	lsls	r4, r5
 800157c:	40d6      	lsrs	r6, r2
 800157e:	40d0      	lsrs	r0, r2
 8001580:	4642      	mov	r2, r8
 8001582:	1e5d      	subs	r5, r3, #1
 8001584:	41ab      	sbcs	r3, r5
 8001586:	4334      	orrs	r4, r6
 8001588:	1a12      	subs	r2, r2, r0
 800158a:	4690      	mov	r8, r2
 800158c:	4323      	orrs	r3, r4
 800158e:	e02c      	b.n	80015ea <__aeabi_dadd+0x432>
 8001590:	0742      	lsls	r2, r0, #29
 8001592:	08db      	lsrs	r3, r3, #3
 8001594:	4313      	orrs	r3, r2
 8001596:	08c0      	lsrs	r0, r0, #3
 8001598:	e73b      	b.n	8001412 <__aeabi_dadd+0x25a>
 800159a:	185c      	adds	r4, r3, r1
 800159c:	429c      	cmp	r4, r3
 800159e:	419b      	sbcs	r3, r3
 80015a0:	4440      	add	r0, r8
 80015a2:	425b      	negs	r3, r3
 80015a4:	18c7      	adds	r7, r0, r3
 80015a6:	2601      	movs	r6, #1
 80015a8:	023b      	lsls	r3, r7, #8
 80015aa:	d400      	bmi.n	80015ae <__aeabi_dadd+0x3f6>
 80015ac:	e729      	b.n	8001402 <__aeabi_dadd+0x24a>
 80015ae:	2602      	movs	r6, #2
 80015b0:	4a9e      	ldr	r2, [pc, #632]	; (800182c <__aeabi_dadd+0x674>)
 80015b2:	0863      	lsrs	r3, r4, #1
 80015b4:	4017      	ands	r7, r2
 80015b6:	2201      	movs	r2, #1
 80015b8:	4014      	ands	r4, r2
 80015ba:	431c      	orrs	r4, r3
 80015bc:	07fb      	lsls	r3, r7, #31
 80015be:	431c      	orrs	r4, r3
 80015c0:	087f      	lsrs	r7, r7, #1
 80015c2:	e673      	b.n	80012ac <__aeabi_dadd+0xf4>
 80015c4:	4644      	mov	r4, r8
 80015c6:	3a20      	subs	r2, #32
 80015c8:	40d4      	lsrs	r4, r2
 80015ca:	4662      	mov	r2, ip
 80015cc:	2a20      	cmp	r2, #32
 80015ce:	d005      	beq.n	80015dc <__aeabi_dadd+0x424>
 80015d0:	4667      	mov	r7, ip
 80015d2:	2240      	movs	r2, #64	; 0x40
 80015d4:	1bd2      	subs	r2, r2, r7
 80015d6:	4647      	mov	r7, r8
 80015d8:	4097      	lsls	r7, r2
 80015da:	4339      	orrs	r1, r7
 80015dc:	1e4a      	subs	r2, r1, #1
 80015de:	4191      	sbcs	r1, r2
 80015e0:	4321      	orrs	r1, r4
 80015e2:	e635      	b.n	8001250 <__aeabi_dadd+0x98>
 80015e4:	4303      	orrs	r3, r0
 80015e6:	1e58      	subs	r0, r3, #1
 80015e8:	4183      	sbcs	r3, r0
 80015ea:	1acc      	subs	r4, r1, r3
 80015ec:	42a1      	cmp	r1, r4
 80015ee:	41bf      	sbcs	r7, r7
 80015f0:	4643      	mov	r3, r8
 80015f2:	427f      	negs	r7, r7
 80015f4:	4655      	mov	r5, sl
 80015f6:	464e      	mov	r6, r9
 80015f8:	1bdf      	subs	r7, r3, r7
 80015fa:	e62e      	b.n	800125a <__aeabi_dadd+0xa2>
 80015fc:	0002      	movs	r2, r0
 80015fe:	431a      	orrs	r2, r3
 8001600:	d100      	bne.n	8001604 <__aeabi_dadd+0x44c>
 8001602:	e0bd      	b.n	8001780 <__aeabi_dadd+0x5c8>
 8001604:	4662      	mov	r2, ip
 8001606:	4664      	mov	r4, ip
 8001608:	3a01      	subs	r2, #1
 800160a:	2c01      	cmp	r4, #1
 800160c:	d100      	bne.n	8001610 <__aeabi_dadd+0x458>
 800160e:	e0e5      	b.n	80017dc <__aeabi_dadd+0x624>
 8001610:	4c85      	ldr	r4, [pc, #532]	; (8001828 <__aeabi_dadd+0x670>)
 8001612:	45a4      	cmp	ip, r4
 8001614:	d058      	beq.n	80016c8 <__aeabi_dadd+0x510>
 8001616:	4694      	mov	ip, r2
 8001618:	e749      	b.n	80014ae <__aeabi_dadd+0x2f6>
 800161a:	4664      	mov	r4, ip
 800161c:	2220      	movs	r2, #32
 800161e:	1b12      	subs	r2, r2, r4
 8001620:	4644      	mov	r4, r8
 8001622:	4094      	lsls	r4, r2
 8001624:	000f      	movs	r7, r1
 8001626:	46a1      	mov	r9, r4
 8001628:	4664      	mov	r4, ip
 800162a:	4091      	lsls	r1, r2
 800162c:	40e7      	lsrs	r7, r4
 800162e:	464c      	mov	r4, r9
 8001630:	1e4a      	subs	r2, r1, #1
 8001632:	4191      	sbcs	r1, r2
 8001634:	433c      	orrs	r4, r7
 8001636:	4642      	mov	r2, r8
 8001638:	430c      	orrs	r4, r1
 800163a:	4661      	mov	r1, ip
 800163c:	40ca      	lsrs	r2, r1
 800163e:	1880      	adds	r0, r0, r2
 8001640:	e6f4      	b.n	800142c <__aeabi_dadd+0x274>
 8001642:	4c79      	ldr	r4, [pc, #484]	; (8001828 <__aeabi_dadd+0x670>)
 8001644:	42a2      	cmp	r2, r4
 8001646:	d100      	bne.n	800164a <__aeabi_dadd+0x492>
 8001648:	e6fd      	b.n	8001446 <__aeabi_dadd+0x28e>
 800164a:	1859      	adds	r1, r3, r1
 800164c:	4299      	cmp	r1, r3
 800164e:	419b      	sbcs	r3, r3
 8001650:	4440      	add	r0, r8
 8001652:	425f      	negs	r7, r3
 8001654:	19c7      	adds	r7, r0, r7
 8001656:	07fc      	lsls	r4, r7, #31
 8001658:	0849      	lsrs	r1, r1, #1
 800165a:	0016      	movs	r6, r2
 800165c:	430c      	orrs	r4, r1
 800165e:	087f      	lsrs	r7, r7, #1
 8001660:	e6cf      	b.n	8001402 <__aeabi_dadd+0x24a>
 8001662:	1acc      	subs	r4, r1, r3
 8001664:	42a1      	cmp	r1, r4
 8001666:	41bf      	sbcs	r7, r7
 8001668:	4643      	mov	r3, r8
 800166a:	427f      	negs	r7, r7
 800166c:	1a18      	subs	r0, r3, r0
 800166e:	4655      	mov	r5, sl
 8001670:	1bc7      	subs	r7, r0, r7
 8001672:	e5f7      	b.n	8001264 <__aeabi_dadd+0xac>
 8001674:	08c9      	lsrs	r1, r1, #3
 8001676:	077b      	lsls	r3, r7, #29
 8001678:	4655      	mov	r5, sl
 800167a:	430b      	orrs	r3, r1
 800167c:	08f8      	lsrs	r0, r7, #3
 800167e:	e6c8      	b.n	8001412 <__aeabi_dadd+0x25a>
 8001680:	2c00      	cmp	r4, #0
 8001682:	d000      	beq.n	8001686 <__aeabi_dadd+0x4ce>
 8001684:	e081      	b.n	800178a <__aeabi_dadd+0x5d2>
 8001686:	4643      	mov	r3, r8
 8001688:	430b      	orrs	r3, r1
 800168a:	d115      	bne.n	80016b8 <__aeabi_dadd+0x500>
 800168c:	2080      	movs	r0, #128	; 0x80
 800168e:	2500      	movs	r5, #0
 8001690:	0300      	lsls	r0, r0, #12
 8001692:	e6e3      	b.n	800145c <__aeabi_dadd+0x2a4>
 8001694:	1a5c      	subs	r4, r3, r1
 8001696:	42a3      	cmp	r3, r4
 8001698:	419b      	sbcs	r3, r3
 800169a:	1bc7      	subs	r7, r0, r7
 800169c:	425b      	negs	r3, r3
 800169e:	2601      	movs	r6, #1
 80016a0:	1aff      	subs	r7, r7, r3
 80016a2:	e5da      	b.n	800125a <__aeabi_dadd+0xa2>
 80016a4:	0742      	lsls	r2, r0, #29
 80016a6:	08db      	lsrs	r3, r3, #3
 80016a8:	4313      	orrs	r3, r2
 80016aa:	08c0      	lsrs	r0, r0, #3
 80016ac:	e6d2      	b.n	8001454 <__aeabi_dadd+0x29c>
 80016ae:	0742      	lsls	r2, r0, #29
 80016b0:	08db      	lsrs	r3, r3, #3
 80016b2:	4313      	orrs	r3, r2
 80016b4:	08c0      	lsrs	r0, r0, #3
 80016b6:	e6ac      	b.n	8001412 <__aeabi_dadd+0x25a>
 80016b8:	4643      	mov	r3, r8
 80016ba:	4642      	mov	r2, r8
 80016bc:	08c9      	lsrs	r1, r1, #3
 80016be:	075b      	lsls	r3, r3, #29
 80016c0:	4655      	mov	r5, sl
 80016c2:	430b      	orrs	r3, r1
 80016c4:	08d0      	lsrs	r0, r2, #3
 80016c6:	e6c5      	b.n	8001454 <__aeabi_dadd+0x29c>
 80016c8:	4643      	mov	r3, r8
 80016ca:	4642      	mov	r2, r8
 80016cc:	075b      	lsls	r3, r3, #29
 80016ce:	08c9      	lsrs	r1, r1, #3
 80016d0:	430b      	orrs	r3, r1
 80016d2:	08d0      	lsrs	r0, r2, #3
 80016d4:	e6be      	b.n	8001454 <__aeabi_dadd+0x29c>
 80016d6:	4303      	orrs	r3, r0
 80016d8:	001c      	movs	r4, r3
 80016da:	1e63      	subs	r3, r4, #1
 80016dc:	419c      	sbcs	r4, r3
 80016de:	e6fc      	b.n	80014da <__aeabi_dadd+0x322>
 80016e0:	0002      	movs	r2, r0
 80016e2:	3c20      	subs	r4, #32
 80016e4:	40e2      	lsrs	r2, r4
 80016e6:	0014      	movs	r4, r2
 80016e8:	4662      	mov	r2, ip
 80016ea:	2a20      	cmp	r2, #32
 80016ec:	d003      	beq.n	80016f6 <__aeabi_dadd+0x53e>
 80016ee:	2540      	movs	r5, #64	; 0x40
 80016f0:	1aad      	subs	r5, r5, r2
 80016f2:	40a8      	lsls	r0, r5
 80016f4:	4303      	orrs	r3, r0
 80016f6:	1e58      	subs	r0, r3, #1
 80016f8:	4183      	sbcs	r3, r0
 80016fa:	4323      	orrs	r3, r4
 80016fc:	e775      	b.n	80015ea <__aeabi_dadd+0x432>
 80016fe:	2a00      	cmp	r2, #0
 8001700:	d0e2      	beq.n	80016c8 <__aeabi_dadd+0x510>
 8001702:	003a      	movs	r2, r7
 8001704:	430a      	orrs	r2, r1
 8001706:	d0cd      	beq.n	80016a4 <__aeabi_dadd+0x4ec>
 8001708:	0742      	lsls	r2, r0, #29
 800170a:	08db      	lsrs	r3, r3, #3
 800170c:	4313      	orrs	r3, r2
 800170e:	2280      	movs	r2, #128	; 0x80
 8001710:	08c0      	lsrs	r0, r0, #3
 8001712:	0312      	lsls	r2, r2, #12
 8001714:	4210      	tst	r0, r2
 8001716:	d006      	beq.n	8001726 <__aeabi_dadd+0x56e>
 8001718:	08fc      	lsrs	r4, r7, #3
 800171a:	4214      	tst	r4, r2
 800171c:	d103      	bne.n	8001726 <__aeabi_dadd+0x56e>
 800171e:	0020      	movs	r0, r4
 8001720:	08cb      	lsrs	r3, r1, #3
 8001722:	077a      	lsls	r2, r7, #29
 8001724:	4313      	orrs	r3, r2
 8001726:	0f5a      	lsrs	r2, r3, #29
 8001728:	00db      	lsls	r3, r3, #3
 800172a:	0752      	lsls	r2, r2, #29
 800172c:	08db      	lsrs	r3, r3, #3
 800172e:	4313      	orrs	r3, r2
 8001730:	e690      	b.n	8001454 <__aeabi_dadd+0x29c>
 8001732:	4643      	mov	r3, r8
 8001734:	430b      	orrs	r3, r1
 8001736:	d100      	bne.n	800173a <__aeabi_dadd+0x582>
 8001738:	e709      	b.n	800154e <__aeabi_dadd+0x396>
 800173a:	4643      	mov	r3, r8
 800173c:	4642      	mov	r2, r8
 800173e:	08c9      	lsrs	r1, r1, #3
 8001740:	075b      	lsls	r3, r3, #29
 8001742:	4655      	mov	r5, sl
 8001744:	430b      	orrs	r3, r1
 8001746:	08d0      	lsrs	r0, r2, #3
 8001748:	e666      	b.n	8001418 <__aeabi_dadd+0x260>
 800174a:	1acc      	subs	r4, r1, r3
 800174c:	42a1      	cmp	r1, r4
 800174e:	4189      	sbcs	r1, r1
 8001750:	1a3f      	subs	r7, r7, r0
 8001752:	4249      	negs	r1, r1
 8001754:	4655      	mov	r5, sl
 8001756:	2601      	movs	r6, #1
 8001758:	1a7f      	subs	r7, r7, r1
 800175a:	e57e      	b.n	800125a <__aeabi_dadd+0xa2>
 800175c:	4642      	mov	r2, r8
 800175e:	1a5c      	subs	r4, r3, r1
 8001760:	1a87      	subs	r7, r0, r2
 8001762:	42a3      	cmp	r3, r4
 8001764:	4192      	sbcs	r2, r2
 8001766:	4252      	negs	r2, r2
 8001768:	1abf      	subs	r7, r7, r2
 800176a:	023a      	lsls	r2, r7, #8
 800176c:	d53d      	bpl.n	80017ea <__aeabi_dadd+0x632>
 800176e:	1acc      	subs	r4, r1, r3
 8001770:	42a1      	cmp	r1, r4
 8001772:	4189      	sbcs	r1, r1
 8001774:	4643      	mov	r3, r8
 8001776:	4249      	negs	r1, r1
 8001778:	1a1f      	subs	r7, r3, r0
 800177a:	4655      	mov	r5, sl
 800177c:	1a7f      	subs	r7, r7, r1
 800177e:	e595      	b.n	80012ac <__aeabi_dadd+0xf4>
 8001780:	077b      	lsls	r3, r7, #29
 8001782:	08c9      	lsrs	r1, r1, #3
 8001784:	430b      	orrs	r3, r1
 8001786:	08f8      	lsrs	r0, r7, #3
 8001788:	e643      	b.n	8001412 <__aeabi_dadd+0x25a>
 800178a:	4644      	mov	r4, r8
 800178c:	08db      	lsrs	r3, r3, #3
 800178e:	430c      	orrs	r4, r1
 8001790:	d130      	bne.n	80017f4 <__aeabi_dadd+0x63c>
 8001792:	0742      	lsls	r2, r0, #29
 8001794:	4313      	orrs	r3, r2
 8001796:	08c0      	lsrs	r0, r0, #3
 8001798:	e65c      	b.n	8001454 <__aeabi_dadd+0x29c>
 800179a:	077b      	lsls	r3, r7, #29
 800179c:	08c9      	lsrs	r1, r1, #3
 800179e:	430b      	orrs	r3, r1
 80017a0:	08f8      	lsrs	r0, r7, #3
 80017a2:	e639      	b.n	8001418 <__aeabi_dadd+0x260>
 80017a4:	185c      	adds	r4, r3, r1
 80017a6:	429c      	cmp	r4, r3
 80017a8:	419b      	sbcs	r3, r3
 80017aa:	4440      	add	r0, r8
 80017ac:	425b      	negs	r3, r3
 80017ae:	18c7      	adds	r7, r0, r3
 80017b0:	023b      	lsls	r3, r7, #8
 80017b2:	d400      	bmi.n	80017b6 <__aeabi_dadd+0x5fe>
 80017b4:	e625      	b.n	8001402 <__aeabi_dadd+0x24a>
 80017b6:	4b1d      	ldr	r3, [pc, #116]	; (800182c <__aeabi_dadd+0x674>)
 80017b8:	2601      	movs	r6, #1
 80017ba:	401f      	ands	r7, r3
 80017bc:	e621      	b.n	8001402 <__aeabi_dadd+0x24a>
 80017be:	0004      	movs	r4, r0
 80017c0:	3a20      	subs	r2, #32
 80017c2:	40d4      	lsrs	r4, r2
 80017c4:	4662      	mov	r2, ip
 80017c6:	2a20      	cmp	r2, #32
 80017c8:	d004      	beq.n	80017d4 <__aeabi_dadd+0x61c>
 80017ca:	2240      	movs	r2, #64	; 0x40
 80017cc:	4666      	mov	r6, ip
 80017ce:	1b92      	subs	r2, r2, r6
 80017d0:	4090      	lsls	r0, r2
 80017d2:	4303      	orrs	r3, r0
 80017d4:	1e5a      	subs	r2, r3, #1
 80017d6:	4193      	sbcs	r3, r2
 80017d8:	431c      	orrs	r4, r3
 80017da:	e67e      	b.n	80014da <__aeabi_dadd+0x322>
 80017dc:	185c      	adds	r4, r3, r1
 80017de:	428c      	cmp	r4, r1
 80017e0:	4189      	sbcs	r1, r1
 80017e2:	4440      	add	r0, r8
 80017e4:	4249      	negs	r1, r1
 80017e6:	1847      	adds	r7, r0, r1
 80017e8:	e6dd      	b.n	80015a6 <__aeabi_dadd+0x3ee>
 80017ea:	0023      	movs	r3, r4
 80017ec:	433b      	orrs	r3, r7
 80017ee:	d100      	bne.n	80017f2 <__aeabi_dadd+0x63a>
 80017f0:	e6ad      	b.n	800154e <__aeabi_dadd+0x396>
 80017f2:	e606      	b.n	8001402 <__aeabi_dadd+0x24a>
 80017f4:	0744      	lsls	r4, r0, #29
 80017f6:	4323      	orrs	r3, r4
 80017f8:	2480      	movs	r4, #128	; 0x80
 80017fa:	08c0      	lsrs	r0, r0, #3
 80017fc:	0324      	lsls	r4, r4, #12
 80017fe:	4220      	tst	r0, r4
 8001800:	d008      	beq.n	8001814 <__aeabi_dadd+0x65c>
 8001802:	4642      	mov	r2, r8
 8001804:	08d6      	lsrs	r6, r2, #3
 8001806:	4226      	tst	r6, r4
 8001808:	d104      	bne.n	8001814 <__aeabi_dadd+0x65c>
 800180a:	4655      	mov	r5, sl
 800180c:	0030      	movs	r0, r6
 800180e:	08cb      	lsrs	r3, r1, #3
 8001810:	0751      	lsls	r1, r2, #29
 8001812:	430b      	orrs	r3, r1
 8001814:	0f5a      	lsrs	r2, r3, #29
 8001816:	00db      	lsls	r3, r3, #3
 8001818:	08db      	lsrs	r3, r3, #3
 800181a:	0752      	lsls	r2, r2, #29
 800181c:	4313      	orrs	r3, r2
 800181e:	e619      	b.n	8001454 <__aeabi_dadd+0x29c>
 8001820:	2300      	movs	r3, #0
 8001822:	4a01      	ldr	r2, [pc, #4]	; (8001828 <__aeabi_dadd+0x670>)
 8001824:	001f      	movs	r7, r3
 8001826:	e55e      	b.n	80012e6 <__aeabi_dadd+0x12e>
 8001828:	000007ff 	.word	0x000007ff
 800182c:	ff7fffff 	.word	0xff7fffff

08001830 <__aeabi_ddiv>:
 8001830:	b5f0      	push	{r4, r5, r6, r7, lr}
 8001832:	4657      	mov	r7, sl
 8001834:	464e      	mov	r6, r9
 8001836:	4645      	mov	r5, r8
 8001838:	46de      	mov	lr, fp
 800183a:	b5e0      	push	{r5, r6, r7, lr}
 800183c:	4681      	mov	r9, r0
 800183e:	0005      	movs	r5, r0
 8001840:	030c      	lsls	r4, r1, #12
 8001842:	0048      	lsls	r0, r1, #1
 8001844:	4692      	mov	sl, r2
 8001846:	001f      	movs	r7, r3
 8001848:	b085      	sub	sp, #20
 800184a:	0b24      	lsrs	r4, r4, #12
 800184c:	0d40      	lsrs	r0, r0, #21
 800184e:	0fce      	lsrs	r6, r1, #31
 8001850:	2800      	cmp	r0, #0
 8001852:	d100      	bne.n	8001856 <__aeabi_ddiv+0x26>
 8001854:	e156      	b.n	8001b04 <__aeabi_ddiv+0x2d4>
 8001856:	4bd4      	ldr	r3, [pc, #848]	; (8001ba8 <__aeabi_ddiv+0x378>)
 8001858:	4298      	cmp	r0, r3
 800185a:	d100      	bne.n	800185e <__aeabi_ddiv+0x2e>
 800185c:	e172      	b.n	8001b44 <__aeabi_ddiv+0x314>
 800185e:	0f6b      	lsrs	r3, r5, #29
 8001860:	00e4      	lsls	r4, r4, #3
 8001862:	431c      	orrs	r4, r3
 8001864:	2380      	movs	r3, #128	; 0x80
 8001866:	041b      	lsls	r3, r3, #16
 8001868:	4323      	orrs	r3, r4
 800186a:	4698      	mov	r8, r3
 800186c:	4bcf      	ldr	r3, [pc, #828]	; (8001bac <__aeabi_ddiv+0x37c>)
 800186e:	00ed      	lsls	r5, r5, #3
 8001870:	469b      	mov	fp, r3
 8001872:	2300      	movs	r3, #0
 8001874:	4699      	mov	r9, r3
 8001876:	4483      	add	fp, r0
 8001878:	9300      	str	r3, [sp, #0]
 800187a:	033c      	lsls	r4, r7, #12
 800187c:	007b      	lsls	r3, r7, #1
 800187e:	4650      	mov	r0, sl
 8001880:	0b24      	lsrs	r4, r4, #12
 8001882:	0d5b      	lsrs	r3, r3, #21
 8001884:	0fff      	lsrs	r7, r7, #31
 8001886:	2b00      	cmp	r3, #0
 8001888:	d100      	bne.n	800188c <__aeabi_ddiv+0x5c>
 800188a:	e11f      	b.n	8001acc <__aeabi_ddiv+0x29c>
 800188c:	4ac6      	ldr	r2, [pc, #792]	; (8001ba8 <__aeabi_ddiv+0x378>)
 800188e:	4293      	cmp	r3, r2
 8001890:	d100      	bne.n	8001894 <__aeabi_ddiv+0x64>
 8001892:	e162      	b.n	8001b5a <__aeabi_ddiv+0x32a>
 8001894:	49c5      	ldr	r1, [pc, #788]	; (8001bac <__aeabi_ddiv+0x37c>)
 8001896:	0f42      	lsrs	r2, r0, #29
 8001898:	468c      	mov	ip, r1
 800189a:	00e4      	lsls	r4, r4, #3
 800189c:	4659      	mov	r1, fp
 800189e:	4314      	orrs	r4, r2
 80018a0:	2280      	movs	r2, #128	; 0x80
 80018a2:	4463      	add	r3, ip
 80018a4:	0412      	lsls	r2, r2, #16
 80018a6:	1acb      	subs	r3, r1, r3
 80018a8:	4314      	orrs	r4, r2
 80018aa:	469b      	mov	fp, r3
 80018ac:	00c2      	lsls	r2, r0, #3
 80018ae:	2000      	movs	r0, #0
 80018b0:	0033      	movs	r3, r6
 80018b2:	407b      	eors	r3, r7
 80018b4:	469a      	mov	sl, r3
 80018b6:	464b      	mov	r3, r9
 80018b8:	2b0f      	cmp	r3, #15
 80018ba:	d827      	bhi.n	800190c <__aeabi_ddiv+0xdc>
 80018bc:	49bc      	ldr	r1, [pc, #752]	; (8001bb0 <__aeabi_ddiv+0x380>)
 80018be:	009b      	lsls	r3, r3, #2
 80018c0:	58cb      	ldr	r3, [r1, r3]
 80018c2:	469f      	mov	pc, r3
 80018c4:	46b2      	mov	sl, r6
 80018c6:	9b00      	ldr	r3, [sp, #0]
 80018c8:	2b02      	cmp	r3, #2
 80018ca:	d016      	beq.n	80018fa <__aeabi_ddiv+0xca>
 80018cc:	2b03      	cmp	r3, #3
 80018ce:	d100      	bne.n	80018d2 <__aeabi_ddiv+0xa2>
 80018d0:	e28e      	b.n	8001df0 <__aeabi_ddiv+0x5c0>
 80018d2:	2b01      	cmp	r3, #1
 80018d4:	d000      	beq.n	80018d8 <__aeabi_ddiv+0xa8>
 80018d6:	e0d9      	b.n	8001a8c <__aeabi_ddiv+0x25c>
 80018d8:	2300      	movs	r3, #0
 80018da:	2400      	movs	r4, #0
 80018dc:	2500      	movs	r5, #0
 80018de:	4652      	mov	r2, sl
 80018e0:	051b      	lsls	r3, r3, #20
 80018e2:	4323      	orrs	r3, r4
 80018e4:	07d2      	lsls	r2, r2, #31
 80018e6:	4313      	orrs	r3, r2
 80018e8:	0028      	movs	r0, r5
 80018ea:	0019      	movs	r1, r3
 80018ec:	b005      	add	sp, #20
 80018ee:	bcf0      	pop	{r4, r5, r6, r7}
 80018f0:	46bb      	mov	fp, r7
 80018f2:	46b2      	mov	sl, r6
 80018f4:	46a9      	mov	r9, r5
 80018f6:	46a0      	mov	r8, r4
 80018f8:	bdf0      	pop	{r4, r5, r6, r7, pc}
 80018fa:	2400      	movs	r4, #0
 80018fc:	2500      	movs	r5, #0
 80018fe:	4baa      	ldr	r3, [pc, #680]	; (8001ba8 <__aeabi_ddiv+0x378>)
 8001900:	e7ed      	b.n	80018de <__aeabi_ddiv+0xae>
 8001902:	46ba      	mov	sl, r7
 8001904:	46a0      	mov	r8, r4
 8001906:	0015      	movs	r5, r2
 8001908:	9000      	str	r0, [sp, #0]
 800190a:	e7dc      	b.n	80018c6 <__aeabi_ddiv+0x96>
 800190c:	4544      	cmp	r4, r8
 800190e:	d200      	bcs.n	8001912 <__aeabi_ddiv+0xe2>
 8001910:	e1c7      	b.n	8001ca2 <__aeabi_ddiv+0x472>
 8001912:	d100      	bne.n	8001916 <__aeabi_ddiv+0xe6>
 8001914:	e1c2      	b.n	8001c9c <__aeabi_ddiv+0x46c>
 8001916:	2301      	movs	r3, #1
 8001918:	425b      	negs	r3, r3
 800191a:	469c      	mov	ip, r3
 800191c:	002e      	movs	r6, r5
 800191e:	4640      	mov	r0, r8
 8001920:	2500      	movs	r5, #0
 8001922:	44e3      	add	fp, ip
 8001924:	0223      	lsls	r3, r4, #8
 8001926:	0e14      	lsrs	r4, r2, #24
 8001928:	431c      	orrs	r4, r3
 800192a:	0c1b      	lsrs	r3, r3, #16
 800192c:	4699      	mov	r9, r3
 800192e:	0423      	lsls	r3, r4, #16
 8001930:	0c1f      	lsrs	r7, r3, #16
 8001932:	0212      	lsls	r2, r2, #8
 8001934:	4649      	mov	r1, r9
 8001936:	9200      	str	r2, [sp, #0]
 8001938:	9701      	str	r7, [sp, #4]
 800193a:	f7fe fc85 	bl	8000248 <__aeabi_uidivmod>
 800193e:	0002      	movs	r2, r0
 8001940:	437a      	muls	r2, r7
 8001942:	040b      	lsls	r3, r1, #16
 8001944:	0c31      	lsrs	r1, r6, #16
 8001946:	4680      	mov	r8, r0
 8001948:	4319      	orrs	r1, r3
 800194a:	428a      	cmp	r2, r1
 800194c:	d907      	bls.n	800195e <__aeabi_ddiv+0x12e>
 800194e:	2301      	movs	r3, #1
 8001950:	425b      	negs	r3, r3
 8001952:	469c      	mov	ip, r3
 8001954:	1909      	adds	r1, r1, r4
 8001956:	44e0      	add	r8, ip
 8001958:	428c      	cmp	r4, r1
 800195a:	d800      	bhi.n	800195e <__aeabi_ddiv+0x12e>
 800195c:	e207      	b.n	8001d6e <__aeabi_ddiv+0x53e>
 800195e:	1a88      	subs	r0, r1, r2
 8001960:	4649      	mov	r1, r9
 8001962:	f7fe fc71 	bl	8000248 <__aeabi_uidivmod>
 8001966:	0409      	lsls	r1, r1, #16
 8001968:	468c      	mov	ip, r1
 800196a:	0431      	lsls	r1, r6, #16
 800196c:	4666      	mov	r6, ip
 800196e:	9a01      	ldr	r2, [sp, #4]
 8001970:	0c09      	lsrs	r1, r1, #16
 8001972:	4342      	muls	r2, r0
 8001974:	0003      	movs	r3, r0
 8001976:	4331      	orrs	r1, r6
 8001978:	428a      	cmp	r2, r1
 800197a:	d904      	bls.n	8001986 <__aeabi_ddiv+0x156>
 800197c:	1909      	adds	r1, r1, r4
 800197e:	3b01      	subs	r3, #1
 8001980:	428c      	cmp	r4, r1
 8001982:	d800      	bhi.n	8001986 <__aeabi_ddiv+0x156>
 8001984:	e1ed      	b.n	8001d62 <__aeabi_ddiv+0x532>
 8001986:	1a88      	subs	r0, r1, r2
 8001988:	4642      	mov	r2, r8
 800198a:	0412      	lsls	r2, r2, #16
 800198c:	431a      	orrs	r2, r3
 800198e:	4690      	mov	r8, r2
 8001990:	4641      	mov	r1, r8
 8001992:	9b00      	ldr	r3, [sp, #0]
 8001994:	040e      	lsls	r6, r1, #16
 8001996:	0c1b      	lsrs	r3, r3, #16
 8001998:	001f      	movs	r7, r3
 800199a:	9302      	str	r3, [sp, #8]
 800199c:	9b00      	ldr	r3, [sp, #0]
 800199e:	0c36      	lsrs	r6, r6, #16
 80019a0:	041b      	lsls	r3, r3, #16
 80019a2:	0c19      	lsrs	r1, r3, #16
 80019a4:	000b      	movs	r3, r1
 80019a6:	4373      	muls	r3, r6
 80019a8:	0c12      	lsrs	r2, r2, #16
 80019aa:	437e      	muls	r6, r7
 80019ac:	9103      	str	r1, [sp, #12]
 80019ae:	4351      	muls	r1, r2
 80019b0:	437a      	muls	r2, r7
 80019b2:	0c1f      	lsrs	r7, r3, #16
 80019b4:	46bc      	mov	ip, r7
 80019b6:	1876      	adds	r6, r6, r1
 80019b8:	4466      	add	r6, ip
 80019ba:	42b1      	cmp	r1, r6
 80019bc:	d903      	bls.n	80019c6 <__aeabi_ddiv+0x196>
 80019be:	2180      	movs	r1, #128	; 0x80
 80019c0:	0249      	lsls	r1, r1, #9
 80019c2:	468c      	mov	ip, r1
 80019c4:	4462      	add	r2, ip
 80019c6:	0c31      	lsrs	r1, r6, #16
 80019c8:	188a      	adds	r2, r1, r2
 80019ca:	0431      	lsls	r1, r6, #16
 80019cc:	041e      	lsls	r6, r3, #16
 80019ce:	0c36      	lsrs	r6, r6, #16
 80019d0:	198e      	adds	r6, r1, r6
 80019d2:	4290      	cmp	r0, r2
 80019d4:	d302      	bcc.n	80019dc <__aeabi_ddiv+0x1ac>
 80019d6:	d112      	bne.n	80019fe <__aeabi_ddiv+0x1ce>
 80019d8:	42b5      	cmp	r5, r6
 80019da:	d210      	bcs.n	80019fe <__aeabi_ddiv+0x1ce>
 80019dc:	4643      	mov	r3, r8
 80019de:	1e59      	subs	r1, r3, #1
 80019e0:	9b00      	ldr	r3, [sp, #0]
 80019e2:	469c      	mov	ip, r3
 80019e4:	4465      	add	r5, ip
 80019e6:	001f      	movs	r7, r3
 80019e8:	429d      	cmp	r5, r3
 80019ea:	419b      	sbcs	r3, r3
 80019ec:	425b      	negs	r3, r3
 80019ee:	191b      	adds	r3, r3, r4
 80019f0:	18c0      	adds	r0, r0, r3
 80019f2:	4284      	cmp	r4, r0
 80019f4:	d200      	bcs.n	80019f8 <__aeabi_ddiv+0x1c8>
 80019f6:	e1a0      	b.n	8001d3a <__aeabi_ddiv+0x50a>
 80019f8:	d100      	bne.n	80019fc <__aeabi_ddiv+0x1cc>
 80019fa:	e19b      	b.n	8001d34 <__aeabi_ddiv+0x504>
 80019fc:	4688      	mov	r8, r1
 80019fe:	1bae      	subs	r6, r5, r6
 8001a00:	42b5      	cmp	r5, r6
 8001a02:	41ad      	sbcs	r5, r5
 8001a04:	1a80      	subs	r0, r0, r2
 8001a06:	426d      	negs	r5, r5
 8001a08:	1b40      	subs	r0, r0, r5
 8001a0a:	4284      	cmp	r4, r0
 8001a0c:	d100      	bne.n	8001a10 <__aeabi_ddiv+0x1e0>
 8001a0e:	e1d5      	b.n	8001dbc <__aeabi_ddiv+0x58c>
 8001a10:	4649      	mov	r1, r9
 8001a12:	f7fe fc19 	bl	8000248 <__aeabi_uidivmod>
 8001a16:	9a01      	ldr	r2, [sp, #4]
 8001a18:	040b      	lsls	r3, r1, #16
 8001a1a:	4342      	muls	r2, r0
 8001a1c:	0c31      	lsrs	r1, r6, #16
 8001a1e:	0005      	movs	r5, r0
 8001a20:	4319      	orrs	r1, r3
 8001a22:	428a      	cmp	r2, r1
 8001a24:	d900      	bls.n	8001a28 <__aeabi_ddiv+0x1f8>
 8001a26:	e16c      	b.n	8001d02 <__aeabi_ddiv+0x4d2>
 8001a28:	1a88      	subs	r0, r1, r2
 8001a2a:	4649      	mov	r1, r9
 8001a2c:	f7fe fc0c 	bl	8000248 <__aeabi_uidivmod>
 8001a30:	9a01      	ldr	r2, [sp, #4]
 8001a32:	0436      	lsls	r6, r6, #16
 8001a34:	4342      	muls	r2, r0
 8001a36:	0409      	lsls	r1, r1, #16
 8001a38:	0c36      	lsrs	r6, r6, #16
 8001a3a:	0003      	movs	r3, r0
 8001a3c:	430e      	orrs	r6, r1
 8001a3e:	42b2      	cmp	r2, r6
 8001a40:	d900      	bls.n	8001a44 <__aeabi_ddiv+0x214>
 8001a42:	e153      	b.n	8001cec <__aeabi_ddiv+0x4bc>
 8001a44:	9803      	ldr	r0, [sp, #12]
 8001a46:	1ab6      	subs	r6, r6, r2
 8001a48:	0002      	movs	r2, r0
 8001a4a:	042d      	lsls	r5, r5, #16
 8001a4c:	431d      	orrs	r5, r3
 8001a4e:	9f02      	ldr	r7, [sp, #8]
 8001a50:	042b      	lsls	r3, r5, #16
 8001a52:	0c1b      	lsrs	r3, r3, #16
 8001a54:	435a      	muls	r2, r3
 8001a56:	437b      	muls	r3, r7
 8001a58:	469c      	mov	ip, r3
 8001a5a:	0c29      	lsrs	r1, r5, #16
 8001a5c:	4348      	muls	r0, r1
 8001a5e:	0c13      	lsrs	r3, r2, #16
 8001a60:	4484      	add	ip, r0
 8001a62:	4463      	add	r3, ip
 8001a64:	4379      	muls	r1, r7
 8001a66:	4298      	cmp	r0, r3
 8001a68:	d903      	bls.n	8001a72 <__aeabi_ddiv+0x242>
 8001a6a:	2080      	movs	r0, #128	; 0x80
 8001a6c:	0240      	lsls	r0, r0, #9
 8001a6e:	4684      	mov	ip, r0
 8001a70:	4461      	add	r1, ip
 8001a72:	0c18      	lsrs	r0, r3, #16
 8001a74:	0412      	lsls	r2, r2, #16
 8001a76:	041b      	lsls	r3, r3, #16
 8001a78:	0c12      	lsrs	r2, r2, #16
 8001a7a:	1841      	adds	r1, r0, r1
 8001a7c:	189b      	adds	r3, r3, r2
 8001a7e:	428e      	cmp	r6, r1
 8001a80:	d200      	bcs.n	8001a84 <__aeabi_ddiv+0x254>
 8001a82:	e0ff      	b.n	8001c84 <__aeabi_ddiv+0x454>
 8001a84:	d100      	bne.n	8001a88 <__aeabi_ddiv+0x258>
 8001a86:	e0fa      	b.n	8001c7e <__aeabi_ddiv+0x44e>
 8001a88:	2301      	movs	r3, #1
 8001a8a:	431d      	orrs	r5, r3
 8001a8c:	4a49      	ldr	r2, [pc, #292]	; (8001bb4 <__aeabi_ddiv+0x384>)
 8001a8e:	445a      	add	r2, fp
 8001a90:	2a00      	cmp	r2, #0
 8001a92:	dc00      	bgt.n	8001a96 <__aeabi_ddiv+0x266>
 8001a94:	e0aa      	b.n	8001bec <__aeabi_ddiv+0x3bc>
 8001a96:	076b      	lsls	r3, r5, #29
 8001a98:	d000      	beq.n	8001a9c <__aeabi_ddiv+0x26c>
 8001a9a:	e13d      	b.n	8001d18 <__aeabi_ddiv+0x4e8>
 8001a9c:	08ed      	lsrs	r5, r5, #3
 8001a9e:	4643      	mov	r3, r8
 8001aa0:	01db      	lsls	r3, r3, #7
 8001aa2:	d506      	bpl.n	8001ab2 <__aeabi_ddiv+0x282>
 8001aa4:	4642      	mov	r2, r8
 8001aa6:	4b44      	ldr	r3, [pc, #272]	; (8001bb8 <__aeabi_ddiv+0x388>)
 8001aa8:	401a      	ands	r2, r3
 8001aaa:	4690      	mov	r8, r2
 8001aac:	2280      	movs	r2, #128	; 0x80
 8001aae:	00d2      	lsls	r2, r2, #3
 8001ab0:	445a      	add	r2, fp
 8001ab2:	4b42      	ldr	r3, [pc, #264]	; (8001bbc <__aeabi_ddiv+0x38c>)
 8001ab4:	429a      	cmp	r2, r3
 8001ab6:	dd00      	ble.n	8001aba <__aeabi_ddiv+0x28a>
 8001ab8:	e71f      	b.n	80018fa <__aeabi_ddiv+0xca>
 8001aba:	4643      	mov	r3, r8
 8001abc:	075b      	lsls	r3, r3, #29
 8001abe:	431d      	orrs	r5, r3
 8001ac0:	4643      	mov	r3, r8
 8001ac2:	0552      	lsls	r2, r2, #21
 8001ac4:	025c      	lsls	r4, r3, #9
 8001ac6:	0b24      	lsrs	r4, r4, #12
 8001ac8:	0d53      	lsrs	r3, r2, #21
 8001aca:	e708      	b.n	80018de <__aeabi_ddiv+0xae>
 8001acc:	4652      	mov	r2, sl
 8001ace:	4322      	orrs	r2, r4
 8001ad0:	d100      	bne.n	8001ad4 <__aeabi_ddiv+0x2a4>
 8001ad2:	e07b      	b.n	8001bcc <__aeabi_ddiv+0x39c>
 8001ad4:	2c00      	cmp	r4, #0
 8001ad6:	d100      	bne.n	8001ada <__aeabi_ddiv+0x2aa>
 8001ad8:	e0fa      	b.n	8001cd0 <__aeabi_ddiv+0x4a0>
 8001ada:	0020      	movs	r0, r4
 8001adc:	f001 fa22 	bl	8002f24 <__clzsi2>
 8001ae0:	0002      	movs	r2, r0
 8001ae2:	3a0b      	subs	r2, #11
 8001ae4:	231d      	movs	r3, #29
 8001ae6:	0001      	movs	r1, r0
 8001ae8:	1a9b      	subs	r3, r3, r2
 8001aea:	4652      	mov	r2, sl
 8001aec:	3908      	subs	r1, #8
 8001aee:	40da      	lsrs	r2, r3
 8001af0:	408c      	lsls	r4, r1
 8001af2:	4314      	orrs	r4, r2
 8001af4:	4652      	mov	r2, sl
 8001af6:	408a      	lsls	r2, r1
 8001af8:	4b31      	ldr	r3, [pc, #196]	; (8001bc0 <__aeabi_ddiv+0x390>)
 8001afa:	4458      	add	r0, fp
 8001afc:	469b      	mov	fp, r3
 8001afe:	4483      	add	fp, r0
 8001b00:	2000      	movs	r0, #0
 8001b02:	e6d5      	b.n	80018b0 <__aeabi_ddiv+0x80>
 8001b04:	464b      	mov	r3, r9
 8001b06:	4323      	orrs	r3, r4
 8001b08:	4698      	mov	r8, r3
 8001b0a:	d044      	beq.n	8001b96 <__aeabi_ddiv+0x366>
 8001b0c:	2c00      	cmp	r4, #0
 8001b0e:	d100      	bne.n	8001b12 <__aeabi_ddiv+0x2e2>
 8001b10:	e0ce      	b.n	8001cb0 <__aeabi_ddiv+0x480>
 8001b12:	0020      	movs	r0, r4
 8001b14:	f001 fa06 	bl	8002f24 <__clzsi2>
 8001b18:	0001      	movs	r1, r0
 8001b1a:	0002      	movs	r2, r0
 8001b1c:	390b      	subs	r1, #11
 8001b1e:	231d      	movs	r3, #29
 8001b20:	1a5b      	subs	r3, r3, r1
 8001b22:	4649      	mov	r1, r9
 8001b24:	0010      	movs	r0, r2
 8001b26:	40d9      	lsrs	r1, r3
 8001b28:	3808      	subs	r0, #8
 8001b2a:	4084      	lsls	r4, r0
 8001b2c:	000b      	movs	r3, r1
 8001b2e:	464d      	mov	r5, r9
 8001b30:	4323      	orrs	r3, r4
 8001b32:	4698      	mov	r8, r3
 8001b34:	4085      	lsls	r5, r0
 8001b36:	4823      	ldr	r0, [pc, #140]	; (8001bc4 <__aeabi_ddiv+0x394>)
 8001b38:	1a83      	subs	r3, r0, r2
 8001b3a:	469b      	mov	fp, r3
 8001b3c:	2300      	movs	r3, #0
 8001b3e:	4699      	mov	r9, r3
 8001b40:	9300      	str	r3, [sp, #0]
 8001b42:	e69a      	b.n	800187a <__aeabi_ddiv+0x4a>
 8001b44:	464b      	mov	r3, r9
 8001b46:	4323      	orrs	r3, r4
 8001b48:	4698      	mov	r8, r3
 8001b4a:	d11d      	bne.n	8001b88 <__aeabi_ddiv+0x358>
 8001b4c:	2308      	movs	r3, #8
 8001b4e:	4699      	mov	r9, r3
 8001b50:	3b06      	subs	r3, #6
 8001b52:	2500      	movs	r5, #0
 8001b54:	4683      	mov	fp, r0
 8001b56:	9300      	str	r3, [sp, #0]
 8001b58:	e68f      	b.n	800187a <__aeabi_ddiv+0x4a>
 8001b5a:	4652      	mov	r2, sl
 8001b5c:	4322      	orrs	r2, r4
 8001b5e:	d109      	bne.n	8001b74 <__aeabi_ddiv+0x344>
 8001b60:	2302      	movs	r3, #2
 8001b62:	4649      	mov	r1, r9
 8001b64:	4319      	orrs	r1, r3
 8001b66:	4b18      	ldr	r3, [pc, #96]	; (8001bc8 <__aeabi_ddiv+0x398>)
 8001b68:	4689      	mov	r9, r1
 8001b6a:	469c      	mov	ip, r3
 8001b6c:	2400      	movs	r4, #0
 8001b6e:	2002      	movs	r0, #2
 8001b70:	44e3      	add	fp, ip
 8001b72:	e69d      	b.n	80018b0 <__aeabi_ddiv+0x80>
 8001b74:	2303      	movs	r3, #3
 8001b76:	464a      	mov	r2, r9
 8001b78:	431a      	orrs	r2, r3
 8001b7a:	4b13      	ldr	r3, [pc, #76]	; (8001bc8 <__aeabi_ddiv+0x398>)
 8001b7c:	4691      	mov	r9, r2
 8001b7e:	469c      	mov	ip, r3
 8001b80:	4652      	mov	r2, sl
 8001b82:	2003      	movs	r0, #3
 8001b84:	44e3      	add	fp, ip
 8001b86:	e693      	b.n	80018b0 <__aeabi_ddiv+0x80>
 8001b88:	230c      	movs	r3, #12
 8001b8a:	4699      	mov	r9, r3
 8001b8c:	3b09      	subs	r3, #9
 8001b8e:	46a0      	mov	r8, r4
 8001b90:	4683      	mov	fp, r0
 8001b92:	9300      	str	r3, [sp, #0]
 8001b94:	e671      	b.n	800187a <__aeabi_ddiv+0x4a>
 8001b96:	2304      	movs	r3, #4
 8001b98:	4699      	mov	r9, r3
 8001b9a:	2300      	movs	r3, #0
 8001b9c:	469b      	mov	fp, r3
 8001b9e:	3301      	adds	r3, #1
 8001ba0:	2500      	movs	r5, #0
 8001ba2:	9300      	str	r3, [sp, #0]
 8001ba4:	e669      	b.n	800187a <__aeabi_ddiv+0x4a>
 8001ba6:	46c0      	nop			; (mov r8, r8)
 8001ba8:	000007ff 	.word	0x000007ff
 8001bac:	fffffc01 	.word	0xfffffc01
 8001bb0:	08009158 	.word	0x08009158
 8001bb4:	000003ff 	.word	0x000003ff
 8001bb8:	feffffff 	.word	0xfeffffff
 8001bbc:	000007fe 	.word	0x000007fe
 8001bc0:	000003f3 	.word	0x000003f3
 8001bc4:	fffffc0d 	.word	0xfffffc0d
 8001bc8:	fffff801 	.word	0xfffff801
 8001bcc:	4649      	mov	r1, r9
 8001bce:	2301      	movs	r3, #1
 8001bd0:	4319      	orrs	r1, r3
 8001bd2:	4689      	mov	r9, r1
 8001bd4:	2400      	movs	r4, #0
 8001bd6:	2001      	movs	r0, #1
 8001bd8:	e66a      	b.n	80018b0 <__aeabi_ddiv+0x80>
 8001bda:	2300      	movs	r3, #0
 8001bdc:	2480      	movs	r4, #128	; 0x80
 8001bde:	469a      	mov	sl, r3
 8001be0:	2500      	movs	r5, #0
 8001be2:	4b8a      	ldr	r3, [pc, #552]	; (8001e0c <__aeabi_ddiv+0x5dc>)
 8001be4:	0324      	lsls	r4, r4, #12
 8001be6:	e67a      	b.n	80018de <__aeabi_ddiv+0xae>
 8001be8:	2501      	movs	r5, #1
 8001bea:	426d      	negs	r5, r5
 8001bec:	2301      	movs	r3, #1
 8001bee:	1a9b      	subs	r3, r3, r2
 8001bf0:	2b38      	cmp	r3, #56	; 0x38
 8001bf2:	dd00      	ble.n	8001bf6 <__aeabi_ddiv+0x3c6>
 8001bf4:	e670      	b.n	80018d8 <__aeabi_ddiv+0xa8>
 8001bf6:	2b1f      	cmp	r3, #31
 8001bf8:	dc00      	bgt.n	8001bfc <__aeabi_ddiv+0x3cc>
 8001bfa:	e0bf      	b.n	8001d7c <__aeabi_ddiv+0x54c>
 8001bfc:	211f      	movs	r1, #31
 8001bfe:	4249      	negs	r1, r1
 8001c00:	1a8a      	subs	r2, r1, r2
 8001c02:	4641      	mov	r1, r8
 8001c04:	40d1      	lsrs	r1, r2
 8001c06:	000a      	movs	r2, r1
 8001c08:	2b20      	cmp	r3, #32
 8001c0a:	d004      	beq.n	8001c16 <__aeabi_ddiv+0x3e6>
 8001c0c:	4641      	mov	r1, r8
 8001c0e:	4b80      	ldr	r3, [pc, #512]	; (8001e10 <__aeabi_ddiv+0x5e0>)
 8001c10:	445b      	add	r3, fp
 8001c12:	4099      	lsls	r1, r3
 8001c14:	430d      	orrs	r5, r1
 8001c16:	1e6b      	subs	r3, r5, #1
 8001c18:	419d      	sbcs	r5, r3
 8001c1a:	2307      	movs	r3, #7
 8001c1c:	432a      	orrs	r2, r5
 8001c1e:	001d      	movs	r5, r3
 8001c20:	2400      	movs	r4, #0
 8001c22:	4015      	ands	r5, r2
 8001c24:	4213      	tst	r3, r2
 8001c26:	d100      	bne.n	8001c2a <__aeabi_ddiv+0x3fa>
 8001c28:	e0d4      	b.n	8001dd4 <__aeabi_ddiv+0x5a4>
 8001c2a:	210f      	movs	r1, #15
 8001c2c:	2300      	movs	r3, #0
 8001c2e:	4011      	ands	r1, r2
 8001c30:	2904      	cmp	r1, #4
 8001c32:	d100      	bne.n	8001c36 <__aeabi_ddiv+0x406>
 8001c34:	e0cb      	b.n	8001dce <__aeabi_ddiv+0x59e>
 8001c36:	1d11      	adds	r1, r2, #4
 8001c38:	4291      	cmp	r1, r2
 8001c3a:	4192      	sbcs	r2, r2
 8001c3c:	4252      	negs	r2, r2
 8001c3e:	189b      	adds	r3, r3, r2
 8001c40:	000a      	movs	r2, r1
 8001c42:	0219      	lsls	r1, r3, #8
 8001c44:	d400      	bmi.n	8001c48 <__aeabi_ddiv+0x418>
 8001c46:	e0c2      	b.n	8001dce <__aeabi_ddiv+0x59e>
 8001c48:	2301      	movs	r3, #1
 8001c4a:	2400      	movs	r4, #0
 8001c4c:	2500      	movs	r5, #0
 8001c4e:	e646      	b.n	80018de <__aeabi_ddiv+0xae>
 8001c50:	2380      	movs	r3, #128	; 0x80
 8001c52:	4641      	mov	r1, r8
 8001c54:	031b      	lsls	r3, r3, #12
 8001c56:	4219      	tst	r1, r3
 8001c58:	d008      	beq.n	8001c6c <__aeabi_ddiv+0x43c>
 8001c5a:	421c      	tst	r4, r3
 8001c5c:	d106      	bne.n	8001c6c <__aeabi_ddiv+0x43c>
 8001c5e:	431c      	orrs	r4, r3
 8001c60:	0324      	lsls	r4, r4, #12
 8001c62:	46ba      	mov	sl, r7
 8001c64:	0015      	movs	r5, r2
 8001c66:	4b69      	ldr	r3, [pc, #420]	; (8001e0c <__aeabi_ddiv+0x5dc>)
 8001c68:	0b24      	lsrs	r4, r4, #12
 8001c6a:	e638      	b.n	80018de <__aeabi_ddiv+0xae>
 8001c6c:	2480      	movs	r4, #128	; 0x80
 8001c6e:	4643      	mov	r3, r8
 8001c70:	0324      	lsls	r4, r4, #12
 8001c72:	431c      	orrs	r4, r3
 8001c74:	0324      	lsls	r4, r4, #12
 8001c76:	46b2      	mov	sl, r6
 8001c78:	4b64      	ldr	r3, [pc, #400]	; (8001e0c <__aeabi_ddiv+0x5dc>)
 8001c7a:	0b24      	lsrs	r4, r4, #12
 8001c7c:	e62f      	b.n	80018de <__aeabi_ddiv+0xae>
 8001c7e:	2b00      	cmp	r3, #0
 8001c80:	d100      	bne.n	8001c84 <__aeabi_ddiv+0x454>
 8001c82:	e703      	b.n	8001a8c <__aeabi_ddiv+0x25c>
 8001c84:	19a6      	adds	r6, r4, r6
 8001c86:	1e68      	subs	r0, r5, #1
 8001c88:	42a6      	cmp	r6, r4
 8001c8a:	d200      	bcs.n	8001c8e <__aeabi_ddiv+0x45e>
 8001c8c:	e08d      	b.n	8001daa <__aeabi_ddiv+0x57a>
 8001c8e:	428e      	cmp	r6, r1
 8001c90:	d200      	bcs.n	8001c94 <__aeabi_ddiv+0x464>
 8001c92:	e0a3      	b.n	8001ddc <__aeabi_ddiv+0x5ac>
 8001c94:	d100      	bne.n	8001c98 <__aeabi_ddiv+0x468>
 8001c96:	e0b3      	b.n	8001e00 <__aeabi_ddiv+0x5d0>
 8001c98:	0005      	movs	r5, r0
 8001c9a:	e6f5      	b.n	8001a88 <__aeabi_ddiv+0x258>
 8001c9c:	42aa      	cmp	r2, r5
 8001c9e:	d900      	bls.n	8001ca2 <__aeabi_ddiv+0x472>
 8001ca0:	e639      	b.n	8001916 <__aeabi_ddiv+0xe6>
 8001ca2:	4643      	mov	r3, r8
 8001ca4:	07de      	lsls	r6, r3, #31
 8001ca6:	0858      	lsrs	r0, r3, #1
 8001ca8:	086b      	lsrs	r3, r5, #1
 8001caa:	431e      	orrs	r6, r3
 8001cac:	07ed      	lsls	r5, r5, #31
 8001cae:	e639      	b.n	8001924 <__aeabi_ddiv+0xf4>
 8001cb0:	4648      	mov	r0, r9
 8001cb2:	f001 f937 	bl	8002f24 <__clzsi2>
 8001cb6:	0001      	movs	r1, r0
 8001cb8:	0002      	movs	r2, r0
 8001cba:	3115      	adds	r1, #21
 8001cbc:	3220      	adds	r2, #32
 8001cbe:	291c      	cmp	r1, #28
 8001cc0:	dc00      	bgt.n	8001cc4 <__aeabi_ddiv+0x494>
 8001cc2:	e72c      	b.n	8001b1e <__aeabi_ddiv+0x2ee>
 8001cc4:	464b      	mov	r3, r9
 8001cc6:	3808      	subs	r0, #8
 8001cc8:	4083      	lsls	r3, r0
 8001cca:	2500      	movs	r5, #0
 8001ccc:	4698      	mov	r8, r3
 8001cce:	e732      	b.n	8001b36 <__aeabi_ddiv+0x306>
 8001cd0:	f001 f928 	bl	8002f24 <__clzsi2>
 8001cd4:	0003      	movs	r3, r0
 8001cd6:	001a      	movs	r2, r3
 8001cd8:	3215      	adds	r2, #21
 8001cda:	3020      	adds	r0, #32
 8001cdc:	2a1c      	cmp	r2, #28
 8001cde:	dc00      	bgt.n	8001ce2 <__aeabi_ddiv+0x4b2>
 8001ce0:	e700      	b.n	8001ae4 <__aeabi_ddiv+0x2b4>
 8001ce2:	4654      	mov	r4, sl
 8001ce4:	3b08      	subs	r3, #8
 8001ce6:	2200      	movs	r2, #0
 8001ce8:	409c      	lsls	r4, r3
 8001cea:	e705      	b.n	8001af8 <__aeabi_ddiv+0x2c8>
 8001cec:	1936      	adds	r6, r6, r4
 8001cee:	3b01      	subs	r3, #1
 8001cf0:	42b4      	cmp	r4, r6
 8001cf2:	d900      	bls.n	8001cf6 <__aeabi_ddiv+0x4c6>
 8001cf4:	e6a6      	b.n	8001a44 <__aeabi_ddiv+0x214>
 8001cf6:	42b2      	cmp	r2, r6
 8001cf8:	d800      	bhi.n	8001cfc <__aeabi_ddiv+0x4cc>
 8001cfa:	e6a3      	b.n	8001a44 <__aeabi_ddiv+0x214>
 8001cfc:	1e83      	subs	r3, r0, #2
 8001cfe:	1936      	adds	r6, r6, r4
 8001d00:	e6a0      	b.n	8001a44 <__aeabi_ddiv+0x214>
 8001d02:	1909      	adds	r1, r1, r4
 8001d04:	3d01      	subs	r5, #1
 8001d06:	428c      	cmp	r4, r1
 8001d08:	d900      	bls.n	8001d0c <__aeabi_ddiv+0x4dc>
 8001d0a:	e68d      	b.n	8001a28 <__aeabi_ddiv+0x1f8>
 8001d0c:	428a      	cmp	r2, r1
 8001d0e:	d800      	bhi.n	8001d12 <__aeabi_ddiv+0x4e2>
 8001d10:	e68a      	b.n	8001a28 <__aeabi_ddiv+0x1f8>
 8001d12:	1e85      	subs	r5, r0, #2
 8001d14:	1909      	adds	r1, r1, r4
 8001d16:	e687      	b.n	8001a28 <__aeabi_ddiv+0x1f8>
 8001d18:	230f      	movs	r3, #15
 8001d1a:	402b      	ands	r3, r5
 8001d1c:	2b04      	cmp	r3, #4
 8001d1e:	d100      	bne.n	8001d22 <__aeabi_ddiv+0x4f2>
 8001d20:	e6bc      	b.n	8001a9c <__aeabi_ddiv+0x26c>
 8001d22:	2305      	movs	r3, #5
 8001d24:	425b      	negs	r3, r3
 8001d26:	42ab      	cmp	r3, r5
 8001d28:	419b      	sbcs	r3, r3
 8001d2a:	3504      	adds	r5, #4
 8001d2c:	425b      	negs	r3, r3
 8001d2e:	08ed      	lsrs	r5, r5, #3
 8001d30:	4498      	add	r8, r3
 8001d32:	e6b4      	b.n	8001a9e <__aeabi_ddiv+0x26e>
 8001d34:	42af      	cmp	r7, r5
 8001d36:	d900      	bls.n	8001d3a <__aeabi_ddiv+0x50a>
 8001d38:	e660      	b.n	80019fc <__aeabi_ddiv+0x1cc>
 8001d3a:	4282      	cmp	r2, r0
 8001d3c:	d804      	bhi.n	8001d48 <__aeabi_ddiv+0x518>
 8001d3e:	d000      	beq.n	8001d42 <__aeabi_ddiv+0x512>
 8001d40:	e65c      	b.n	80019fc <__aeabi_ddiv+0x1cc>
 8001d42:	42ae      	cmp	r6, r5
 8001d44:	d800      	bhi.n	8001d48 <__aeabi_ddiv+0x518>
 8001d46:	e659      	b.n	80019fc <__aeabi_ddiv+0x1cc>
 8001d48:	2302      	movs	r3, #2
 8001d4a:	425b      	negs	r3, r3
 8001d4c:	469c      	mov	ip, r3
 8001d4e:	9b00      	ldr	r3, [sp, #0]
 8001d50:	44e0      	add	r8, ip
 8001d52:	469c      	mov	ip, r3
 8001d54:	4465      	add	r5, ip
 8001d56:	429d      	cmp	r5, r3
 8001d58:	419b      	sbcs	r3, r3
 8001d5a:	425b      	negs	r3, r3
 8001d5c:	191b      	adds	r3, r3, r4
 8001d5e:	18c0      	adds	r0, r0, r3
 8001d60:	e64d      	b.n	80019fe <__aeabi_ddiv+0x1ce>
 8001d62:	428a      	cmp	r2, r1
 8001d64:	d800      	bhi.n	8001d68 <__aeabi_ddiv+0x538>
 8001d66:	e60e      	b.n	8001986 <__aeabi_ddiv+0x156>
 8001d68:	1e83      	subs	r3, r0, #2
 8001d6a:	1909      	adds	r1, r1, r4
 8001d6c:	e60b      	b.n	8001986 <__aeabi_ddiv+0x156>
 8001d6e:	428a      	cmp	r2, r1
 8001d70:	d800      	bhi.n	8001d74 <__aeabi_ddiv+0x544>
 8001d72:	e5f4      	b.n	800195e <__aeabi_ddiv+0x12e>
 8001d74:	1e83      	subs	r3, r0, #2
 8001d76:	4698      	mov	r8, r3
 8001d78:	1909      	adds	r1, r1, r4
 8001d7a:	e5f0      	b.n	800195e <__aeabi_ddiv+0x12e>
 8001d7c:	4925      	ldr	r1, [pc, #148]	; (8001e14 <__aeabi_ddiv+0x5e4>)
 8001d7e:	0028      	movs	r0, r5
 8001d80:	4459      	add	r1, fp
 8001d82:	408d      	lsls	r5, r1
 8001d84:	4642      	mov	r2, r8
 8001d86:	408a      	lsls	r2, r1
 8001d88:	1e69      	subs	r1, r5, #1
 8001d8a:	418d      	sbcs	r5, r1
 8001d8c:	4641      	mov	r1, r8
 8001d8e:	40d8      	lsrs	r0, r3
 8001d90:	40d9      	lsrs	r1, r3
 8001d92:	4302      	orrs	r2, r0
 8001d94:	432a      	orrs	r2, r5
 8001d96:	000b      	movs	r3, r1
 8001d98:	0751      	lsls	r1, r2, #29
 8001d9a:	d100      	bne.n	8001d9e <__aeabi_ddiv+0x56e>
 8001d9c:	e751      	b.n	8001c42 <__aeabi_ddiv+0x412>
 8001d9e:	210f      	movs	r1, #15
 8001da0:	4011      	ands	r1, r2
 8001da2:	2904      	cmp	r1, #4
 8001da4:	d000      	beq.n	8001da8 <__aeabi_ddiv+0x578>
 8001da6:	e746      	b.n	8001c36 <__aeabi_ddiv+0x406>
 8001da8:	e74b      	b.n	8001c42 <__aeabi_ddiv+0x412>
 8001daa:	0005      	movs	r5, r0
 8001dac:	428e      	cmp	r6, r1
 8001dae:	d000      	beq.n	8001db2 <__aeabi_ddiv+0x582>
 8001db0:	e66a      	b.n	8001a88 <__aeabi_ddiv+0x258>
 8001db2:	9a00      	ldr	r2, [sp, #0]
 8001db4:	4293      	cmp	r3, r2
 8001db6:	d000      	beq.n	8001dba <__aeabi_ddiv+0x58a>
 8001db8:	e666      	b.n	8001a88 <__aeabi_ddiv+0x258>
 8001dba:	e667      	b.n	8001a8c <__aeabi_ddiv+0x25c>
 8001dbc:	4a16      	ldr	r2, [pc, #88]	; (8001e18 <__aeabi_ddiv+0x5e8>)
 8001dbe:	445a      	add	r2, fp
 8001dc0:	2a00      	cmp	r2, #0
 8001dc2:	dc00      	bgt.n	8001dc6 <__aeabi_ddiv+0x596>
 8001dc4:	e710      	b.n	8001be8 <__aeabi_ddiv+0x3b8>
 8001dc6:	2301      	movs	r3, #1
 8001dc8:	2500      	movs	r5, #0
 8001dca:	4498      	add	r8, r3
 8001dcc:	e667      	b.n	8001a9e <__aeabi_ddiv+0x26e>
 8001dce:	075d      	lsls	r5, r3, #29
 8001dd0:	025b      	lsls	r3, r3, #9
 8001dd2:	0b1c      	lsrs	r4, r3, #12
 8001dd4:	08d2      	lsrs	r2, r2, #3
 8001dd6:	2300      	movs	r3, #0
 8001dd8:	4315      	orrs	r5, r2
 8001dda:	e580      	b.n	80018de <__aeabi_ddiv+0xae>
 8001ddc:	9800      	ldr	r0, [sp, #0]
 8001dde:	3d02      	subs	r5, #2
 8001de0:	0042      	lsls	r2, r0, #1
 8001de2:	4282      	cmp	r2, r0
 8001de4:	41bf      	sbcs	r7, r7
 8001de6:	427f      	negs	r7, r7
 8001de8:	193c      	adds	r4, r7, r4
 8001dea:	1936      	adds	r6, r6, r4
 8001dec:	9200      	str	r2, [sp, #0]
 8001dee:	e7dd      	b.n	8001dac <__aeabi_ddiv+0x57c>
 8001df0:	2480      	movs	r4, #128	; 0x80
 8001df2:	4643      	mov	r3, r8
 8001df4:	0324      	lsls	r4, r4, #12
 8001df6:	431c      	orrs	r4, r3
 8001df8:	0324      	lsls	r4, r4, #12
 8001dfa:	4b04      	ldr	r3, [pc, #16]	; (8001e0c <__aeabi_ddiv+0x5dc>)
 8001dfc:	0b24      	lsrs	r4, r4, #12
 8001dfe:	e56e      	b.n	80018de <__aeabi_ddiv+0xae>
 8001e00:	9a00      	ldr	r2, [sp, #0]
 8001e02:	429a      	cmp	r2, r3
 8001e04:	d3ea      	bcc.n	8001ddc <__aeabi_ddiv+0x5ac>
 8001e06:	0005      	movs	r5, r0
 8001e08:	e7d3      	b.n	8001db2 <__aeabi_ddiv+0x582>
 8001e0a:	46c0      	nop			; (mov r8, r8)
 8001e0c:	000007ff 	.word	0x000007ff
 8001e10:	0000043e 	.word	0x0000043e
 8001e14:	0000041e 	.word	0x0000041e
 8001e18:	000003ff 	.word	0x000003ff

08001e1c <__eqdf2>:
 8001e1c:	b5f0      	push	{r4, r5, r6, r7, lr}
 8001e1e:	464e      	mov	r6, r9
 8001e20:	4645      	mov	r5, r8
 8001e22:	46de      	mov	lr, fp
 8001e24:	4657      	mov	r7, sl
 8001e26:	4690      	mov	r8, r2
 8001e28:	b5e0      	push	{r5, r6, r7, lr}
 8001e2a:	0017      	movs	r7, r2
 8001e2c:	031a      	lsls	r2, r3, #12
 8001e2e:	0b12      	lsrs	r2, r2, #12
 8001e30:	0005      	movs	r5, r0
 8001e32:	4684      	mov	ip, r0
 8001e34:	4819      	ldr	r0, [pc, #100]	; (8001e9c <__eqdf2+0x80>)
 8001e36:	030e      	lsls	r6, r1, #12
 8001e38:	004c      	lsls	r4, r1, #1
 8001e3a:	4691      	mov	r9, r2
 8001e3c:	005a      	lsls	r2, r3, #1
 8001e3e:	0fdb      	lsrs	r3, r3, #31
 8001e40:	469b      	mov	fp, r3
 8001e42:	0b36      	lsrs	r6, r6, #12
 8001e44:	0d64      	lsrs	r4, r4, #21
 8001e46:	0fc9      	lsrs	r1, r1, #31
 8001e48:	0d52      	lsrs	r2, r2, #21
 8001e4a:	4284      	cmp	r4, r0
 8001e4c:	d019      	beq.n	8001e82 <__eqdf2+0x66>
 8001e4e:	4282      	cmp	r2, r0
 8001e50:	d010      	beq.n	8001e74 <__eqdf2+0x58>
 8001e52:	2001      	movs	r0, #1
 8001e54:	4294      	cmp	r4, r2
 8001e56:	d10e      	bne.n	8001e76 <__eqdf2+0x5a>
 8001e58:	454e      	cmp	r6, r9
 8001e5a:	d10c      	bne.n	8001e76 <__eqdf2+0x5a>
 8001e5c:	2001      	movs	r0, #1
 8001e5e:	45c4      	cmp	ip, r8
 8001e60:	d109      	bne.n	8001e76 <__eqdf2+0x5a>
 8001e62:	4559      	cmp	r1, fp
 8001e64:	d017      	beq.n	8001e96 <__eqdf2+0x7a>
 8001e66:	2c00      	cmp	r4, #0
 8001e68:	d105      	bne.n	8001e76 <__eqdf2+0x5a>
 8001e6a:	0030      	movs	r0, r6
 8001e6c:	4328      	orrs	r0, r5
 8001e6e:	1e43      	subs	r3, r0, #1
 8001e70:	4198      	sbcs	r0, r3
 8001e72:	e000      	b.n	8001e76 <__eqdf2+0x5a>
 8001e74:	2001      	movs	r0, #1
 8001e76:	bcf0      	pop	{r4, r5, r6, r7}
 8001e78:	46bb      	mov	fp, r7
 8001e7a:	46b2      	mov	sl, r6
 8001e7c:	46a9      	mov	r9, r5
 8001e7e:	46a0      	mov	r8, r4
 8001e80:	bdf0      	pop	{r4, r5, r6, r7, pc}
 8001e82:	0033      	movs	r3, r6
 8001e84:	2001      	movs	r0, #1
 8001e86:	432b      	orrs	r3, r5
 8001e88:	d1f5      	bne.n	8001e76 <__eqdf2+0x5a>
 8001e8a:	42a2      	cmp	r2, r4
 8001e8c:	d1f3      	bne.n	8001e76 <__eqdf2+0x5a>
 8001e8e:	464b      	mov	r3, r9
 8001e90:	433b      	orrs	r3, r7
 8001e92:	d1f0      	bne.n	8001e76 <__eqdf2+0x5a>
 8001e94:	e7e2      	b.n	8001e5c <__eqdf2+0x40>
 8001e96:	2000      	movs	r0, #0
 8001e98:	e7ed      	b.n	8001e76 <__eqdf2+0x5a>
 8001e9a:	46c0      	nop			; (mov r8, r8)
 8001e9c:	000007ff 	.word	0x000007ff

08001ea0 <__gedf2>:
 8001ea0:	b5f0      	push	{r4, r5, r6, r7, lr}
 8001ea2:	4647      	mov	r7, r8
 8001ea4:	46ce      	mov	lr, r9
 8001ea6:	0004      	movs	r4, r0
 8001ea8:	0018      	movs	r0, r3
 8001eaa:	0016      	movs	r6, r2
 8001eac:	031b      	lsls	r3, r3, #12
 8001eae:	0b1b      	lsrs	r3, r3, #12
 8001eb0:	4d2d      	ldr	r5, [pc, #180]	; (8001f68 <__gedf2+0xc8>)
 8001eb2:	004a      	lsls	r2, r1, #1
 8001eb4:	4699      	mov	r9, r3
 8001eb6:	b580      	push	{r7, lr}
 8001eb8:	0043      	lsls	r3, r0, #1
 8001eba:	030f      	lsls	r7, r1, #12
 8001ebc:	46a4      	mov	ip, r4
 8001ebe:	46b0      	mov	r8, r6
 8001ec0:	0b3f      	lsrs	r7, r7, #12
 8001ec2:	0d52      	lsrs	r2, r2, #21
 8001ec4:	0fc9      	lsrs	r1, r1, #31
 8001ec6:	0d5b      	lsrs	r3, r3, #21
 8001ec8:	0fc0      	lsrs	r0, r0, #31
 8001eca:	42aa      	cmp	r2, r5
 8001ecc:	d021      	beq.n	8001f12 <__gedf2+0x72>
 8001ece:	42ab      	cmp	r3, r5
 8001ed0:	d013      	beq.n	8001efa <__gedf2+0x5a>
 8001ed2:	2a00      	cmp	r2, #0
 8001ed4:	d122      	bne.n	8001f1c <__gedf2+0x7c>
 8001ed6:	433c      	orrs	r4, r7
 8001ed8:	2b00      	cmp	r3, #0
 8001eda:	d102      	bne.n	8001ee2 <__gedf2+0x42>
 8001edc:	464d      	mov	r5, r9
 8001ede:	432e      	orrs	r6, r5
 8001ee0:	d022      	beq.n	8001f28 <__gedf2+0x88>
 8001ee2:	2c00      	cmp	r4, #0
 8001ee4:	d010      	beq.n	8001f08 <__gedf2+0x68>
 8001ee6:	4281      	cmp	r1, r0
 8001ee8:	d022      	beq.n	8001f30 <__gedf2+0x90>
 8001eea:	2002      	movs	r0, #2
 8001eec:	3901      	subs	r1, #1
 8001eee:	4008      	ands	r0, r1
 8001ef0:	3801      	subs	r0, #1
 8001ef2:	bcc0      	pop	{r6, r7}
 8001ef4:	46b9      	mov	r9, r7
 8001ef6:	46b0      	mov	r8, r6
 8001ef8:	bdf0      	pop	{r4, r5, r6, r7, pc}
 8001efa:	464d      	mov	r5, r9
 8001efc:	432e      	orrs	r6, r5
 8001efe:	d129      	bne.n	8001f54 <__gedf2+0xb4>
 8001f00:	2a00      	cmp	r2, #0
 8001f02:	d1f0      	bne.n	8001ee6 <__gedf2+0x46>
 8001f04:	433c      	orrs	r4, r7
 8001f06:	d1ee      	bne.n	8001ee6 <__gedf2+0x46>
 8001f08:	2800      	cmp	r0, #0
 8001f0a:	d1f2      	bne.n	8001ef2 <__gedf2+0x52>
 8001f0c:	2001      	movs	r0, #1
 8001f0e:	4240      	negs	r0, r0
 8001f10:	e7ef      	b.n	8001ef2 <__gedf2+0x52>
 8001f12:	003d      	movs	r5, r7
 8001f14:	4325      	orrs	r5, r4
 8001f16:	d11d      	bne.n	8001f54 <__gedf2+0xb4>
 8001f18:	4293      	cmp	r3, r2
 8001f1a:	d0ee      	beq.n	8001efa <__gedf2+0x5a>
 8001f1c:	2b00      	cmp	r3, #0
 8001f1e:	d1e2      	bne.n	8001ee6 <__gedf2+0x46>
 8001f20:	464c      	mov	r4, r9
 8001f22:	4326      	orrs	r6, r4
 8001f24:	d1df      	bne.n	8001ee6 <__gedf2+0x46>
 8001f26:	e7e0      	b.n	8001eea <__gedf2+0x4a>
 8001f28:	2000      	movs	r0, #0
 8001f2a:	2c00      	cmp	r4, #0
 8001f2c:	d0e1      	beq.n	8001ef2 <__gedf2+0x52>
 8001f2e:	e7dc      	b.n	8001eea <__gedf2+0x4a>
 8001f30:	429a      	cmp	r2, r3
 8001f32:	dc0a      	bgt.n	8001f4a <__gedf2+0xaa>
 8001f34:	dbe8      	blt.n	8001f08 <__gedf2+0x68>
 8001f36:	454f      	cmp	r7, r9
 8001f38:	d8d7      	bhi.n	8001eea <__gedf2+0x4a>
 8001f3a:	d00e      	beq.n	8001f5a <__gedf2+0xba>
 8001f3c:	2000      	movs	r0, #0
 8001f3e:	454f      	cmp	r7, r9
 8001f40:	d2d7      	bcs.n	8001ef2 <__gedf2+0x52>
 8001f42:	2900      	cmp	r1, #0
 8001f44:	d0e2      	beq.n	8001f0c <__gedf2+0x6c>
 8001f46:	0008      	movs	r0, r1
 8001f48:	e7d3      	b.n	8001ef2 <__gedf2+0x52>
 8001f4a:	4243      	negs	r3, r0
 8001f4c:	4158      	adcs	r0, r3
 8001f4e:	0040      	lsls	r0, r0, #1
 8001f50:	3801      	subs	r0, #1
 8001f52:	e7ce      	b.n	8001ef2 <__gedf2+0x52>
 8001f54:	2002      	movs	r0, #2
 8001f56:	4240      	negs	r0, r0
 8001f58:	e7cb      	b.n	8001ef2 <__gedf2+0x52>
 8001f5a:	45c4      	cmp	ip, r8
 8001f5c:	d8c5      	bhi.n	8001eea <__gedf2+0x4a>
 8001f5e:	2000      	movs	r0, #0
 8001f60:	45c4      	cmp	ip, r8
 8001f62:	d2c6      	bcs.n	8001ef2 <__gedf2+0x52>
 8001f64:	e7ed      	b.n	8001f42 <__gedf2+0xa2>
 8001f66:	46c0      	nop			; (mov r8, r8)
 8001f68:	000007ff 	.word	0x000007ff

08001f6c <__ledf2>:
 8001f6c:	b5f0      	push	{r4, r5, r6, r7, lr}
 8001f6e:	4647      	mov	r7, r8
 8001f70:	46ce      	mov	lr, r9
 8001f72:	0004      	movs	r4, r0
 8001f74:	0018      	movs	r0, r3
 8001f76:	0016      	movs	r6, r2
 8001f78:	031b      	lsls	r3, r3, #12
 8001f7a:	0b1b      	lsrs	r3, r3, #12
 8001f7c:	4d2c      	ldr	r5, [pc, #176]	; (8002030 <__ledf2+0xc4>)
 8001f7e:	004a      	lsls	r2, r1, #1
 8001f80:	4699      	mov	r9, r3
 8001f82:	b580      	push	{r7, lr}
 8001f84:	0043      	lsls	r3, r0, #1
 8001f86:	030f      	lsls	r7, r1, #12
 8001f88:	46a4      	mov	ip, r4
 8001f8a:	46b0      	mov	r8, r6
 8001f8c:	0b3f      	lsrs	r7, r7, #12
 8001f8e:	0d52      	lsrs	r2, r2, #21
 8001f90:	0fc9      	lsrs	r1, r1, #31
 8001f92:	0d5b      	lsrs	r3, r3, #21
 8001f94:	0fc0      	lsrs	r0, r0, #31
 8001f96:	42aa      	cmp	r2, r5
 8001f98:	d00d      	beq.n	8001fb6 <__ledf2+0x4a>
 8001f9a:	42ab      	cmp	r3, r5
 8001f9c:	d010      	beq.n	8001fc0 <__ledf2+0x54>
 8001f9e:	2a00      	cmp	r2, #0
 8001fa0:	d127      	bne.n	8001ff2 <__ledf2+0x86>
 8001fa2:	433c      	orrs	r4, r7
 8001fa4:	2b00      	cmp	r3, #0
 8001fa6:	d111      	bne.n	8001fcc <__ledf2+0x60>
 8001fa8:	464d      	mov	r5, r9
 8001faa:	432e      	orrs	r6, r5
 8001fac:	d10e      	bne.n	8001fcc <__ledf2+0x60>
 8001fae:	2000      	movs	r0, #0
 8001fb0:	2c00      	cmp	r4, #0
 8001fb2:	d015      	beq.n	8001fe0 <__ledf2+0x74>
 8001fb4:	e00e      	b.n	8001fd4 <__ledf2+0x68>
 8001fb6:	003d      	movs	r5, r7
 8001fb8:	4325      	orrs	r5, r4
 8001fba:	d110      	bne.n	8001fde <__ledf2+0x72>
 8001fbc:	4293      	cmp	r3, r2
 8001fbe:	d118      	bne.n	8001ff2 <__ledf2+0x86>
 8001fc0:	464d      	mov	r5, r9
 8001fc2:	432e      	orrs	r6, r5
 8001fc4:	d10b      	bne.n	8001fde <__ledf2+0x72>
 8001fc6:	2a00      	cmp	r2, #0
 8001fc8:	d102      	bne.n	8001fd0 <__ledf2+0x64>
 8001fca:	433c      	orrs	r4, r7
 8001fcc:	2c00      	cmp	r4, #0
 8001fce:	d00b      	beq.n	8001fe8 <__ledf2+0x7c>
 8001fd0:	4281      	cmp	r1, r0
 8001fd2:	d014      	beq.n	8001ffe <__ledf2+0x92>
 8001fd4:	2002      	movs	r0, #2
 8001fd6:	3901      	subs	r1, #1
 8001fd8:	4008      	ands	r0, r1
 8001fda:	3801      	subs	r0, #1
 8001fdc:	e000      	b.n	8001fe0 <__ledf2+0x74>
 8001fde:	2002      	movs	r0, #2
 8001fe0:	bcc0      	pop	{r6, r7}
 8001fe2:	46b9      	mov	r9, r7
 8001fe4:	46b0      	mov	r8, r6
 8001fe6:	bdf0      	pop	{r4, r5, r6, r7, pc}
 8001fe8:	2800      	cmp	r0, #0
 8001fea:	d1f9      	bne.n	8001fe0 <__ledf2+0x74>
 8001fec:	2001      	movs	r0, #1
 8001fee:	4240      	negs	r0, r0
 8001ff0:	e7f6      	b.n	8001fe0 <__ledf2+0x74>
 8001ff2:	2b00      	cmp	r3, #0
 8001ff4:	d1ec      	bne.n	8001fd0 <__ledf2+0x64>
 8001ff6:	464c      	mov	r4, r9
 8001ff8:	4326      	orrs	r6, r4
 8001ffa:	d1e9      	bne.n	8001fd0 <__ledf2+0x64>
 8001ffc:	e7ea      	b.n	8001fd4 <__ledf2+0x68>
 8001ffe:	429a      	cmp	r2, r3
 8002000:	dd04      	ble.n	800200c <__ledf2+0xa0>
 8002002:	4243      	negs	r3, r0
 8002004:	4158      	adcs	r0, r3
 8002006:	0040      	lsls	r0, r0, #1
 8002008:	3801      	subs	r0, #1
 800200a:	e7e9      	b.n	8001fe0 <__ledf2+0x74>
 800200c:	429a      	cmp	r2, r3
 800200e:	dbeb      	blt.n	8001fe8 <__ledf2+0x7c>
 8002010:	454f      	cmp	r7, r9
 8002012:	d8df      	bhi.n	8001fd4 <__ledf2+0x68>
 8002014:	d006      	beq.n	8002024 <__ledf2+0xb8>
 8002016:	2000      	movs	r0, #0
 8002018:	454f      	cmp	r7, r9
 800201a:	d2e1      	bcs.n	8001fe0 <__ledf2+0x74>
 800201c:	2900      	cmp	r1, #0
 800201e:	d0e5      	beq.n	8001fec <__ledf2+0x80>
 8002020:	0008      	movs	r0, r1
 8002022:	e7dd      	b.n	8001fe0 <__ledf2+0x74>
 8002024:	45c4      	cmp	ip, r8
 8002026:	d8d5      	bhi.n	8001fd4 <__ledf2+0x68>
 8002028:	2000      	movs	r0, #0
 800202a:	45c4      	cmp	ip, r8
 800202c:	d2d8      	bcs.n	8001fe0 <__ledf2+0x74>
 800202e:	e7f5      	b.n	800201c <__ledf2+0xb0>
 8002030:	000007ff 	.word	0x000007ff

08002034 <__aeabi_dmul>:
 8002034:	b5f0      	push	{r4, r5, r6, r7, lr}
 8002036:	4657      	mov	r7, sl
 8002038:	464e      	mov	r6, r9
 800203a:	4645      	mov	r5, r8
 800203c:	46de      	mov	lr, fp
 800203e:	b5e0      	push	{r5, r6, r7, lr}
 8002040:	4698      	mov	r8, r3
 8002042:	030c      	lsls	r4, r1, #12
 8002044:	004b      	lsls	r3, r1, #1
 8002046:	0006      	movs	r6, r0
 8002048:	4692      	mov	sl, r2
 800204a:	b087      	sub	sp, #28
 800204c:	0b24      	lsrs	r4, r4, #12
 800204e:	0d5b      	lsrs	r3, r3, #21
 8002050:	0fcf      	lsrs	r7, r1, #31
 8002052:	2b00      	cmp	r3, #0
 8002054:	d100      	bne.n	8002058 <__aeabi_dmul+0x24>
 8002056:	e15c      	b.n	8002312 <__aeabi_dmul+0x2de>
 8002058:	4ad9      	ldr	r2, [pc, #868]	; (80023c0 <__aeabi_dmul+0x38c>)
 800205a:	4293      	cmp	r3, r2
 800205c:	d100      	bne.n	8002060 <__aeabi_dmul+0x2c>
 800205e:	e175      	b.n	800234c <__aeabi_dmul+0x318>
 8002060:	0f42      	lsrs	r2, r0, #29
 8002062:	00e4      	lsls	r4, r4, #3
 8002064:	4314      	orrs	r4, r2
 8002066:	2280      	movs	r2, #128	; 0x80
 8002068:	0412      	lsls	r2, r2, #16
 800206a:	4314      	orrs	r4, r2
 800206c:	4ad5      	ldr	r2, [pc, #852]	; (80023c4 <__aeabi_dmul+0x390>)
 800206e:	00c5      	lsls	r5, r0, #3
 8002070:	4694      	mov	ip, r2
 8002072:	4463      	add	r3, ip
 8002074:	9300      	str	r3, [sp, #0]
 8002076:	2300      	movs	r3, #0
 8002078:	4699      	mov	r9, r3
 800207a:	469b      	mov	fp, r3
 800207c:	4643      	mov	r3, r8
 800207e:	4642      	mov	r2, r8
 8002080:	031e      	lsls	r6, r3, #12
 8002082:	0fd2      	lsrs	r2, r2, #31
 8002084:	005b      	lsls	r3, r3, #1
 8002086:	4650      	mov	r0, sl
 8002088:	4690      	mov	r8, r2
 800208a:	0b36      	lsrs	r6, r6, #12
 800208c:	0d5b      	lsrs	r3, r3, #21
 800208e:	d100      	bne.n	8002092 <__aeabi_dmul+0x5e>
 8002090:	e120      	b.n	80022d4 <__aeabi_dmul+0x2a0>
 8002092:	4acb      	ldr	r2, [pc, #812]	; (80023c0 <__aeabi_dmul+0x38c>)
 8002094:	4293      	cmp	r3, r2
 8002096:	d100      	bne.n	800209a <__aeabi_dmul+0x66>
 8002098:	e162      	b.n	8002360 <__aeabi_dmul+0x32c>
 800209a:	49ca      	ldr	r1, [pc, #808]	; (80023c4 <__aeabi_dmul+0x390>)
 800209c:	0f42      	lsrs	r2, r0, #29
 800209e:	468c      	mov	ip, r1
 80020a0:	9900      	ldr	r1, [sp, #0]
 80020a2:	4463      	add	r3, ip
 80020a4:	00f6      	lsls	r6, r6, #3
 80020a6:	468c      	mov	ip, r1
 80020a8:	4316      	orrs	r6, r2
 80020aa:	2280      	movs	r2, #128	; 0x80
 80020ac:	449c      	add	ip, r3
 80020ae:	0412      	lsls	r2, r2, #16
 80020b0:	4663      	mov	r3, ip
 80020b2:	4316      	orrs	r6, r2
 80020b4:	00c2      	lsls	r2, r0, #3
 80020b6:	2000      	movs	r0, #0
 80020b8:	9300      	str	r3, [sp, #0]
 80020ba:	9900      	ldr	r1, [sp, #0]
 80020bc:	4643      	mov	r3, r8
 80020be:	3101      	adds	r1, #1
 80020c0:	468c      	mov	ip, r1
 80020c2:	4649      	mov	r1, r9
 80020c4:	407b      	eors	r3, r7
 80020c6:	9301      	str	r3, [sp, #4]
 80020c8:	290f      	cmp	r1, #15
 80020ca:	d826      	bhi.n	800211a <__aeabi_dmul+0xe6>
 80020cc:	4bbe      	ldr	r3, [pc, #760]	; (80023c8 <__aeabi_dmul+0x394>)
 80020ce:	0089      	lsls	r1, r1, #2
 80020d0:	5859      	ldr	r1, [r3, r1]
 80020d2:	468f      	mov	pc, r1
 80020d4:	4643      	mov	r3, r8
 80020d6:	9301      	str	r3, [sp, #4]
 80020d8:	0034      	movs	r4, r6
 80020da:	0015      	movs	r5, r2
 80020dc:	4683      	mov	fp, r0
 80020de:	465b      	mov	r3, fp
 80020e0:	2b02      	cmp	r3, #2
 80020e2:	d016      	beq.n	8002112 <__aeabi_dmul+0xde>
 80020e4:	2b03      	cmp	r3, #3
 80020e6:	d100      	bne.n	80020ea <__aeabi_dmul+0xb6>
 80020e8:	e203      	b.n	80024f2 <__aeabi_dmul+0x4be>
 80020ea:	2b01      	cmp	r3, #1
 80020ec:	d000      	beq.n	80020f0 <__aeabi_dmul+0xbc>
 80020ee:	e0cd      	b.n	800228c <__aeabi_dmul+0x258>
 80020f0:	2200      	movs	r2, #0
 80020f2:	2400      	movs	r4, #0
 80020f4:	2500      	movs	r5, #0
 80020f6:	9b01      	ldr	r3, [sp, #4]
 80020f8:	0512      	lsls	r2, r2, #20
 80020fa:	4322      	orrs	r2, r4
 80020fc:	07db      	lsls	r3, r3, #31
 80020fe:	431a      	orrs	r2, r3
 8002100:	0028      	movs	r0, r5
 8002102:	0011      	movs	r1, r2
 8002104:	b007      	add	sp, #28
 8002106:	bcf0      	pop	{r4, r5, r6, r7}
 8002108:	46bb      	mov	fp, r7
 800210a:	46b2      	mov	sl, r6
 800210c:	46a9      	mov	r9, r5
 800210e:	46a0      	mov	r8, r4
 8002110:	bdf0      	pop	{r4, r5, r6, r7, pc}
 8002112:	2400      	movs	r4, #0
 8002114:	2500      	movs	r5, #0
 8002116:	4aaa      	ldr	r2, [pc, #680]	; (80023c0 <__aeabi_dmul+0x38c>)
 8002118:	e7ed      	b.n	80020f6 <__aeabi_dmul+0xc2>
 800211a:	0c28      	lsrs	r0, r5, #16
 800211c:	042d      	lsls	r5, r5, #16
 800211e:	0c2d      	lsrs	r5, r5, #16
 8002120:	002b      	movs	r3, r5
 8002122:	0c11      	lsrs	r1, r2, #16
 8002124:	0412      	lsls	r2, r2, #16
 8002126:	0c12      	lsrs	r2, r2, #16
 8002128:	4353      	muls	r3, r2
 800212a:	4698      	mov	r8, r3
 800212c:	0013      	movs	r3, r2
 800212e:	002f      	movs	r7, r5
 8002130:	4343      	muls	r3, r0
 8002132:	4699      	mov	r9, r3
 8002134:	434f      	muls	r7, r1
 8002136:	444f      	add	r7, r9
 8002138:	46bb      	mov	fp, r7
 800213a:	4647      	mov	r7, r8
 800213c:	000b      	movs	r3, r1
 800213e:	0c3f      	lsrs	r7, r7, #16
 8002140:	46ba      	mov	sl, r7
 8002142:	4343      	muls	r3, r0
 8002144:	44da      	add	sl, fp
 8002146:	9302      	str	r3, [sp, #8]
 8002148:	45d1      	cmp	r9, sl
 800214a:	d904      	bls.n	8002156 <__aeabi_dmul+0x122>
 800214c:	2780      	movs	r7, #128	; 0x80
 800214e:	027f      	lsls	r7, r7, #9
 8002150:	46b9      	mov	r9, r7
 8002152:	444b      	add	r3, r9
 8002154:	9302      	str	r3, [sp, #8]
 8002156:	4653      	mov	r3, sl
 8002158:	0c1b      	lsrs	r3, r3, #16
 800215a:	469b      	mov	fp, r3
 800215c:	4653      	mov	r3, sl
 800215e:	041f      	lsls	r7, r3, #16
 8002160:	4643      	mov	r3, r8
 8002162:	041b      	lsls	r3, r3, #16
 8002164:	0c1b      	lsrs	r3, r3, #16
 8002166:	4698      	mov	r8, r3
 8002168:	003b      	movs	r3, r7
 800216a:	4443      	add	r3, r8
 800216c:	9304      	str	r3, [sp, #16]
 800216e:	0c33      	lsrs	r3, r6, #16
 8002170:	0436      	lsls	r6, r6, #16
 8002172:	0c36      	lsrs	r6, r6, #16
 8002174:	4698      	mov	r8, r3
 8002176:	0033      	movs	r3, r6
 8002178:	4343      	muls	r3, r0
 800217a:	4699      	mov	r9, r3
 800217c:	4643      	mov	r3, r8
 800217e:	4343      	muls	r3, r0
 8002180:	002f      	movs	r7, r5
 8002182:	469a      	mov	sl, r3
 8002184:	4643      	mov	r3, r8
 8002186:	4377      	muls	r7, r6
 8002188:	435d      	muls	r5, r3
 800218a:	0c38      	lsrs	r0, r7, #16
 800218c:	444d      	add	r5, r9
 800218e:	1945      	adds	r5, r0, r5
 8002190:	45a9      	cmp	r9, r5
 8002192:	d903      	bls.n	800219c <__aeabi_dmul+0x168>
 8002194:	2380      	movs	r3, #128	; 0x80
 8002196:	025b      	lsls	r3, r3, #9
 8002198:	4699      	mov	r9, r3
 800219a:	44ca      	add	sl, r9
 800219c:	043f      	lsls	r7, r7, #16
 800219e:	0c28      	lsrs	r0, r5, #16
 80021a0:	0c3f      	lsrs	r7, r7, #16
 80021a2:	042d      	lsls	r5, r5, #16
 80021a4:	19ed      	adds	r5, r5, r7
 80021a6:	0c27      	lsrs	r7, r4, #16
 80021a8:	0424      	lsls	r4, r4, #16
 80021aa:	0c24      	lsrs	r4, r4, #16
 80021ac:	0003      	movs	r3, r0
 80021ae:	0020      	movs	r0, r4
 80021b0:	4350      	muls	r0, r2
 80021b2:	437a      	muls	r2, r7
 80021b4:	4691      	mov	r9, r2
 80021b6:	003a      	movs	r2, r7
 80021b8:	4453      	add	r3, sl
 80021ba:	9305      	str	r3, [sp, #20]
 80021bc:	0c03      	lsrs	r3, r0, #16
 80021be:	469a      	mov	sl, r3
 80021c0:	434a      	muls	r2, r1
 80021c2:	4361      	muls	r1, r4
 80021c4:	4449      	add	r1, r9
 80021c6:	4451      	add	r1, sl
 80021c8:	44ab      	add	fp, r5
 80021ca:	4589      	cmp	r9, r1
 80021cc:	d903      	bls.n	80021d6 <__aeabi_dmul+0x1a2>
 80021ce:	2380      	movs	r3, #128	; 0x80
 80021d0:	025b      	lsls	r3, r3, #9
 80021d2:	4699      	mov	r9, r3
 80021d4:	444a      	add	r2, r9
 80021d6:	0400      	lsls	r0, r0, #16
 80021d8:	0c0b      	lsrs	r3, r1, #16
 80021da:	0c00      	lsrs	r0, r0, #16
 80021dc:	0409      	lsls	r1, r1, #16
 80021de:	1809      	adds	r1, r1, r0
 80021e0:	0020      	movs	r0, r4
 80021e2:	4699      	mov	r9, r3
 80021e4:	4643      	mov	r3, r8
 80021e6:	4370      	muls	r0, r6
 80021e8:	435c      	muls	r4, r3
 80021ea:	437e      	muls	r6, r7
 80021ec:	435f      	muls	r7, r3
 80021ee:	0c03      	lsrs	r3, r0, #16
 80021f0:	4698      	mov	r8, r3
 80021f2:	19a4      	adds	r4, r4, r6
 80021f4:	4444      	add	r4, r8
 80021f6:	444a      	add	r2, r9
 80021f8:	9703      	str	r7, [sp, #12]
 80021fa:	42a6      	cmp	r6, r4
 80021fc:	d904      	bls.n	8002208 <__aeabi_dmul+0x1d4>
 80021fe:	2380      	movs	r3, #128	; 0x80
 8002200:	025b      	lsls	r3, r3, #9
 8002202:	4698      	mov	r8, r3
 8002204:	4447      	add	r7, r8
 8002206:	9703      	str	r7, [sp, #12]
 8002208:	0423      	lsls	r3, r4, #16
 800220a:	9e02      	ldr	r6, [sp, #8]
 800220c:	469a      	mov	sl, r3
 800220e:	9b05      	ldr	r3, [sp, #20]
 8002210:	445e      	add	r6, fp
 8002212:	4698      	mov	r8, r3
 8002214:	42ae      	cmp	r6, r5
 8002216:	41ad      	sbcs	r5, r5
 8002218:	1876      	adds	r6, r6, r1
 800221a:	428e      	cmp	r6, r1
 800221c:	4189      	sbcs	r1, r1
 800221e:	0400      	lsls	r0, r0, #16
 8002220:	0c00      	lsrs	r0, r0, #16
 8002222:	4450      	add	r0, sl
 8002224:	4440      	add	r0, r8
 8002226:	426d      	negs	r5, r5
 8002228:	1947      	adds	r7, r0, r5
 800222a:	46b8      	mov	r8, r7
 800222c:	4693      	mov	fp, r2
 800222e:	4249      	negs	r1, r1
 8002230:	4689      	mov	r9, r1
 8002232:	44c3      	add	fp, r8
 8002234:	44d9      	add	r9, fp
 8002236:	4298      	cmp	r0, r3
 8002238:	4180      	sbcs	r0, r0
 800223a:	45a8      	cmp	r8, r5
 800223c:	41ad      	sbcs	r5, r5
 800223e:	4593      	cmp	fp, r2
 8002240:	4192      	sbcs	r2, r2
 8002242:	4589      	cmp	r9, r1
 8002244:	4189      	sbcs	r1, r1
 8002246:	426d      	negs	r5, r5
 8002248:	4240      	negs	r0, r0
 800224a:	4328      	orrs	r0, r5
 800224c:	0c24      	lsrs	r4, r4, #16
 800224e:	4252      	negs	r2, r2
 8002250:	4249      	negs	r1, r1
 8002252:	430a      	orrs	r2, r1
 8002254:	9b03      	ldr	r3, [sp, #12]
 8002256:	1900      	adds	r0, r0, r4
 8002258:	1880      	adds	r0, r0, r2
 800225a:	18c7      	adds	r7, r0, r3
 800225c:	464b      	mov	r3, r9
 800225e:	0ddc      	lsrs	r4, r3, #23
 8002260:	9b04      	ldr	r3, [sp, #16]
 8002262:	0275      	lsls	r5, r6, #9
 8002264:	431d      	orrs	r5, r3
 8002266:	1e6a      	subs	r2, r5, #1
 8002268:	4195      	sbcs	r5, r2
 800226a:	464b      	mov	r3, r9
 800226c:	0df6      	lsrs	r6, r6, #23
 800226e:	027f      	lsls	r7, r7, #9
 8002270:	4335      	orrs	r5, r6
 8002272:	025a      	lsls	r2, r3, #9
 8002274:	433c      	orrs	r4, r7
 8002276:	4315      	orrs	r5, r2
 8002278:	01fb      	lsls	r3, r7, #7
 800227a:	d400      	bmi.n	800227e <__aeabi_dmul+0x24a>
 800227c:	e11c      	b.n	80024b8 <__aeabi_dmul+0x484>
 800227e:	2101      	movs	r1, #1
 8002280:	086a      	lsrs	r2, r5, #1
 8002282:	400d      	ands	r5, r1
 8002284:	4315      	orrs	r5, r2
 8002286:	07e2      	lsls	r2, r4, #31
 8002288:	4315      	orrs	r5, r2
 800228a:	0864      	lsrs	r4, r4, #1
 800228c:	494f      	ldr	r1, [pc, #316]	; (80023cc <__aeabi_dmul+0x398>)
 800228e:	4461      	add	r1, ip
 8002290:	2900      	cmp	r1, #0
 8002292:	dc00      	bgt.n	8002296 <__aeabi_dmul+0x262>
 8002294:	e0b0      	b.n	80023f8 <__aeabi_dmul+0x3c4>
 8002296:	076b      	lsls	r3, r5, #29
 8002298:	d009      	beq.n	80022ae <__aeabi_dmul+0x27a>
 800229a:	220f      	movs	r2, #15
 800229c:	402a      	ands	r2, r5
 800229e:	2a04      	cmp	r2, #4
 80022a0:	d005      	beq.n	80022ae <__aeabi_dmul+0x27a>
 80022a2:	1d2a      	adds	r2, r5, #4
 80022a4:	42aa      	cmp	r2, r5
 80022a6:	41ad      	sbcs	r5, r5
 80022a8:	426d      	negs	r5, r5
 80022aa:	1964      	adds	r4, r4, r5
 80022ac:	0015      	movs	r5, r2
 80022ae:	01e3      	lsls	r3, r4, #7
 80022b0:	d504      	bpl.n	80022bc <__aeabi_dmul+0x288>
 80022b2:	2180      	movs	r1, #128	; 0x80
 80022b4:	4a46      	ldr	r2, [pc, #280]	; (80023d0 <__aeabi_dmul+0x39c>)
 80022b6:	00c9      	lsls	r1, r1, #3
 80022b8:	4014      	ands	r4, r2
 80022ba:	4461      	add	r1, ip
 80022bc:	4a45      	ldr	r2, [pc, #276]	; (80023d4 <__aeabi_dmul+0x3a0>)
 80022be:	4291      	cmp	r1, r2
 80022c0:	dd00      	ble.n	80022c4 <__aeabi_dmul+0x290>
 80022c2:	e726      	b.n	8002112 <__aeabi_dmul+0xde>
 80022c4:	0762      	lsls	r2, r4, #29
 80022c6:	08ed      	lsrs	r5, r5, #3
 80022c8:	0264      	lsls	r4, r4, #9
 80022ca:	0549      	lsls	r1, r1, #21
 80022cc:	4315      	orrs	r5, r2
 80022ce:	0b24      	lsrs	r4, r4, #12
 80022d0:	0d4a      	lsrs	r2, r1, #21
 80022d2:	e710      	b.n	80020f6 <__aeabi_dmul+0xc2>
 80022d4:	4652      	mov	r2, sl
 80022d6:	4332      	orrs	r2, r6
 80022d8:	d100      	bne.n	80022dc <__aeabi_dmul+0x2a8>
 80022da:	e07f      	b.n	80023dc <__aeabi_dmul+0x3a8>
 80022dc:	2e00      	cmp	r6, #0
 80022de:	d100      	bne.n	80022e2 <__aeabi_dmul+0x2ae>
 80022e0:	e0dc      	b.n	800249c <__aeabi_dmul+0x468>
 80022e2:	0030      	movs	r0, r6
 80022e4:	f000 fe1e 	bl	8002f24 <__clzsi2>
 80022e8:	0002      	movs	r2, r0
 80022ea:	3a0b      	subs	r2, #11
 80022ec:	231d      	movs	r3, #29
 80022ee:	0001      	movs	r1, r0
 80022f0:	1a9b      	subs	r3, r3, r2
 80022f2:	4652      	mov	r2, sl
 80022f4:	3908      	subs	r1, #8
 80022f6:	40da      	lsrs	r2, r3
 80022f8:	408e      	lsls	r6, r1
 80022fa:	4316      	orrs	r6, r2
 80022fc:	4652      	mov	r2, sl
 80022fe:	408a      	lsls	r2, r1
 8002300:	9b00      	ldr	r3, [sp, #0]
 8002302:	4935      	ldr	r1, [pc, #212]	; (80023d8 <__aeabi_dmul+0x3a4>)
 8002304:	1a18      	subs	r0, r3, r0
 8002306:	0003      	movs	r3, r0
 8002308:	468c      	mov	ip, r1
 800230a:	4463      	add	r3, ip
 800230c:	2000      	movs	r0, #0
 800230e:	9300      	str	r3, [sp, #0]
 8002310:	e6d3      	b.n	80020ba <__aeabi_dmul+0x86>
 8002312:	0025      	movs	r5, r4
 8002314:	4305      	orrs	r5, r0
 8002316:	d04a      	beq.n	80023ae <__aeabi_dmul+0x37a>
 8002318:	2c00      	cmp	r4, #0
 800231a:	d100      	bne.n	800231e <__aeabi_dmul+0x2ea>
 800231c:	e0b0      	b.n	8002480 <__aeabi_dmul+0x44c>
 800231e:	0020      	movs	r0, r4
 8002320:	f000 fe00 	bl	8002f24 <__clzsi2>
 8002324:	0001      	movs	r1, r0
 8002326:	0002      	movs	r2, r0
 8002328:	390b      	subs	r1, #11
 800232a:	231d      	movs	r3, #29
 800232c:	0010      	movs	r0, r2
 800232e:	1a5b      	subs	r3, r3, r1
 8002330:	0031      	movs	r1, r6
 8002332:	0035      	movs	r5, r6
 8002334:	3808      	subs	r0, #8
 8002336:	4084      	lsls	r4, r0
 8002338:	40d9      	lsrs	r1, r3
 800233a:	4085      	lsls	r5, r0
 800233c:	430c      	orrs	r4, r1
 800233e:	4826      	ldr	r0, [pc, #152]	; (80023d8 <__aeabi_dmul+0x3a4>)
 8002340:	1a83      	subs	r3, r0, r2
 8002342:	9300      	str	r3, [sp, #0]
 8002344:	2300      	movs	r3, #0
 8002346:	4699      	mov	r9, r3
 8002348:	469b      	mov	fp, r3
 800234a:	e697      	b.n	800207c <__aeabi_dmul+0x48>
 800234c:	0005      	movs	r5, r0
 800234e:	4325      	orrs	r5, r4
 8002350:	d126      	bne.n	80023a0 <__aeabi_dmul+0x36c>
 8002352:	2208      	movs	r2, #8
 8002354:	9300      	str	r3, [sp, #0]
 8002356:	2302      	movs	r3, #2
 8002358:	2400      	movs	r4, #0
 800235a:	4691      	mov	r9, r2
 800235c:	469b      	mov	fp, r3
 800235e:	e68d      	b.n	800207c <__aeabi_dmul+0x48>
 8002360:	4652      	mov	r2, sl
 8002362:	9b00      	ldr	r3, [sp, #0]
 8002364:	4332      	orrs	r2, r6
 8002366:	d110      	bne.n	800238a <__aeabi_dmul+0x356>
 8002368:	4915      	ldr	r1, [pc, #84]	; (80023c0 <__aeabi_dmul+0x38c>)
 800236a:	2600      	movs	r6, #0
 800236c:	468c      	mov	ip, r1
 800236e:	4463      	add	r3, ip
 8002370:	4649      	mov	r1, r9
 8002372:	9300      	str	r3, [sp, #0]
 8002374:	2302      	movs	r3, #2
 8002376:	4319      	orrs	r1, r3
 8002378:	4689      	mov	r9, r1
 800237a:	2002      	movs	r0, #2
 800237c:	e69d      	b.n	80020ba <__aeabi_dmul+0x86>
 800237e:	465b      	mov	r3, fp
 8002380:	9701      	str	r7, [sp, #4]
 8002382:	2b02      	cmp	r3, #2
 8002384:	d000      	beq.n	8002388 <__aeabi_dmul+0x354>
 8002386:	e6ad      	b.n	80020e4 <__aeabi_dmul+0xb0>
 8002388:	e6c3      	b.n	8002112 <__aeabi_dmul+0xde>
 800238a:	4a0d      	ldr	r2, [pc, #52]	; (80023c0 <__aeabi_dmul+0x38c>)
 800238c:	2003      	movs	r0, #3
 800238e:	4694      	mov	ip, r2
 8002390:	4463      	add	r3, ip
 8002392:	464a      	mov	r2, r9
 8002394:	9300      	str	r3, [sp, #0]
 8002396:	2303      	movs	r3, #3
 8002398:	431a      	orrs	r2, r3
 800239a:	4691      	mov	r9, r2
 800239c:	4652      	mov	r2, sl
 800239e:	e68c      	b.n	80020ba <__aeabi_dmul+0x86>
 80023a0:	220c      	movs	r2, #12
 80023a2:	9300      	str	r3, [sp, #0]
 80023a4:	2303      	movs	r3, #3
 80023a6:	0005      	movs	r5, r0
 80023a8:	4691      	mov	r9, r2
 80023aa:	469b      	mov	fp, r3
 80023ac:	e666      	b.n	800207c <__aeabi_dmul+0x48>
 80023ae:	2304      	movs	r3, #4
 80023b0:	4699      	mov	r9, r3
 80023b2:	2300      	movs	r3, #0
 80023b4:	9300      	str	r3, [sp, #0]
 80023b6:	3301      	adds	r3, #1
 80023b8:	2400      	movs	r4, #0
 80023ba:	469b      	mov	fp, r3
 80023bc:	e65e      	b.n	800207c <__aeabi_dmul+0x48>
 80023be:	46c0      	nop			; (mov r8, r8)
 80023c0:	000007ff 	.word	0x000007ff
 80023c4:	fffffc01 	.word	0xfffffc01
 80023c8:	08009198 	.word	0x08009198
 80023cc:	000003ff 	.word	0x000003ff
 80023d0:	feffffff 	.word	0xfeffffff
 80023d4:	000007fe 	.word	0x000007fe
 80023d8:	fffffc0d 	.word	0xfffffc0d
 80023dc:	4649      	mov	r1, r9
 80023de:	2301      	movs	r3, #1
 80023e0:	4319      	orrs	r1, r3
 80023e2:	4689      	mov	r9, r1
 80023e4:	2600      	movs	r6, #0
 80023e6:	2001      	movs	r0, #1
 80023e8:	e667      	b.n	80020ba <__aeabi_dmul+0x86>
 80023ea:	2300      	movs	r3, #0
 80023ec:	2480      	movs	r4, #128	; 0x80
 80023ee:	2500      	movs	r5, #0
 80023f0:	4a43      	ldr	r2, [pc, #268]	; (8002500 <__aeabi_dmul+0x4cc>)
 80023f2:	9301      	str	r3, [sp, #4]
 80023f4:	0324      	lsls	r4, r4, #12
 80023f6:	e67e      	b.n	80020f6 <__aeabi_dmul+0xc2>
 80023f8:	2001      	movs	r0, #1
 80023fa:	1a40      	subs	r0, r0, r1
 80023fc:	2838      	cmp	r0, #56	; 0x38
 80023fe:	dd00      	ble.n	8002402 <__aeabi_dmul+0x3ce>
 8002400:	e676      	b.n	80020f0 <__aeabi_dmul+0xbc>
 8002402:	281f      	cmp	r0, #31
 8002404:	dd5b      	ble.n	80024be <__aeabi_dmul+0x48a>
 8002406:	221f      	movs	r2, #31
 8002408:	0023      	movs	r3, r4
 800240a:	4252      	negs	r2, r2
 800240c:	1a51      	subs	r1, r2, r1
 800240e:	40cb      	lsrs	r3, r1
 8002410:	0019      	movs	r1, r3
 8002412:	2820      	cmp	r0, #32
 8002414:	d003      	beq.n	800241e <__aeabi_dmul+0x3ea>
 8002416:	4a3b      	ldr	r2, [pc, #236]	; (8002504 <__aeabi_dmul+0x4d0>)
 8002418:	4462      	add	r2, ip
 800241a:	4094      	lsls	r4, r2
 800241c:	4325      	orrs	r5, r4
 800241e:	1e6a      	subs	r2, r5, #1
 8002420:	4195      	sbcs	r5, r2
 8002422:	002a      	movs	r2, r5
 8002424:	430a      	orrs	r2, r1
 8002426:	2107      	movs	r1, #7
 8002428:	000d      	movs	r5, r1
 800242a:	2400      	movs	r4, #0
 800242c:	4015      	ands	r5, r2
 800242e:	4211      	tst	r1, r2
 8002430:	d05b      	beq.n	80024ea <__aeabi_dmul+0x4b6>
 8002432:	210f      	movs	r1, #15
 8002434:	2400      	movs	r4, #0
 8002436:	4011      	ands	r1, r2
 8002438:	2904      	cmp	r1, #4
 800243a:	d053      	beq.n	80024e4 <__aeabi_dmul+0x4b0>
 800243c:	1d11      	adds	r1, r2, #4
 800243e:	4291      	cmp	r1, r2
 8002440:	4192      	sbcs	r2, r2
 8002442:	4252      	negs	r2, r2
 8002444:	18a4      	adds	r4, r4, r2
 8002446:	000a      	movs	r2, r1
 8002448:	0223      	lsls	r3, r4, #8
 800244a:	d54b      	bpl.n	80024e4 <__aeabi_dmul+0x4b0>
 800244c:	2201      	movs	r2, #1
 800244e:	2400      	movs	r4, #0
 8002450:	2500      	movs	r5, #0
 8002452:	e650      	b.n	80020f6 <__aeabi_dmul+0xc2>
 8002454:	2380      	movs	r3, #128	; 0x80
 8002456:	031b      	lsls	r3, r3, #12
 8002458:	421c      	tst	r4, r3
 800245a:	d009      	beq.n	8002470 <__aeabi_dmul+0x43c>
 800245c:	421e      	tst	r6, r3
 800245e:	d107      	bne.n	8002470 <__aeabi_dmul+0x43c>
 8002460:	4333      	orrs	r3, r6
 8002462:	031c      	lsls	r4, r3, #12
 8002464:	4643      	mov	r3, r8
 8002466:	0015      	movs	r5, r2
 8002468:	0b24      	lsrs	r4, r4, #12
 800246a:	4a25      	ldr	r2, [pc, #148]	; (8002500 <__aeabi_dmul+0x4cc>)
 800246c:	9301      	str	r3, [sp, #4]
 800246e:	e642      	b.n	80020f6 <__aeabi_dmul+0xc2>
 8002470:	2280      	movs	r2, #128	; 0x80
 8002472:	0312      	lsls	r2, r2, #12
 8002474:	4314      	orrs	r4, r2
 8002476:	0324      	lsls	r4, r4, #12
 8002478:	4a21      	ldr	r2, [pc, #132]	; (8002500 <__aeabi_dmul+0x4cc>)
 800247a:	0b24      	lsrs	r4, r4, #12
 800247c:	9701      	str	r7, [sp, #4]
 800247e:	e63a      	b.n	80020f6 <__aeabi_dmul+0xc2>
 8002480:	f000 fd50 	bl	8002f24 <__clzsi2>
 8002484:	0001      	movs	r1, r0
 8002486:	0002      	movs	r2, r0
 8002488:	3115      	adds	r1, #21
 800248a:	3220      	adds	r2, #32
 800248c:	291c      	cmp	r1, #28
 800248e:	dc00      	bgt.n	8002492 <__aeabi_dmul+0x45e>
 8002490:	e74b      	b.n	800232a <__aeabi_dmul+0x2f6>
 8002492:	0034      	movs	r4, r6
 8002494:	3808      	subs	r0, #8
 8002496:	2500      	movs	r5, #0
 8002498:	4084      	lsls	r4, r0
 800249a:	e750      	b.n	800233e <__aeabi_dmul+0x30a>
 800249c:	f000 fd42 	bl	8002f24 <__clzsi2>
 80024a0:	0003      	movs	r3, r0
 80024a2:	001a      	movs	r2, r3
 80024a4:	3215      	adds	r2, #21
 80024a6:	3020      	adds	r0, #32
 80024a8:	2a1c      	cmp	r2, #28
 80024aa:	dc00      	bgt.n	80024ae <__aeabi_dmul+0x47a>
 80024ac:	e71e      	b.n	80022ec <__aeabi_dmul+0x2b8>
 80024ae:	4656      	mov	r6, sl
 80024b0:	3b08      	subs	r3, #8
 80024b2:	2200      	movs	r2, #0
 80024b4:	409e      	lsls	r6, r3
 80024b6:	e723      	b.n	8002300 <__aeabi_dmul+0x2cc>
 80024b8:	9b00      	ldr	r3, [sp, #0]
 80024ba:	469c      	mov	ip, r3
 80024bc:	e6e6      	b.n	800228c <__aeabi_dmul+0x258>
 80024be:	4912      	ldr	r1, [pc, #72]	; (8002508 <__aeabi_dmul+0x4d4>)
 80024c0:	0022      	movs	r2, r4
 80024c2:	4461      	add	r1, ip
 80024c4:	002e      	movs	r6, r5
 80024c6:	408d      	lsls	r5, r1
 80024c8:	408a      	lsls	r2, r1
 80024ca:	40c6      	lsrs	r6, r0
 80024cc:	1e69      	subs	r1, r5, #1
 80024ce:	418d      	sbcs	r5, r1
 80024d0:	4332      	orrs	r2, r6
 80024d2:	432a      	orrs	r2, r5
 80024d4:	40c4      	lsrs	r4, r0
 80024d6:	0753      	lsls	r3, r2, #29
 80024d8:	d0b6      	beq.n	8002448 <__aeabi_dmul+0x414>
 80024da:	210f      	movs	r1, #15
 80024dc:	4011      	ands	r1, r2
 80024de:	2904      	cmp	r1, #4
 80024e0:	d1ac      	bne.n	800243c <__aeabi_dmul+0x408>
 80024e2:	e7b1      	b.n	8002448 <__aeabi_dmul+0x414>
 80024e4:	0765      	lsls	r5, r4, #29
 80024e6:	0264      	lsls	r4, r4, #9
 80024e8:	0b24      	lsrs	r4, r4, #12
 80024ea:	08d2      	lsrs	r2, r2, #3
 80024ec:	4315      	orrs	r5, r2
 80024ee:	2200      	movs	r2, #0
 80024f0:	e601      	b.n	80020f6 <__aeabi_dmul+0xc2>
 80024f2:	2280      	movs	r2, #128	; 0x80
 80024f4:	0312      	lsls	r2, r2, #12
 80024f6:	4314      	orrs	r4, r2
 80024f8:	0324      	lsls	r4, r4, #12
 80024fa:	4a01      	ldr	r2, [pc, #4]	; (8002500 <__aeabi_dmul+0x4cc>)
 80024fc:	0b24      	lsrs	r4, r4, #12
 80024fe:	e5fa      	b.n	80020f6 <__aeabi_dmul+0xc2>
 8002500:	000007ff 	.word	0x000007ff
 8002504:	0000043e 	.word	0x0000043e
 8002508:	0000041e 	.word	0x0000041e

0800250c <__aeabi_dsub>:
 800250c:	b5f8      	push	{r3, r4, r5, r6, r7, lr}
 800250e:	4657      	mov	r7, sl
 8002510:	464e      	mov	r6, r9
 8002512:	4645      	mov	r5, r8
 8002514:	46de      	mov	lr, fp
 8002516:	b5e0      	push	{r5, r6, r7, lr}
 8002518:	001e      	movs	r6, r3
 800251a:	0017      	movs	r7, r2
 800251c:	004a      	lsls	r2, r1, #1
 800251e:	030b      	lsls	r3, r1, #12
 8002520:	0d52      	lsrs	r2, r2, #21
 8002522:	0a5b      	lsrs	r3, r3, #9
 8002524:	4690      	mov	r8, r2
 8002526:	0f42      	lsrs	r2, r0, #29
 8002528:	431a      	orrs	r2, r3
 800252a:	0fcd      	lsrs	r5, r1, #31
 800252c:	4ccd      	ldr	r4, [pc, #820]	; (8002864 <__aeabi_dsub+0x358>)
 800252e:	0331      	lsls	r1, r6, #12
 8002530:	00c3      	lsls	r3, r0, #3
 8002532:	4694      	mov	ip, r2
 8002534:	0070      	lsls	r0, r6, #1
 8002536:	0f7a      	lsrs	r2, r7, #29
 8002538:	0a49      	lsrs	r1, r1, #9
 800253a:	00ff      	lsls	r7, r7, #3
 800253c:	469a      	mov	sl, r3
 800253e:	46b9      	mov	r9, r7
 8002540:	0d40      	lsrs	r0, r0, #21
 8002542:	0ff6      	lsrs	r6, r6, #31
 8002544:	4311      	orrs	r1, r2
 8002546:	42a0      	cmp	r0, r4
 8002548:	d100      	bne.n	800254c <__aeabi_dsub+0x40>
 800254a:	e0b1      	b.n	80026b0 <__aeabi_dsub+0x1a4>
 800254c:	2201      	movs	r2, #1
 800254e:	4056      	eors	r6, r2
 8002550:	46b3      	mov	fp, r6
 8002552:	42b5      	cmp	r5, r6
 8002554:	d100      	bne.n	8002558 <__aeabi_dsub+0x4c>
 8002556:	e088      	b.n	800266a <__aeabi_dsub+0x15e>
 8002558:	4642      	mov	r2, r8
 800255a:	1a12      	subs	r2, r2, r0
 800255c:	2a00      	cmp	r2, #0
 800255e:	dc00      	bgt.n	8002562 <__aeabi_dsub+0x56>
 8002560:	e0ae      	b.n	80026c0 <__aeabi_dsub+0x1b4>
 8002562:	2800      	cmp	r0, #0
 8002564:	d100      	bne.n	8002568 <__aeabi_dsub+0x5c>
 8002566:	e0c1      	b.n	80026ec <__aeabi_dsub+0x1e0>
 8002568:	48be      	ldr	r0, [pc, #760]	; (8002864 <__aeabi_dsub+0x358>)
 800256a:	4580      	cmp	r8, r0
 800256c:	d100      	bne.n	8002570 <__aeabi_dsub+0x64>
 800256e:	e151      	b.n	8002814 <__aeabi_dsub+0x308>
 8002570:	2080      	movs	r0, #128	; 0x80
 8002572:	0400      	lsls	r0, r0, #16
 8002574:	4301      	orrs	r1, r0
 8002576:	2a38      	cmp	r2, #56	; 0x38
 8002578:	dd00      	ble.n	800257c <__aeabi_dsub+0x70>
 800257a:	e17b      	b.n	8002874 <__aeabi_dsub+0x368>
 800257c:	2a1f      	cmp	r2, #31
 800257e:	dd00      	ble.n	8002582 <__aeabi_dsub+0x76>
 8002580:	e1ee      	b.n	8002960 <__aeabi_dsub+0x454>
 8002582:	2020      	movs	r0, #32
 8002584:	003e      	movs	r6, r7
 8002586:	1a80      	subs	r0, r0, r2
 8002588:	000c      	movs	r4, r1
 800258a:	40d6      	lsrs	r6, r2
 800258c:	40d1      	lsrs	r1, r2
 800258e:	4087      	lsls	r7, r0
 8002590:	4662      	mov	r2, ip
 8002592:	4084      	lsls	r4, r0
 8002594:	1a52      	subs	r2, r2, r1
 8002596:	1e78      	subs	r0, r7, #1
 8002598:	4187      	sbcs	r7, r0
 800259a:	4694      	mov	ip, r2
 800259c:	4334      	orrs	r4, r6
 800259e:	4327      	orrs	r7, r4
 80025a0:	1bdc      	subs	r4, r3, r7
 80025a2:	42a3      	cmp	r3, r4
 80025a4:	419b      	sbcs	r3, r3
 80025a6:	4662      	mov	r2, ip
 80025a8:	425b      	negs	r3, r3
 80025aa:	1ad3      	subs	r3, r2, r3
 80025ac:	4699      	mov	r9, r3
 80025ae:	464b      	mov	r3, r9
 80025b0:	021b      	lsls	r3, r3, #8
 80025b2:	d400      	bmi.n	80025b6 <__aeabi_dsub+0xaa>
 80025b4:	e118      	b.n	80027e8 <__aeabi_dsub+0x2dc>
 80025b6:	464b      	mov	r3, r9
 80025b8:	0258      	lsls	r0, r3, #9
 80025ba:	0a43      	lsrs	r3, r0, #9
 80025bc:	4699      	mov	r9, r3
 80025be:	464b      	mov	r3, r9
 80025c0:	2b00      	cmp	r3, #0
 80025c2:	d100      	bne.n	80025c6 <__aeabi_dsub+0xba>
 80025c4:	e137      	b.n	8002836 <__aeabi_dsub+0x32a>
 80025c6:	4648      	mov	r0, r9
 80025c8:	f000 fcac 	bl	8002f24 <__clzsi2>
 80025cc:	0001      	movs	r1, r0
 80025ce:	3908      	subs	r1, #8
 80025d0:	2320      	movs	r3, #32
 80025d2:	0022      	movs	r2, r4
 80025d4:	4648      	mov	r0, r9
 80025d6:	1a5b      	subs	r3, r3, r1
 80025d8:	40da      	lsrs	r2, r3
 80025da:	4088      	lsls	r0, r1
 80025dc:	408c      	lsls	r4, r1
 80025de:	4643      	mov	r3, r8
 80025e0:	4310      	orrs	r0, r2
 80025e2:	4588      	cmp	r8, r1
 80025e4:	dd00      	ble.n	80025e8 <__aeabi_dsub+0xdc>
 80025e6:	e136      	b.n	8002856 <__aeabi_dsub+0x34a>
 80025e8:	1ac9      	subs	r1, r1, r3
 80025ea:	1c4b      	adds	r3, r1, #1
 80025ec:	2b1f      	cmp	r3, #31
 80025ee:	dd00      	ble.n	80025f2 <__aeabi_dsub+0xe6>
 80025f0:	e0ea      	b.n	80027c8 <__aeabi_dsub+0x2bc>
 80025f2:	2220      	movs	r2, #32
 80025f4:	0026      	movs	r6, r4
 80025f6:	1ad2      	subs	r2, r2, r3
 80025f8:	0001      	movs	r1, r0
 80025fa:	4094      	lsls	r4, r2
 80025fc:	40de      	lsrs	r6, r3
 80025fe:	40d8      	lsrs	r0, r3
 8002600:	2300      	movs	r3, #0
 8002602:	4091      	lsls	r1, r2
 8002604:	1e62      	subs	r2, r4, #1
 8002606:	4194      	sbcs	r4, r2
 8002608:	4681      	mov	r9, r0
 800260a:	4698      	mov	r8, r3
 800260c:	4331      	orrs	r1, r6
 800260e:	430c      	orrs	r4, r1
 8002610:	0763      	lsls	r3, r4, #29
 8002612:	d009      	beq.n	8002628 <__aeabi_dsub+0x11c>
 8002614:	230f      	movs	r3, #15
 8002616:	4023      	ands	r3, r4
 8002618:	2b04      	cmp	r3, #4
 800261a:	d005      	beq.n	8002628 <__aeabi_dsub+0x11c>
 800261c:	1d23      	adds	r3, r4, #4
 800261e:	42a3      	cmp	r3, r4
 8002620:	41a4      	sbcs	r4, r4
 8002622:	4264      	negs	r4, r4
 8002624:	44a1      	add	r9, r4
 8002626:	001c      	movs	r4, r3
 8002628:	464b      	mov	r3, r9
 800262a:	021b      	lsls	r3, r3, #8
 800262c:	d400      	bmi.n	8002630 <__aeabi_dsub+0x124>
 800262e:	e0de      	b.n	80027ee <__aeabi_dsub+0x2e2>
 8002630:	4641      	mov	r1, r8
 8002632:	4b8c      	ldr	r3, [pc, #560]	; (8002864 <__aeabi_dsub+0x358>)
 8002634:	3101      	adds	r1, #1
 8002636:	4299      	cmp	r1, r3
 8002638:	d100      	bne.n	800263c <__aeabi_dsub+0x130>
 800263a:	e0e7      	b.n	800280c <__aeabi_dsub+0x300>
 800263c:	464b      	mov	r3, r9
 800263e:	488a      	ldr	r0, [pc, #552]	; (8002868 <__aeabi_dsub+0x35c>)
 8002640:	08e4      	lsrs	r4, r4, #3
 8002642:	4003      	ands	r3, r0
 8002644:	0018      	movs	r0, r3
 8002646:	0549      	lsls	r1, r1, #21
 8002648:	075b      	lsls	r3, r3, #29
 800264a:	0240      	lsls	r0, r0, #9
 800264c:	4323      	orrs	r3, r4
 800264e:	0d4a      	lsrs	r2, r1, #21
 8002650:	0b04      	lsrs	r4, r0, #12
 8002652:	0512      	lsls	r2, r2, #20
 8002654:	07ed      	lsls	r5, r5, #31
 8002656:	4322      	orrs	r2, r4
 8002658:	432a      	orrs	r2, r5
 800265a:	0018      	movs	r0, r3
 800265c:	0011      	movs	r1, r2
 800265e:	bcf0      	pop	{r4, r5, r6, r7}
 8002660:	46bb      	mov	fp, r7
 8002662:	46b2      	mov	sl, r6
 8002664:	46a9      	mov	r9, r5
 8002666:	46a0      	mov	r8, r4
 8002668:	bdf8      	pop	{r3, r4, r5, r6, r7, pc}
 800266a:	4642      	mov	r2, r8
 800266c:	1a12      	subs	r2, r2, r0
 800266e:	2a00      	cmp	r2, #0
 8002670:	dd52      	ble.n	8002718 <__aeabi_dsub+0x20c>
 8002672:	2800      	cmp	r0, #0
 8002674:	d100      	bne.n	8002678 <__aeabi_dsub+0x16c>
 8002676:	e09c      	b.n	80027b2 <__aeabi_dsub+0x2a6>
 8002678:	45a0      	cmp	r8, r4
 800267a:	d100      	bne.n	800267e <__aeabi_dsub+0x172>
 800267c:	e0ca      	b.n	8002814 <__aeabi_dsub+0x308>
 800267e:	2080      	movs	r0, #128	; 0x80
 8002680:	0400      	lsls	r0, r0, #16
 8002682:	4301      	orrs	r1, r0
 8002684:	2a38      	cmp	r2, #56	; 0x38
 8002686:	dd00      	ble.n	800268a <__aeabi_dsub+0x17e>
 8002688:	e149      	b.n	800291e <__aeabi_dsub+0x412>
 800268a:	2a1f      	cmp	r2, #31
 800268c:	dc00      	bgt.n	8002690 <__aeabi_dsub+0x184>
 800268e:	e197      	b.n	80029c0 <__aeabi_dsub+0x4b4>
 8002690:	0010      	movs	r0, r2
 8002692:	000e      	movs	r6, r1
 8002694:	3820      	subs	r0, #32
 8002696:	40c6      	lsrs	r6, r0
 8002698:	2a20      	cmp	r2, #32
 800269a:	d004      	beq.n	80026a6 <__aeabi_dsub+0x19a>
 800269c:	2040      	movs	r0, #64	; 0x40
 800269e:	1a82      	subs	r2, r0, r2
 80026a0:	4091      	lsls	r1, r2
 80026a2:	430f      	orrs	r7, r1
 80026a4:	46b9      	mov	r9, r7
 80026a6:	464c      	mov	r4, r9
 80026a8:	1e62      	subs	r2, r4, #1
 80026aa:	4194      	sbcs	r4, r2
 80026ac:	4334      	orrs	r4, r6
 80026ae:	e13a      	b.n	8002926 <__aeabi_dsub+0x41a>
 80026b0:	000a      	movs	r2, r1
 80026b2:	433a      	orrs	r2, r7
 80026b4:	d028      	beq.n	8002708 <__aeabi_dsub+0x1fc>
 80026b6:	46b3      	mov	fp, r6
 80026b8:	42b5      	cmp	r5, r6
 80026ba:	d02b      	beq.n	8002714 <__aeabi_dsub+0x208>
 80026bc:	4a6b      	ldr	r2, [pc, #428]	; (800286c <__aeabi_dsub+0x360>)
 80026be:	4442      	add	r2, r8
 80026c0:	2a00      	cmp	r2, #0
 80026c2:	d05d      	beq.n	8002780 <__aeabi_dsub+0x274>
 80026c4:	4642      	mov	r2, r8
 80026c6:	4644      	mov	r4, r8
 80026c8:	1a82      	subs	r2, r0, r2
 80026ca:	2c00      	cmp	r4, #0
 80026cc:	d000      	beq.n	80026d0 <__aeabi_dsub+0x1c4>
 80026ce:	e0f5      	b.n	80028bc <__aeabi_dsub+0x3b0>
 80026d0:	4665      	mov	r5, ip
 80026d2:	431d      	orrs	r5, r3
 80026d4:	d100      	bne.n	80026d8 <__aeabi_dsub+0x1cc>
 80026d6:	e19c      	b.n	8002a12 <__aeabi_dsub+0x506>
 80026d8:	1e55      	subs	r5, r2, #1
 80026da:	2a01      	cmp	r2, #1
 80026dc:	d100      	bne.n	80026e0 <__aeabi_dsub+0x1d4>
 80026de:	e1fb      	b.n	8002ad8 <__aeabi_dsub+0x5cc>
 80026e0:	4c60      	ldr	r4, [pc, #384]	; (8002864 <__aeabi_dsub+0x358>)
 80026e2:	42a2      	cmp	r2, r4
 80026e4:	d100      	bne.n	80026e8 <__aeabi_dsub+0x1dc>
 80026e6:	e1bd      	b.n	8002a64 <__aeabi_dsub+0x558>
 80026e8:	002a      	movs	r2, r5
 80026ea:	e0f0      	b.n	80028ce <__aeabi_dsub+0x3c2>
 80026ec:	0008      	movs	r0, r1
 80026ee:	4338      	orrs	r0, r7
 80026f0:	d100      	bne.n	80026f4 <__aeabi_dsub+0x1e8>
 80026f2:	e0c3      	b.n	800287c <__aeabi_dsub+0x370>
 80026f4:	1e50      	subs	r0, r2, #1
 80026f6:	2a01      	cmp	r2, #1
 80026f8:	d100      	bne.n	80026fc <__aeabi_dsub+0x1f0>
 80026fa:	e1a8      	b.n	8002a4e <__aeabi_dsub+0x542>
 80026fc:	4c59      	ldr	r4, [pc, #356]	; (8002864 <__aeabi_dsub+0x358>)
 80026fe:	42a2      	cmp	r2, r4
 8002700:	d100      	bne.n	8002704 <__aeabi_dsub+0x1f8>
 8002702:	e087      	b.n	8002814 <__aeabi_dsub+0x308>
 8002704:	0002      	movs	r2, r0
 8002706:	e736      	b.n	8002576 <__aeabi_dsub+0x6a>
 8002708:	2201      	movs	r2, #1
 800270a:	4056      	eors	r6, r2
 800270c:	46b3      	mov	fp, r6
 800270e:	42b5      	cmp	r5, r6
 8002710:	d000      	beq.n	8002714 <__aeabi_dsub+0x208>
 8002712:	e721      	b.n	8002558 <__aeabi_dsub+0x4c>
 8002714:	4a55      	ldr	r2, [pc, #340]	; (800286c <__aeabi_dsub+0x360>)
 8002716:	4442      	add	r2, r8
 8002718:	2a00      	cmp	r2, #0
 800271a:	d100      	bne.n	800271e <__aeabi_dsub+0x212>
 800271c:	e0b5      	b.n	800288a <__aeabi_dsub+0x37e>
 800271e:	4642      	mov	r2, r8
 8002720:	4644      	mov	r4, r8
 8002722:	1a82      	subs	r2, r0, r2
 8002724:	2c00      	cmp	r4, #0
 8002726:	d100      	bne.n	800272a <__aeabi_dsub+0x21e>
 8002728:	e138      	b.n	800299c <__aeabi_dsub+0x490>
 800272a:	4e4e      	ldr	r6, [pc, #312]	; (8002864 <__aeabi_dsub+0x358>)
 800272c:	42b0      	cmp	r0, r6
 800272e:	d100      	bne.n	8002732 <__aeabi_dsub+0x226>
 8002730:	e1de      	b.n	8002af0 <__aeabi_dsub+0x5e4>
 8002732:	2680      	movs	r6, #128	; 0x80
 8002734:	4664      	mov	r4, ip
 8002736:	0436      	lsls	r6, r6, #16
 8002738:	4334      	orrs	r4, r6
 800273a:	46a4      	mov	ip, r4
 800273c:	2a38      	cmp	r2, #56	; 0x38
 800273e:	dd00      	ble.n	8002742 <__aeabi_dsub+0x236>
 8002740:	e196      	b.n	8002a70 <__aeabi_dsub+0x564>
 8002742:	2a1f      	cmp	r2, #31
 8002744:	dd00      	ble.n	8002748 <__aeabi_dsub+0x23c>
 8002746:	e224      	b.n	8002b92 <__aeabi_dsub+0x686>
 8002748:	2620      	movs	r6, #32
 800274a:	1ab4      	subs	r4, r6, r2
 800274c:	46a2      	mov	sl, r4
 800274e:	4664      	mov	r4, ip
 8002750:	4656      	mov	r6, sl
 8002752:	40b4      	lsls	r4, r6
 8002754:	46a1      	mov	r9, r4
 8002756:	001c      	movs	r4, r3
 8002758:	464e      	mov	r6, r9
 800275a:	40d4      	lsrs	r4, r2
 800275c:	4326      	orrs	r6, r4
 800275e:	0034      	movs	r4, r6
 8002760:	4656      	mov	r6, sl
 8002762:	40b3      	lsls	r3, r6
 8002764:	1e5e      	subs	r6, r3, #1
 8002766:	41b3      	sbcs	r3, r6
 8002768:	431c      	orrs	r4, r3
 800276a:	4663      	mov	r3, ip
 800276c:	40d3      	lsrs	r3, r2
 800276e:	18c9      	adds	r1, r1, r3
 8002770:	19e4      	adds	r4, r4, r7
 8002772:	42bc      	cmp	r4, r7
 8002774:	41bf      	sbcs	r7, r7
 8002776:	427f      	negs	r7, r7
 8002778:	46b9      	mov	r9, r7
 800277a:	4680      	mov	r8, r0
 800277c:	4489      	add	r9, r1
 800277e:	e0d8      	b.n	8002932 <__aeabi_dsub+0x426>
 8002780:	4640      	mov	r0, r8
 8002782:	4c3b      	ldr	r4, [pc, #236]	; (8002870 <__aeabi_dsub+0x364>)
 8002784:	3001      	adds	r0, #1
 8002786:	4220      	tst	r0, r4
 8002788:	d000      	beq.n	800278c <__aeabi_dsub+0x280>
 800278a:	e0b4      	b.n	80028f6 <__aeabi_dsub+0x3ea>
 800278c:	4640      	mov	r0, r8
 800278e:	2800      	cmp	r0, #0
 8002790:	d000      	beq.n	8002794 <__aeabi_dsub+0x288>
 8002792:	e144      	b.n	8002a1e <__aeabi_dsub+0x512>
 8002794:	4660      	mov	r0, ip
 8002796:	4318      	orrs	r0, r3
 8002798:	d100      	bne.n	800279c <__aeabi_dsub+0x290>
 800279a:	e190      	b.n	8002abe <__aeabi_dsub+0x5b2>
 800279c:	0008      	movs	r0, r1
 800279e:	4338      	orrs	r0, r7
 80027a0:	d000      	beq.n	80027a4 <__aeabi_dsub+0x298>
 80027a2:	e1aa      	b.n	8002afa <__aeabi_dsub+0x5ee>
 80027a4:	4661      	mov	r1, ip
 80027a6:	08db      	lsrs	r3, r3, #3
 80027a8:	0749      	lsls	r1, r1, #29
 80027aa:	430b      	orrs	r3, r1
 80027ac:	4661      	mov	r1, ip
 80027ae:	08cc      	lsrs	r4, r1, #3
 80027b0:	e027      	b.n	8002802 <__aeabi_dsub+0x2f6>
 80027b2:	0008      	movs	r0, r1
 80027b4:	4338      	orrs	r0, r7
 80027b6:	d061      	beq.n	800287c <__aeabi_dsub+0x370>
 80027b8:	1e50      	subs	r0, r2, #1
 80027ba:	2a01      	cmp	r2, #1
 80027bc:	d100      	bne.n	80027c0 <__aeabi_dsub+0x2b4>
 80027be:	e139      	b.n	8002a34 <__aeabi_dsub+0x528>
 80027c0:	42a2      	cmp	r2, r4
 80027c2:	d027      	beq.n	8002814 <__aeabi_dsub+0x308>
 80027c4:	0002      	movs	r2, r0
 80027c6:	e75d      	b.n	8002684 <__aeabi_dsub+0x178>
 80027c8:	0002      	movs	r2, r0
 80027ca:	391f      	subs	r1, #31
 80027cc:	40ca      	lsrs	r2, r1
 80027ce:	0011      	movs	r1, r2
 80027d0:	2b20      	cmp	r3, #32
 80027d2:	d003      	beq.n	80027dc <__aeabi_dsub+0x2d0>
 80027d4:	2240      	movs	r2, #64	; 0x40
 80027d6:	1ad3      	subs	r3, r2, r3
 80027d8:	4098      	lsls	r0, r3
 80027da:	4304      	orrs	r4, r0
 80027dc:	1e63      	subs	r3, r4, #1
 80027de:	419c      	sbcs	r4, r3
 80027e0:	2300      	movs	r3, #0
 80027e2:	4699      	mov	r9, r3
 80027e4:	4698      	mov	r8, r3
 80027e6:	430c      	orrs	r4, r1
 80027e8:	0763      	lsls	r3, r4, #29
 80027ea:	d000      	beq.n	80027ee <__aeabi_dsub+0x2e2>
 80027ec:	e712      	b.n	8002614 <__aeabi_dsub+0x108>
 80027ee:	464b      	mov	r3, r9
 80027f0:	464a      	mov	r2, r9
 80027f2:	08e4      	lsrs	r4, r4, #3
 80027f4:	075b      	lsls	r3, r3, #29
 80027f6:	4323      	orrs	r3, r4
 80027f8:	08d4      	lsrs	r4, r2, #3
 80027fa:	4642      	mov	r2, r8
 80027fc:	4919      	ldr	r1, [pc, #100]	; (8002864 <__aeabi_dsub+0x358>)
 80027fe:	428a      	cmp	r2, r1
 8002800:	d00e      	beq.n	8002820 <__aeabi_dsub+0x314>
 8002802:	0324      	lsls	r4, r4, #12
 8002804:	0552      	lsls	r2, r2, #21
 8002806:	0b24      	lsrs	r4, r4, #12
 8002808:	0d52      	lsrs	r2, r2, #21
 800280a:	e722      	b.n	8002652 <__aeabi_dsub+0x146>
 800280c:	000a      	movs	r2, r1
 800280e:	2400      	movs	r4, #0
 8002810:	2300      	movs	r3, #0
 8002812:	e71e      	b.n	8002652 <__aeabi_dsub+0x146>
 8002814:	08db      	lsrs	r3, r3, #3
 8002816:	4662      	mov	r2, ip
 8002818:	0752      	lsls	r2, r2, #29
 800281a:	4313      	orrs	r3, r2
 800281c:	4662      	mov	r2, ip
 800281e:	08d4      	lsrs	r4, r2, #3
 8002820:	001a      	movs	r2, r3
 8002822:	4322      	orrs	r2, r4
 8002824:	d100      	bne.n	8002828 <__aeabi_dsub+0x31c>
 8002826:	e1fc      	b.n	8002c22 <__aeabi_dsub+0x716>
 8002828:	2280      	movs	r2, #128	; 0x80
 800282a:	0312      	lsls	r2, r2, #12
 800282c:	4314      	orrs	r4, r2
 800282e:	0324      	lsls	r4, r4, #12
 8002830:	4a0c      	ldr	r2, [pc, #48]	; (8002864 <__aeabi_dsub+0x358>)
 8002832:	0b24      	lsrs	r4, r4, #12
 8002834:	e70d      	b.n	8002652 <__aeabi_dsub+0x146>
 8002836:	0020      	movs	r0, r4
 8002838:	f000 fb74 	bl	8002f24 <__clzsi2>
 800283c:	0001      	movs	r1, r0
 800283e:	3118      	adds	r1, #24
 8002840:	291f      	cmp	r1, #31
 8002842:	dc00      	bgt.n	8002846 <__aeabi_dsub+0x33a>
 8002844:	e6c4      	b.n	80025d0 <__aeabi_dsub+0xc4>
 8002846:	3808      	subs	r0, #8
 8002848:	4084      	lsls	r4, r0
 800284a:	4643      	mov	r3, r8
 800284c:	0020      	movs	r0, r4
 800284e:	2400      	movs	r4, #0
 8002850:	4588      	cmp	r8, r1
 8002852:	dc00      	bgt.n	8002856 <__aeabi_dsub+0x34a>
 8002854:	e6c8      	b.n	80025e8 <__aeabi_dsub+0xdc>
 8002856:	4a04      	ldr	r2, [pc, #16]	; (8002868 <__aeabi_dsub+0x35c>)
 8002858:	1a5b      	subs	r3, r3, r1
 800285a:	4010      	ands	r0, r2
 800285c:	4698      	mov	r8, r3
 800285e:	4681      	mov	r9, r0
 8002860:	e6d6      	b.n	8002610 <__aeabi_dsub+0x104>
 8002862:	46c0      	nop			; (mov r8, r8)
 8002864:	000007ff 	.word	0x000007ff
 8002868:	ff7fffff 	.word	0xff7fffff
 800286c:	fffff801 	.word	0xfffff801
 8002870:	000007fe 	.word	0x000007fe
 8002874:	430f      	orrs	r7, r1
 8002876:	1e7a      	subs	r2, r7, #1
 8002878:	4197      	sbcs	r7, r2
 800287a:	e691      	b.n	80025a0 <__aeabi_dsub+0x94>
 800287c:	4661      	mov	r1, ip
 800287e:	08db      	lsrs	r3, r3, #3
 8002880:	0749      	lsls	r1, r1, #29
 8002882:	430b      	orrs	r3, r1
 8002884:	4661      	mov	r1, ip
 8002886:	08cc      	lsrs	r4, r1, #3
 8002888:	e7b8      	b.n	80027fc <__aeabi_dsub+0x2f0>
 800288a:	4640      	mov	r0, r8
 800288c:	4cd3      	ldr	r4, [pc, #844]	; (8002bdc <__aeabi_dsub+0x6d0>)
 800288e:	3001      	adds	r0, #1
 8002890:	4220      	tst	r0, r4
 8002892:	d000      	beq.n	8002896 <__aeabi_dsub+0x38a>
 8002894:	e0a2      	b.n	80029dc <__aeabi_dsub+0x4d0>
 8002896:	4640      	mov	r0, r8
 8002898:	2800      	cmp	r0, #0
 800289a:	d000      	beq.n	800289e <__aeabi_dsub+0x392>
 800289c:	e101      	b.n	8002aa2 <__aeabi_dsub+0x596>
 800289e:	4660      	mov	r0, ip
 80028a0:	4318      	orrs	r0, r3
 80028a2:	d100      	bne.n	80028a6 <__aeabi_dsub+0x39a>
 80028a4:	e15e      	b.n	8002b64 <__aeabi_dsub+0x658>
 80028a6:	0008      	movs	r0, r1
 80028a8:	4338      	orrs	r0, r7
 80028aa:	d000      	beq.n	80028ae <__aeabi_dsub+0x3a2>
 80028ac:	e15f      	b.n	8002b6e <__aeabi_dsub+0x662>
 80028ae:	4661      	mov	r1, ip
 80028b0:	08db      	lsrs	r3, r3, #3
 80028b2:	0749      	lsls	r1, r1, #29
 80028b4:	430b      	orrs	r3, r1
 80028b6:	4661      	mov	r1, ip
 80028b8:	08cc      	lsrs	r4, r1, #3
 80028ba:	e7a2      	b.n	8002802 <__aeabi_dsub+0x2f6>
 80028bc:	4dc8      	ldr	r5, [pc, #800]	; (8002be0 <__aeabi_dsub+0x6d4>)
 80028be:	42a8      	cmp	r0, r5
 80028c0:	d100      	bne.n	80028c4 <__aeabi_dsub+0x3b8>
 80028c2:	e0cf      	b.n	8002a64 <__aeabi_dsub+0x558>
 80028c4:	2580      	movs	r5, #128	; 0x80
 80028c6:	4664      	mov	r4, ip
 80028c8:	042d      	lsls	r5, r5, #16
 80028ca:	432c      	orrs	r4, r5
 80028cc:	46a4      	mov	ip, r4
 80028ce:	2a38      	cmp	r2, #56	; 0x38
 80028d0:	dc56      	bgt.n	8002980 <__aeabi_dsub+0x474>
 80028d2:	2a1f      	cmp	r2, #31
 80028d4:	dd00      	ble.n	80028d8 <__aeabi_dsub+0x3cc>
 80028d6:	e0d1      	b.n	8002a7c <__aeabi_dsub+0x570>
 80028d8:	2520      	movs	r5, #32
 80028da:	001e      	movs	r6, r3
 80028dc:	1aad      	subs	r5, r5, r2
 80028de:	4664      	mov	r4, ip
 80028e0:	40ab      	lsls	r3, r5
 80028e2:	40ac      	lsls	r4, r5
 80028e4:	40d6      	lsrs	r6, r2
 80028e6:	1e5d      	subs	r5, r3, #1
 80028e8:	41ab      	sbcs	r3, r5
 80028ea:	4334      	orrs	r4, r6
 80028ec:	4323      	orrs	r3, r4
 80028ee:	4664      	mov	r4, ip
 80028f0:	40d4      	lsrs	r4, r2
 80028f2:	1b09      	subs	r1, r1, r4
 80028f4:	e049      	b.n	800298a <__aeabi_dsub+0x47e>
 80028f6:	4660      	mov	r0, ip
 80028f8:	1bdc      	subs	r4, r3, r7
 80028fa:	1a46      	subs	r6, r0, r1
 80028fc:	42a3      	cmp	r3, r4
 80028fe:	4180      	sbcs	r0, r0
 8002900:	4240      	negs	r0, r0
 8002902:	4681      	mov	r9, r0
 8002904:	0030      	movs	r0, r6
 8002906:	464e      	mov	r6, r9
 8002908:	1b80      	subs	r0, r0, r6
 800290a:	4681      	mov	r9, r0
 800290c:	0200      	lsls	r0, r0, #8
 800290e:	d476      	bmi.n	80029fe <__aeabi_dsub+0x4f2>
 8002910:	464b      	mov	r3, r9
 8002912:	4323      	orrs	r3, r4
 8002914:	d000      	beq.n	8002918 <__aeabi_dsub+0x40c>
 8002916:	e652      	b.n	80025be <__aeabi_dsub+0xb2>
 8002918:	2400      	movs	r4, #0
 800291a:	2500      	movs	r5, #0
 800291c:	e771      	b.n	8002802 <__aeabi_dsub+0x2f6>
 800291e:	4339      	orrs	r1, r7
 8002920:	000c      	movs	r4, r1
 8002922:	1e62      	subs	r2, r4, #1
 8002924:	4194      	sbcs	r4, r2
 8002926:	18e4      	adds	r4, r4, r3
 8002928:	429c      	cmp	r4, r3
 800292a:	419b      	sbcs	r3, r3
 800292c:	425b      	negs	r3, r3
 800292e:	4463      	add	r3, ip
 8002930:	4699      	mov	r9, r3
 8002932:	464b      	mov	r3, r9
 8002934:	021b      	lsls	r3, r3, #8
 8002936:	d400      	bmi.n	800293a <__aeabi_dsub+0x42e>
 8002938:	e756      	b.n	80027e8 <__aeabi_dsub+0x2dc>
 800293a:	2301      	movs	r3, #1
 800293c:	469c      	mov	ip, r3
 800293e:	4ba8      	ldr	r3, [pc, #672]	; (8002be0 <__aeabi_dsub+0x6d4>)
 8002940:	44e0      	add	r8, ip
 8002942:	4598      	cmp	r8, r3
 8002944:	d038      	beq.n	80029b8 <__aeabi_dsub+0x4ac>
 8002946:	464b      	mov	r3, r9
 8002948:	48a6      	ldr	r0, [pc, #664]	; (8002be4 <__aeabi_dsub+0x6d8>)
 800294a:	2201      	movs	r2, #1
 800294c:	4003      	ands	r3, r0
 800294e:	0018      	movs	r0, r3
 8002950:	0863      	lsrs	r3, r4, #1
 8002952:	4014      	ands	r4, r2
 8002954:	431c      	orrs	r4, r3
 8002956:	07c3      	lsls	r3, r0, #31
 8002958:	431c      	orrs	r4, r3
 800295a:	0843      	lsrs	r3, r0, #1
 800295c:	4699      	mov	r9, r3
 800295e:	e657      	b.n	8002610 <__aeabi_dsub+0x104>
 8002960:	0010      	movs	r0, r2
 8002962:	000e      	movs	r6, r1
 8002964:	3820      	subs	r0, #32
 8002966:	40c6      	lsrs	r6, r0
 8002968:	2a20      	cmp	r2, #32
 800296a:	d004      	beq.n	8002976 <__aeabi_dsub+0x46a>
 800296c:	2040      	movs	r0, #64	; 0x40
 800296e:	1a82      	subs	r2, r0, r2
 8002970:	4091      	lsls	r1, r2
 8002972:	430f      	orrs	r7, r1
 8002974:	46b9      	mov	r9, r7
 8002976:	464f      	mov	r7, r9
 8002978:	1e7a      	subs	r2, r7, #1
 800297a:	4197      	sbcs	r7, r2
 800297c:	4337      	orrs	r7, r6
 800297e:	e60f      	b.n	80025a0 <__aeabi_dsub+0x94>
 8002980:	4662      	mov	r2, ip
 8002982:	431a      	orrs	r2, r3
 8002984:	0013      	movs	r3, r2
 8002986:	1e5a      	subs	r2, r3, #1
 8002988:	4193      	sbcs	r3, r2
 800298a:	1afc      	subs	r4, r7, r3
 800298c:	42a7      	cmp	r7, r4
 800298e:	41bf      	sbcs	r7, r7
 8002990:	427f      	negs	r7, r7
 8002992:	1bcb      	subs	r3, r1, r7
 8002994:	4699      	mov	r9, r3
 8002996:	465d      	mov	r5, fp
 8002998:	4680      	mov	r8, r0
 800299a:	e608      	b.n	80025ae <__aeabi_dsub+0xa2>
 800299c:	4666      	mov	r6, ip
 800299e:	431e      	orrs	r6, r3
 80029a0:	d100      	bne.n	80029a4 <__aeabi_dsub+0x498>
 80029a2:	e0be      	b.n	8002b22 <__aeabi_dsub+0x616>
 80029a4:	1e56      	subs	r6, r2, #1
 80029a6:	2a01      	cmp	r2, #1
 80029a8:	d100      	bne.n	80029ac <__aeabi_dsub+0x4a0>
 80029aa:	e109      	b.n	8002bc0 <__aeabi_dsub+0x6b4>
 80029ac:	4c8c      	ldr	r4, [pc, #560]	; (8002be0 <__aeabi_dsub+0x6d4>)
 80029ae:	42a2      	cmp	r2, r4
 80029b0:	d100      	bne.n	80029b4 <__aeabi_dsub+0x4a8>
 80029b2:	e119      	b.n	8002be8 <__aeabi_dsub+0x6dc>
 80029b4:	0032      	movs	r2, r6
 80029b6:	e6c1      	b.n	800273c <__aeabi_dsub+0x230>
 80029b8:	4642      	mov	r2, r8
 80029ba:	2400      	movs	r4, #0
 80029bc:	2300      	movs	r3, #0
 80029be:	e648      	b.n	8002652 <__aeabi_dsub+0x146>
 80029c0:	2020      	movs	r0, #32
 80029c2:	000c      	movs	r4, r1
 80029c4:	1a80      	subs	r0, r0, r2
 80029c6:	003e      	movs	r6, r7
 80029c8:	4087      	lsls	r7, r0
 80029ca:	4084      	lsls	r4, r0
 80029cc:	40d6      	lsrs	r6, r2
 80029ce:	1e78      	subs	r0, r7, #1
 80029d0:	4187      	sbcs	r7, r0
 80029d2:	40d1      	lsrs	r1, r2
 80029d4:	4334      	orrs	r4, r6
 80029d6:	433c      	orrs	r4, r7
 80029d8:	448c      	add	ip, r1
 80029da:	e7a4      	b.n	8002926 <__aeabi_dsub+0x41a>
 80029dc:	4a80      	ldr	r2, [pc, #512]	; (8002be0 <__aeabi_dsub+0x6d4>)
 80029de:	4290      	cmp	r0, r2
 80029e0:	d100      	bne.n	80029e4 <__aeabi_dsub+0x4d8>
 80029e2:	e0e9      	b.n	8002bb8 <__aeabi_dsub+0x6ac>
 80029e4:	19df      	adds	r7, r3, r7
 80029e6:	429f      	cmp	r7, r3
 80029e8:	419b      	sbcs	r3, r3
 80029ea:	4461      	add	r1, ip
 80029ec:	425b      	negs	r3, r3
 80029ee:	18c9      	adds	r1, r1, r3
 80029f0:	07cc      	lsls	r4, r1, #31
 80029f2:	087f      	lsrs	r7, r7, #1
 80029f4:	084b      	lsrs	r3, r1, #1
 80029f6:	4699      	mov	r9, r3
 80029f8:	4680      	mov	r8, r0
 80029fa:	433c      	orrs	r4, r7
 80029fc:	e6f4      	b.n	80027e8 <__aeabi_dsub+0x2dc>
 80029fe:	1afc      	subs	r4, r7, r3
 8002a00:	42a7      	cmp	r7, r4
 8002a02:	41bf      	sbcs	r7, r7
 8002a04:	4663      	mov	r3, ip
 8002a06:	427f      	negs	r7, r7
 8002a08:	1ac9      	subs	r1, r1, r3
 8002a0a:	1bcb      	subs	r3, r1, r7
 8002a0c:	4699      	mov	r9, r3
 8002a0e:	465d      	mov	r5, fp
 8002a10:	e5d5      	b.n	80025be <__aeabi_dsub+0xb2>
 8002a12:	08ff      	lsrs	r7, r7, #3
 8002a14:	074b      	lsls	r3, r1, #29
 8002a16:	465d      	mov	r5, fp
 8002a18:	433b      	orrs	r3, r7
 8002a1a:	08cc      	lsrs	r4, r1, #3
 8002a1c:	e6ee      	b.n	80027fc <__aeabi_dsub+0x2f0>
 8002a1e:	4662      	mov	r2, ip
 8002a20:	431a      	orrs	r2, r3
 8002a22:	d000      	beq.n	8002a26 <__aeabi_dsub+0x51a>
 8002a24:	e082      	b.n	8002b2c <__aeabi_dsub+0x620>
 8002a26:	000b      	movs	r3, r1
 8002a28:	433b      	orrs	r3, r7
 8002a2a:	d11b      	bne.n	8002a64 <__aeabi_dsub+0x558>
 8002a2c:	2480      	movs	r4, #128	; 0x80
 8002a2e:	2500      	movs	r5, #0
 8002a30:	0324      	lsls	r4, r4, #12
 8002a32:	e6f9      	b.n	8002828 <__aeabi_dsub+0x31c>
 8002a34:	19dc      	adds	r4, r3, r7
 8002a36:	429c      	cmp	r4, r3
 8002a38:	419b      	sbcs	r3, r3
 8002a3a:	4461      	add	r1, ip
 8002a3c:	4689      	mov	r9, r1
 8002a3e:	425b      	negs	r3, r3
 8002a40:	4499      	add	r9, r3
 8002a42:	464b      	mov	r3, r9
 8002a44:	021b      	lsls	r3, r3, #8
 8002a46:	d444      	bmi.n	8002ad2 <__aeabi_dsub+0x5c6>
 8002a48:	2301      	movs	r3, #1
 8002a4a:	4698      	mov	r8, r3
 8002a4c:	e6cc      	b.n	80027e8 <__aeabi_dsub+0x2dc>
 8002a4e:	1bdc      	subs	r4, r3, r7
 8002a50:	4662      	mov	r2, ip
 8002a52:	42a3      	cmp	r3, r4
 8002a54:	419b      	sbcs	r3, r3
 8002a56:	1a51      	subs	r1, r2, r1
 8002a58:	425b      	negs	r3, r3
 8002a5a:	1acb      	subs	r3, r1, r3
 8002a5c:	4699      	mov	r9, r3
 8002a5e:	2301      	movs	r3, #1
 8002a60:	4698      	mov	r8, r3
 8002a62:	e5a4      	b.n	80025ae <__aeabi_dsub+0xa2>
 8002a64:	08ff      	lsrs	r7, r7, #3
 8002a66:	074b      	lsls	r3, r1, #29
 8002a68:	465d      	mov	r5, fp
 8002a6a:	433b      	orrs	r3, r7
 8002a6c:	08cc      	lsrs	r4, r1, #3
 8002a6e:	e6d7      	b.n	8002820 <__aeabi_dsub+0x314>
 8002a70:	4662      	mov	r2, ip
 8002a72:	431a      	orrs	r2, r3
 8002a74:	0014      	movs	r4, r2
 8002a76:	1e63      	subs	r3, r4, #1
 8002a78:	419c      	sbcs	r4, r3
 8002a7a:	e679      	b.n	8002770 <__aeabi_dsub+0x264>
 8002a7c:	0015      	movs	r5, r2
 8002a7e:	4664      	mov	r4, ip
 8002a80:	3d20      	subs	r5, #32
 8002a82:	40ec      	lsrs	r4, r5
 8002a84:	46a0      	mov	r8, r4
 8002a86:	2a20      	cmp	r2, #32
 8002a88:	d005      	beq.n	8002a96 <__aeabi_dsub+0x58a>
 8002a8a:	2540      	movs	r5, #64	; 0x40
 8002a8c:	4664      	mov	r4, ip
 8002a8e:	1aaa      	subs	r2, r5, r2
 8002a90:	4094      	lsls	r4, r2
 8002a92:	4323      	orrs	r3, r4
 8002a94:	469a      	mov	sl, r3
 8002a96:	4654      	mov	r4, sl
 8002a98:	1e63      	subs	r3, r4, #1
 8002a9a:	419c      	sbcs	r4, r3
 8002a9c:	4643      	mov	r3, r8
 8002a9e:	4323      	orrs	r3, r4
 8002aa0:	e773      	b.n	800298a <__aeabi_dsub+0x47e>
 8002aa2:	4662      	mov	r2, ip
 8002aa4:	431a      	orrs	r2, r3
 8002aa6:	d023      	beq.n	8002af0 <__aeabi_dsub+0x5e4>
 8002aa8:	000a      	movs	r2, r1
 8002aaa:	433a      	orrs	r2, r7
 8002aac:	d000      	beq.n	8002ab0 <__aeabi_dsub+0x5a4>
 8002aae:	e0a0      	b.n	8002bf2 <__aeabi_dsub+0x6e6>
 8002ab0:	4662      	mov	r2, ip
 8002ab2:	08db      	lsrs	r3, r3, #3
 8002ab4:	0752      	lsls	r2, r2, #29
 8002ab6:	4313      	orrs	r3, r2
 8002ab8:	4662      	mov	r2, ip
 8002aba:	08d4      	lsrs	r4, r2, #3
 8002abc:	e6b0      	b.n	8002820 <__aeabi_dsub+0x314>
 8002abe:	000b      	movs	r3, r1
 8002ac0:	433b      	orrs	r3, r7
 8002ac2:	d100      	bne.n	8002ac6 <__aeabi_dsub+0x5ba>
 8002ac4:	e728      	b.n	8002918 <__aeabi_dsub+0x40c>
 8002ac6:	08ff      	lsrs	r7, r7, #3
 8002ac8:	074b      	lsls	r3, r1, #29
 8002aca:	465d      	mov	r5, fp
 8002acc:	433b      	orrs	r3, r7
 8002ace:	08cc      	lsrs	r4, r1, #3
 8002ad0:	e697      	b.n	8002802 <__aeabi_dsub+0x2f6>
 8002ad2:	2302      	movs	r3, #2
 8002ad4:	4698      	mov	r8, r3
 8002ad6:	e736      	b.n	8002946 <__aeabi_dsub+0x43a>
 8002ad8:	1afc      	subs	r4, r7, r3
 8002ada:	42a7      	cmp	r7, r4
 8002adc:	41bf      	sbcs	r7, r7
 8002ade:	4663      	mov	r3, ip
 8002ae0:	427f      	negs	r7, r7
 8002ae2:	1ac9      	subs	r1, r1, r3
 8002ae4:	1bcb      	subs	r3, r1, r7
 8002ae6:	4699      	mov	r9, r3
 8002ae8:	2301      	movs	r3, #1
 8002aea:	465d      	mov	r5, fp
 8002aec:	4698      	mov	r8, r3
 8002aee:	e55e      	b.n	80025ae <__aeabi_dsub+0xa2>
 8002af0:	074b      	lsls	r3, r1, #29
 8002af2:	08ff      	lsrs	r7, r7, #3
 8002af4:	433b      	orrs	r3, r7
 8002af6:	08cc      	lsrs	r4, r1, #3
 8002af8:	e692      	b.n	8002820 <__aeabi_dsub+0x314>
 8002afa:	1bdc      	subs	r4, r3, r7
 8002afc:	4660      	mov	r0, ip
 8002afe:	42a3      	cmp	r3, r4
 8002b00:	41b6      	sbcs	r6, r6
 8002b02:	1a40      	subs	r0, r0, r1
 8002b04:	4276      	negs	r6, r6
 8002b06:	1b80      	subs	r0, r0, r6
 8002b08:	4681      	mov	r9, r0
 8002b0a:	0200      	lsls	r0, r0, #8
 8002b0c:	d560      	bpl.n	8002bd0 <__aeabi_dsub+0x6c4>
 8002b0e:	1afc      	subs	r4, r7, r3
 8002b10:	42a7      	cmp	r7, r4
 8002b12:	41bf      	sbcs	r7, r7
 8002b14:	4663      	mov	r3, ip
 8002b16:	427f      	negs	r7, r7
 8002b18:	1ac9      	subs	r1, r1, r3
 8002b1a:	1bcb      	subs	r3, r1, r7
 8002b1c:	4699      	mov	r9, r3
 8002b1e:	465d      	mov	r5, fp
 8002b20:	e576      	b.n	8002610 <__aeabi_dsub+0x104>
 8002b22:	08ff      	lsrs	r7, r7, #3
 8002b24:	074b      	lsls	r3, r1, #29
 8002b26:	433b      	orrs	r3, r7
 8002b28:	08cc      	lsrs	r4, r1, #3
 8002b2a:	e667      	b.n	80027fc <__aeabi_dsub+0x2f0>
 8002b2c:	000a      	movs	r2, r1
 8002b2e:	08db      	lsrs	r3, r3, #3
 8002b30:	433a      	orrs	r2, r7
 8002b32:	d100      	bne.n	8002b36 <__aeabi_dsub+0x62a>
 8002b34:	e66f      	b.n	8002816 <__aeabi_dsub+0x30a>
 8002b36:	4662      	mov	r2, ip
 8002b38:	0752      	lsls	r2, r2, #29
 8002b3a:	4313      	orrs	r3, r2
 8002b3c:	4662      	mov	r2, ip
 8002b3e:	08d4      	lsrs	r4, r2, #3
 8002b40:	2280      	movs	r2, #128	; 0x80
 8002b42:	0312      	lsls	r2, r2, #12
 8002b44:	4214      	tst	r4, r2
 8002b46:	d007      	beq.n	8002b58 <__aeabi_dsub+0x64c>
 8002b48:	08c8      	lsrs	r0, r1, #3
 8002b4a:	4210      	tst	r0, r2
 8002b4c:	d104      	bne.n	8002b58 <__aeabi_dsub+0x64c>
 8002b4e:	465d      	mov	r5, fp
 8002b50:	0004      	movs	r4, r0
 8002b52:	08fb      	lsrs	r3, r7, #3
 8002b54:	0749      	lsls	r1, r1, #29
 8002b56:	430b      	orrs	r3, r1
 8002b58:	0f5a      	lsrs	r2, r3, #29
 8002b5a:	00db      	lsls	r3, r3, #3
 8002b5c:	08db      	lsrs	r3, r3, #3
 8002b5e:	0752      	lsls	r2, r2, #29
 8002b60:	4313      	orrs	r3, r2
 8002b62:	e65d      	b.n	8002820 <__aeabi_dsub+0x314>
 8002b64:	074b      	lsls	r3, r1, #29
 8002b66:	08ff      	lsrs	r7, r7, #3
 8002b68:	433b      	orrs	r3, r7
 8002b6a:	08cc      	lsrs	r4, r1, #3
 8002b6c:	e649      	b.n	8002802 <__aeabi_dsub+0x2f6>
 8002b6e:	19dc      	adds	r4, r3, r7
 8002b70:	429c      	cmp	r4, r3
 8002b72:	419b      	sbcs	r3, r3
 8002b74:	4461      	add	r1, ip
 8002b76:	4689      	mov	r9, r1
 8002b78:	425b      	negs	r3, r3
 8002b7a:	4499      	add	r9, r3
 8002b7c:	464b      	mov	r3, r9
 8002b7e:	021b      	lsls	r3, r3, #8
 8002b80:	d400      	bmi.n	8002b84 <__aeabi_dsub+0x678>
 8002b82:	e631      	b.n	80027e8 <__aeabi_dsub+0x2dc>
 8002b84:	464a      	mov	r2, r9
 8002b86:	4b17      	ldr	r3, [pc, #92]	; (8002be4 <__aeabi_dsub+0x6d8>)
 8002b88:	401a      	ands	r2, r3
 8002b8a:	2301      	movs	r3, #1
 8002b8c:	4691      	mov	r9, r2
 8002b8e:	4698      	mov	r8, r3
 8002b90:	e62a      	b.n	80027e8 <__aeabi_dsub+0x2dc>
 8002b92:	0016      	movs	r6, r2
 8002b94:	4664      	mov	r4, ip
 8002b96:	3e20      	subs	r6, #32
 8002b98:	40f4      	lsrs	r4, r6
 8002b9a:	46a0      	mov	r8, r4
 8002b9c:	2a20      	cmp	r2, #32
 8002b9e:	d005      	beq.n	8002bac <__aeabi_dsub+0x6a0>
 8002ba0:	2640      	movs	r6, #64	; 0x40
 8002ba2:	4664      	mov	r4, ip
 8002ba4:	1ab2      	subs	r2, r6, r2
 8002ba6:	4094      	lsls	r4, r2
 8002ba8:	4323      	orrs	r3, r4
 8002baa:	469a      	mov	sl, r3
 8002bac:	4654      	mov	r4, sl
 8002bae:	1e63      	subs	r3, r4, #1
 8002bb0:	419c      	sbcs	r4, r3
 8002bb2:	4643      	mov	r3, r8
 8002bb4:	431c      	orrs	r4, r3
 8002bb6:	e5db      	b.n	8002770 <__aeabi_dsub+0x264>
 8002bb8:	0002      	movs	r2, r0
 8002bba:	2400      	movs	r4, #0
 8002bbc:	2300      	movs	r3, #0
 8002bbe:	e548      	b.n	8002652 <__aeabi_dsub+0x146>
 8002bc0:	19dc      	adds	r4, r3, r7
 8002bc2:	42bc      	cmp	r4, r7
 8002bc4:	41bf      	sbcs	r7, r7
 8002bc6:	4461      	add	r1, ip
 8002bc8:	4689      	mov	r9, r1
 8002bca:	427f      	negs	r7, r7
 8002bcc:	44b9      	add	r9, r7
 8002bce:	e738      	b.n	8002a42 <__aeabi_dsub+0x536>
 8002bd0:	464b      	mov	r3, r9
 8002bd2:	4323      	orrs	r3, r4
 8002bd4:	d100      	bne.n	8002bd8 <__aeabi_dsub+0x6cc>
 8002bd6:	e69f      	b.n	8002918 <__aeabi_dsub+0x40c>
 8002bd8:	e606      	b.n	80027e8 <__aeabi_dsub+0x2dc>
 8002bda:	46c0      	nop			; (mov r8, r8)
 8002bdc:	000007fe 	.word	0x000007fe
 8002be0:	000007ff 	.word	0x000007ff
 8002be4:	ff7fffff 	.word	0xff7fffff
 8002be8:	08ff      	lsrs	r7, r7, #3
 8002bea:	074b      	lsls	r3, r1, #29
 8002bec:	433b      	orrs	r3, r7
 8002bee:	08cc      	lsrs	r4, r1, #3
 8002bf0:	e616      	b.n	8002820 <__aeabi_dsub+0x314>
 8002bf2:	4662      	mov	r2, ip
 8002bf4:	08db      	lsrs	r3, r3, #3
 8002bf6:	0752      	lsls	r2, r2, #29
 8002bf8:	4313      	orrs	r3, r2
 8002bfa:	4662      	mov	r2, ip
 8002bfc:	08d4      	lsrs	r4, r2, #3
 8002bfe:	2280      	movs	r2, #128	; 0x80
 8002c00:	0312      	lsls	r2, r2, #12
 8002c02:	4214      	tst	r4, r2
 8002c04:	d007      	beq.n	8002c16 <__aeabi_dsub+0x70a>
 8002c06:	08c8      	lsrs	r0, r1, #3
 8002c08:	4210      	tst	r0, r2
 8002c0a:	d104      	bne.n	8002c16 <__aeabi_dsub+0x70a>
 8002c0c:	465d      	mov	r5, fp
 8002c0e:	0004      	movs	r4, r0
 8002c10:	08fb      	lsrs	r3, r7, #3
 8002c12:	0749      	lsls	r1, r1, #29
 8002c14:	430b      	orrs	r3, r1
 8002c16:	0f5a      	lsrs	r2, r3, #29
 8002c18:	00db      	lsls	r3, r3, #3
 8002c1a:	0752      	lsls	r2, r2, #29
 8002c1c:	08db      	lsrs	r3, r3, #3
 8002c1e:	4313      	orrs	r3, r2
 8002c20:	e5fe      	b.n	8002820 <__aeabi_dsub+0x314>
 8002c22:	2300      	movs	r3, #0
 8002c24:	4a01      	ldr	r2, [pc, #4]	; (8002c2c <__aeabi_dsub+0x720>)
 8002c26:	001c      	movs	r4, r3
 8002c28:	e513      	b.n	8002652 <__aeabi_dsub+0x146>
 8002c2a:	46c0      	nop			; (mov r8, r8)
 8002c2c:	000007ff 	.word	0x000007ff

08002c30 <__aeabi_dcmpun>:
 8002c30:	b570      	push	{r4, r5, r6, lr}
 8002c32:	0005      	movs	r5, r0
 8002c34:	480c      	ldr	r0, [pc, #48]	; (8002c68 <__aeabi_dcmpun+0x38>)
 8002c36:	031c      	lsls	r4, r3, #12
 8002c38:	0016      	movs	r6, r2
 8002c3a:	005b      	lsls	r3, r3, #1
 8002c3c:	030a      	lsls	r2, r1, #12
 8002c3e:	0049      	lsls	r1, r1, #1
 8002c40:	0b12      	lsrs	r2, r2, #12
 8002c42:	0d49      	lsrs	r1, r1, #21
 8002c44:	0b24      	lsrs	r4, r4, #12
 8002c46:	0d5b      	lsrs	r3, r3, #21
 8002c48:	4281      	cmp	r1, r0
 8002c4a:	d008      	beq.n	8002c5e <__aeabi_dcmpun+0x2e>
 8002c4c:	4a06      	ldr	r2, [pc, #24]	; (8002c68 <__aeabi_dcmpun+0x38>)
 8002c4e:	2000      	movs	r0, #0
 8002c50:	4293      	cmp	r3, r2
 8002c52:	d103      	bne.n	8002c5c <__aeabi_dcmpun+0x2c>
 8002c54:	0020      	movs	r0, r4
 8002c56:	4330      	orrs	r0, r6
 8002c58:	1e43      	subs	r3, r0, #1
 8002c5a:	4198      	sbcs	r0, r3
 8002c5c:	bd70      	pop	{r4, r5, r6, pc}
 8002c5e:	2001      	movs	r0, #1
 8002c60:	432a      	orrs	r2, r5
 8002c62:	d1fb      	bne.n	8002c5c <__aeabi_dcmpun+0x2c>
 8002c64:	e7f2      	b.n	8002c4c <__aeabi_dcmpun+0x1c>
 8002c66:	46c0      	nop			; (mov r8, r8)
 8002c68:	000007ff 	.word	0x000007ff

08002c6c <__aeabi_d2iz>:
 8002c6c:	000a      	movs	r2, r1
 8002c6e:	b530      	push	{r4, r5, lr}
 8002c70:	4c13      	ldr	r4, [pc, #76]	; (8002cc0 <__aeabi_d2iz+0x54>)
 8002c72:	0053      	lsls	r3, r2, #1
 8002c74:	0309      	lsls	r1, r1, #12
 8002c76:	0005      	movs	r5, r0
 8002c78:	0b09      	lsrs	r1, r1, #12
 8002c7a:	2000      	movs	r0, #0
 8002c7c:	0d5b      	lsrs	r3, r3, #21
 8002c7e:	0fd2      	lsrs	r2, r2, #31
 8002c80:	42a3      	cmp	r3, r4
 8002c82:	dd04      	ble.n	8002c8e <__aeabi_d2iz+0x22>
 8002c84:	480f      	ldr	r0, [pc, #60]	; (8002cc4 <__aeabi_d2iz+0x58>)
 8002c86:	4283      	cmp	r3, r0
 8002c88:	dd02      	ble.n	8002c90 <__aeabi_d2iz+0x24>
 8002c8a:	4b0f      	ldr	r3, [pc, #60]	; (8002cc8 <__aeabi_d2iz+0x5c>)
 8002c8c:	18d0      	adds	r0, r2, r3
 8002c8e:	bd30      	pop	{r4, r5, pc}
 8002c90:	2080      	movs	r0, #128	; 0x80
 8002c92:	0340      	lsls	r0, r0, #13
 8002c94:	4301      	orrs	r1, r0
 8002c96:	480d      	ldr	r0, [pc, #52]	; (8002ccc <__aeabi_d2iz+0x60>)
 8002c98:	1ac0      	subs	r0, r0, r3
 8002c9a:	281f      	cmp	r0, #31
 8002c9c:	dd08      	ble.n	8002cb0 <__aeabi_d2iz+0x44>
 8002c9e:	480c      	ldr	r0, [pc, #48]	; (8002cd0 <__aeabi_d2iz+0x64>)
 8002ca0:	1ac3      	subs	r3, r0, r3
 8002ca2:	40d9      	lsrs	r1, r3
 8002ca4:	000b      	movs	r3, r1
 8002ca6:	4258      	negs	r0, r3
 8002ca8:	2a00      	cmp	r2, #0
 8002caa:	d1f0      	bne.n	8002c8e <__aeabi_d2iz+0x22>
 8002cac:	0018      	movs	r0, r3
 8002cae:	e7ee      	b.n	8002c8e <__aeabi_d2iz+0x22>
 8002cb0:	4c08      	ldr	r4, [pc, #32]	; (8002cd4 <__aeabi_d2iz+0x68>)
 8002cb2:	40c5      	lsrs	r5, r0
 8002cb4:	46a4      	mov	ip, r4
 8002cb6:	4463      	add	r3, ip
 8002cb8:	4099      	lsls	r1, r3
 8002cba:	000b      	movs	r3, r1
 8002cbc:	432b      	orrs	r3, r5
 8002cbe:	e7f2      	b.n	8002ca6 <__aeabi_d2iz+0x3a>
 8002cc0:	000003fe 	.word	0x000003fe
 8002cc4:	0000041d 	.word	0x0000041d
 8002cc8:	7fffffff 	.word	0x7fffffff
 8002ccc:	00000433 	.word	0x00000433
 8002cd0:	00000413 	.word	0x00000413
 8002cd4:	fffffbed 	.word	0xfffffbed

08002cd8 <__aeabi_i2d>:
 8002cd8:	b570      	push	{r4, r5, r6, lr}
 8002cda:	2800      	cmp	r0, #0
 8002cdc:	d016      	beq.n	8002d0c <__aeabi_i2d+0x34>
 8002cde:	17c3      	asrs	r3, r0, #31
 8002ce0:	18c5      	adds	r5, r0, r3
 8002ce2:	405d      	eors	r5, r3
 8002ce4:	0fc4      	lsrs	r4, r0, #31
 8002ce6:	0028      	movs	r0, r5
 8002ce8:	f000 f91c 	bl	8002f24 <__clzsi2>
 8002cec:	4a11      	ldr	r2, [pc, #68]	; (8002d34 <__aeabi_i2d+0x5c>)
 8002cee:	1a12      	subs	r2, r2, r0
 8002cf0:	280a      	cmp	r0, #10
 8002cf2:	dc16      	bgt.n	8002d22 <__aeabi_i2d+0x4a>
 8002cf4:	0003      	movs	r3, r0
 8002cf6:	002e      	movs	r6, r5
 8002cf8:	3315      	adds	r3, #21
 8002cfa:	409e      	lsls	r6, r3
 8002cfc:	230b      	movs	r3, #11
 8002cfe:	1a18      	subs	r0, r3, r0
 8002d00:	40c5      	lsrs	r5, r0
 8002d02:	0552      	lsls	r2, r2, #21
 8002d04:	032d      	lsls	r5, r5, #12
 8002d06:	0b2d      	lsrs	r5, r5, #12
 8002d08:	0d53      	lsrs	r3, r2, #21
 8002d0a:	e003      	b.n	8002d14 <__aeabi_i2d+0x3c>
 8002d0c:	2400      	movs	r4, #0
 8002d0e:	2300      	movs	r3, #0
 8002d10:	2500      	movs	r5, #0
 8002d12:	2600      	movs	r6, #0
 8002d14:	051b      	lsls	r3, r3, #20
 8002d16:	432b      	orrs	r3, r5
 8002d18:	07e4      	lsls	r4, r4, #31
 8002d1a:	4323      	orrs	r3, r4
 8002d1c:	0030      	movs	r0, r6
 8002d1e:	0019      	movs	r1, r3
 8002d20:	bd70      	pop	{r4, r5, r6, pc}
 8002d22:	380b      	subs	r0, #11
 8002d24:	4085      	lsls	r5, r0
 8002d26:	0552      	lsls	r2, r2, #21
 8002d28:	032d      	lsls	r5, r5, #12
 8002d2a:	2600      	movs	r6, #0
 8002d2c:	0b2d      	lsrs	r5, r5, #12
 8002d2e:	0d53      	lsrs	r3, r2, #21
 8002d30:	e7f0      	b.n	8002d14 <__aeabi_i2d+0x3c>
 8002d32:	46c0      	nop			; (mov r8, r8)
 8002d34:	0000041e 	.word	0x0000041e

08002d38 <__aeabi_ui2d>:
 8002d38:	b510      	push	{r4, lr}
 8002d3a:	1e04      	subs	r4, r0, #0
 8002d3c:	d010      	beq.n	8002d60 <__aeabi_ui2d+0x28>
 8002d3e:	f000 f8f1 	bl	8002f24 <__clzsi2>
 8002d42:	4b0f      	ldr	r3, [pc, #60]	; (8002d80 <__aeabi_ui2d+0x48>)
 8002d44:	1a1b      	subs	r3, r3, r0
 8002d46:	280a      	cmp	r0, #10
 8002d48:	dc11      	bgt.n	8002d6e <__aeabi_ui2d+0x36>
 8002d4a:	220b      	movs	r2, #11
 8002d4c:	0021      	movs	r1, r4
 8002d4e:	1a12      	subs	r2, r2, r0
 8002d50:	40d1      	lsrs	r1, r2
 8002d52:	3015      	adds	r0, #21
 8002d54:	030a      	lsls	r2, r1, #12
 8002d56:	055b      	lsls	r3, r3, #21
 8002d58:	4084      	lsls	r4, r0
 8002d5a:	0b12      	lsrs	r2, r2, #12
 8002d5c:	0d5b      	lsrs	r3, r3, #21
 8002d5e:	e001      	b.n	8002d64 <__aeabi_ui2d+0x2c>
 8002d60:	2300      	movs	r3, #0
 8002d62:	2200      	movs	r2, #0
 8002d64:	051b      	lsls	r3, r3, #20
 8002d66:	4313      	orrs	r3, r2
 8002d68:	0020      	movs	r0, r4
 8002d6a:	0019      	movs	r1, r3
 8002d6c:	bd10      	pop	{r4, pc}
 8002d6e:	0022      	movs	r2, r4
 8002d70:	380b      	subs	r0, #11
 8002d72:	4082      	lsls	r2, r0
 8002d74:	055b      	lsls	r3, r3, #21
 8002d76:	0312      	lsls	r2, r2, #12
 8002d78:	2400      	movs	r4, #0
 8002d7a:	0b12      	lsrs	r2, r2, #12
 8002d7c:	0d5b      	lsrs	r3, r3, #21
 8002d7e:	e7f1      	b.n	8002d64 <__aeabi_ui2d+0x2c>
 8002d80:	0000041e 	.word	0x0000041e

08002d84 <__aeabi_f2d>:
 8002d84:	b570      	push	{r4, r5, r6, lr}
 8002d86:	0043      	lsls	r3, r0, #1
 8002d88:	0246      	lsls	r6, r0, #9
 8002d8a:	0fc4      	lsrs	r4, r0, #31
 8002d8c:	20fe      	movs	r0, #254	; 0xfe
 8002d8e:	0e1b      	lsrs	r3, r3, #24
 8002d90:	1c59      	adds	r1, r3, #1
 8002d92:	0a75      	lsrs	r5, r6, #9
 8002d94:	4208      	tst	r0, r1
 8002d96:	d00c      	beq.n	8002db2 <__aeabi_f2d+0x2e>
 8002d98:	22e0      	movs	r2, #224	; 0xe0
 8002d9a:	0092      	lsls	r2, r2, #2
 8002d9c:	4694      	mov	ip, r2
 8002d9e:	076d      	lsls	r5, r5, #29
 8002da0:	0b36      	lsrs	r6, r6, #12
 8002da2:	4463      	add	r3, ip
 8002da4:	051b      	lsls	r3, r3, #20
 8002da6:	4333      	orrs	r3, r6
 8002da8:	07e4      	lsls	r4, r4, #31
 8002daa:	4323      	orrs	r3, r4
 8002dac:	0028      	movs	r0, r5
 8002dae:	0019      	movs	r1, r3
 8002db0:	bd70      	pop	{r4, r5, r6, pc}
 8002db2:	2b00      	cmp	r3, #0
 8002db4:	d114      	bne.n	8002de0 <__aeabi_f2d+0x5c>
 8002db6:	2d00      	cmp	r5, #0
 8002db8:	d01b      	beq.n	8002df2 <__aeabi_f2d+0x6e>
 8002dba:	0028      	movs	r0, r5
 8002dbc:	f000 f8b2 	bl	8002f24 <__clzsi2>
 8002dc0:	280a      	cmp	r0, #10
 8002dc2:	dc1c      	bgt.n	8002dfe <__aeabi_f2d+0x7a>
 8002dc4:	230b      	movs	r3, #11
 8002dc6:	002e      	movs	r6, r5
 8002dc8:	1a1b      	subs	r3, r3, r0
 8002dca:	40de      	lsrs	r6, r3
 8002dcc:	0003      	movs	r3, r0
 8002dce:	3315      	adds	r3, #21
 8002dd0:	409d      	lsls	r5, r3
 8002dd2:	4a0e      	ldr	r2, [pc, #56]	; (8002e0c <__aeabi_f2d+0x88>)
 8002dd4:	0336      	lsls	r6, r6, #12
 8002dd6:	1a12      	subs	r2, r2, r0
 8002dd8:	0552      	lsls	r2, r2, #21
 8002dda:	0b36      	lsrs	r6, r6, #12
 8002ddc:	0d53      	lsrs	r3, r2, #21
 8002dde:	e7e1      	b.n	8002da4 <__aeabi_f2d+0x20>
 8002de0:	2d00      	cmp	r5, #0
 8002de2:	d009      	beq.n	8002df8 <__aeabi_f2d+0x74>
 8002de4:	2280      	movs	r2, #128	; 0x80
 8002de6:	0b36      	lsrs	r6, r6, #12
 8002de8:	0312      	lsls	r2, r2, #12
 8002dea:	4b09      	ldr	r3, [pc, #36]	; (8002e10 <__aeabi_f2d+0x8c>)
 8002dec:	076d      	lsls	r5, r5, #29
 8002dee:	4316      	orrs	r6, r2
 8002df0:	e7d8      	b.n	8002da4 <__aeabi_f2d+0x20>
 8002df2:	2300      	movs	r3, #0
 8002df4:	2600      	movs	r6, #0
 8002df6:	e7d5      	b.n	8002da4 <__aeabi_f2d+0x20>
 8002df8:	2600      	movs	r6, #0
 8002dfa:	4b05      	ldr	r3, [pc, #20]	; (8002e10 <__aeabi_f2d+0x8c>)
 8002dfc:	e7d2      	b.n	8002da4 <__aeabi_f2d+0x20>
 8002dfe:	0003      	movs	r3, r0
 8002e00:	3b0b      	subs	r3, #11
 8002e02:	409d      	lsls	r5, r3
 8002e04:	002e      	movs	r6, r5
 8002e06:	2500      	movs	r5, #0
 8002e08:	e7e3      	b.n	8002dd2 <__aeabi_f2d+0x4e>
 8002e0a:	46c0      	nop			; (mov r8, r8)
 8002e0c:	00000389 	.word	0x00000389
 8002e10:	000007ff 	.word	0x000007ff

08002e14 <__aeabi_d2f>:
 8002e14:	0002      	movs	r2, r0
 8002e16:	004b      	lsls	r3, r1, #1
 8002e18:	b5f0      	push	{r4, r5, r6, r7, lr}
 8002e1a:	0d5b      	lsrs	r3, r3, #21
 8002e1c:	030c      	lsls	r4, r1, #12
 8002e1e:	4e3d      	ldr	r6, [pc, #244]	; (8002f14 <__aeabi_d2f+0x100>)
 8002e20:	0a64      	lsrs	r4, r4, #9
 8002e22:	0f40      	lsrs	r0, r0, #29
 8002e24:	1c5f      	adds	r7, r3, #1
 8002e26:	0fc9      	lsrs	r1, r1, #31
 8002e28:	4304      	orrs	r4, r0
 8002e2a:	00d5      	lsls	r5, r2, #3
 8002e2c:	4237      	tst	r7, r6
 8002e2e:	d00a      	beq.n	8002e46 <__aeabi_d2f+0x32>
 8002e30:	4839      	ldr	r0, [pc, #228]	; (8002f18 <__aeabi_d2f+0x104>)
 8002e32:	181e      	adds	r6, r3, r0
 8002e34:	2efe      	cmp	r6, #254	; 0xfe
 8002e36:	dd16      	ble.n	8002e66 <__aeabi_d2f+0x52>
 8002e38:	20ff      	movs	r0, #255	; 0xff
 8002e3a:	2400      	movs	r4, #0
 8002e3c:	05c0      	lsls	r0, r0, #23
 8002e3e:	4320      	orrs	r0, r4
 8002e40:	07c9      	lsls	r1, r1, #31
 8002e42:	4308      	orrs	r0, r1
 8002e44:	bdf0      	pop	{r4, r5, r6, r7, pc}
 8002e46:	2b00      	cmp	r3, #0
 8002e48:	d106      	bne.n	8002e58 <__aeabi_d2f+0x44>
 8002e4a:	432c      	orrs	r4, r5
 8002e4c:	d026      	beq.n	8002e9c <__aeabi_d2f+0x88>
 8002e4e:	2205      	movs	r2, #5
 8002e50:	0192      	lsls	r2, r2, #6
 8002e52:	0a54      	lsrs	r4, r2, #9
 8002e54:	b2d8      	uxtb	r0, r3
 8002e56:	e7f1      	b.n	8002e3c <__aeabi_d2f+0x28>
 8002e58:	4325      	orrs	r5, r4
 8002e5a:	d0ed      	beq.n	8002e38 <__aeabi_d2f+0x24>
 8002e5c:	2080      	movs	r0, #128	; 0x80
 8002e5e:	03c0      	lsls	r0, r0, #15
 8002e60:	4304      	orrs	r4, r0
 8002e62:	20ff      	movs	r0, #255	; 0xff
 8002e64:	e7ea      	b.n	8002e3c <__aeabi_d2f+0x28>
 8002e66:	2e00      	cmp	r6, #0
 8002e68:	dd1b      	ble.n	8002ea2 <__aeabi_d2f+0x8e>
 8002e6a:	0192      	lsls	r2, r2, #6
 8002e6c:	1e53      	subs	r3, r2, #1
 8002e6e:	419a      	sbcs	r2, r3
 8002e70:	00e4      	lsls	r4, r4, #3
 8002e72:	0f6d      	lsrs	r5, r5, #29
 8002e74:	4322      	orrs	r2, r4
 8002e76:	432a      	orrs	r2, r5
 8002e78:	0753      	lsls	r3, r2, #29
 8002e7a:	d048      	beq.n	8002f0e <__aeabi_d2f+0xfa>
 8002e7c:	230f      	movs	r3, #15
 8002e7e:	4013      	ands	r3, r2
 8002e80:	2b04      	cmp	r3, #4
 8002e82:	d000      	beq.n	8002e86 <__aeabi_d2f+0x72>
 8002e84:	3204      	adds	r2, #4
 8002e86:	2380      	movs	r3, #128	; 0x80
 8002e88:	04db      	lsls	r3, r3, #19
 8002e8a:	4013      	ands	r3, r2
 8002e8c:	d03f      	beq.n	8002f0e <__aeabi_d2f+0xfa>
 8002e8e:	1c70      	adds	r0, r6, #1
 8002e90:	2efe      	cmp	r6, #254	; 0xfe
 8002e92:	d0d1      	beq.n	8002e38 <__aeabi_d2f+0x24>
 8002e94:	0192      	lsls	r2, r2, #6
 8002e96:	0a54      	lsrs	r4, r2, #9
 8002e98:	b2c0      	uxtb	r0, r0
 8002e9a:	e7cf      	b.n	8002e3c <__aeabi_d2f+0x28>
 8002e9c:	2000      	movs	r0, #0
 8002e9e:	2400      	movs	r4, #0
 8002ea0:	e7cc      	b.n	8002e3c <__aeabi_d2f+0x28>
 8002ea2:	0032      	movs	r2, r6
 8002ea4:	3217      	adds	r2, #23
 8002ea6:	db22      	blt.n	8002eee <__aeabi_d2f+0xda>
 8002ea8:	2080      	movs	r0, #128	; 0x80
 8002eaa:	0400      	lsls	r0, r0, #16
 8002eac:	4320      	orrs	r0, r4
 8002eae:	241e      	movs	r4, #30
 8002eb0:	1ba4      	subs	r4, r4, r6
 8002eb2:	2c1f      	cmp	r4, #31
 8002eb4:	dd1d      	ble.n	8002ef2 <__aeabi_d2f+0xde>
 8002eb6:	2202      	movs	r2, #2
 8002eb8:	4252      	negs	r2, r2
 8002eba:	1b96      	subs	r6, r2, r6
 8002ebc:	0002      	movs	r2, r0
 8002ebe:	40f2      	lsrs	r2, r6
 8002ec0:	0016      	movs	r6, r2
 8002ec2:	2c20      	cmp	r4, #32
 8002ec4:	d004      	beq.n	8002ed0 <__aeabi_d2f+0xbc>
 8002ec6:	4a15      	ldr	r2, [pc, #84]	; (8002f1c <__aeabi_d2f+0x108>)
 8002ec8:	4694      	mov	ip, r2
 8002eca:	4463      	add	r3, ip
 8002ecc:	4098      	lsls	r0, r3
 8002ece:	4305      	orrs	r5, r0
 8002ed0:	002a      	movs	r2, r5
 8002ed2:	1e53      	subs	r3, r2, #1
 8002ed4:	419a      	sbcs	r2, r3
 8002ed6:	4332      	orrs	r2, r6
 8002ed8:	2600      	movs	r6, #0
 8002eda:	0753      	lsls	r3, r2, #29
 8002edc:	d1ce      	bne.n	8002e7c <__aeabi_d2f+0x68>
 8002ede:	2480      	movs	r4, #128	; 0x80
 8002ee0:	0013      	movs	r3, r2
 8002ee2:	04e4      	lsls	r4, r4, #19
 8002ee4:	2001      	movs	r0, #1
 8002ee6:	4023      	ands	r3, r4
 8002ee8:	4222      	tst	r2, r4
 8002eea:	d1d3      	bne.n	8002e94 <__aeabi_d2f+0x80>
 8002eec:	e7b0      	b.n	8002e50 <__aeabi_d2f+0x3c>
 8002eee:	2300      	movs	r3, #0
 8002ef0:	e7ad      	b.n	8002e4e <__aeabi_d2f+0x3a>
 8002ef2:	4a0b      	ldr	r2, [pc, #44]	; (8002f20 <__aeabi_d2f+0x10c>)
 8002ef4:	4694      	mov	ip, r2
 8002ef6:	002a      	movs	r2, r5
 8002ef8:	40e2      	lsrs	r2, r4
 8002efa:	0014      	movs	r4, r2
 8002efc:	002a      	movs	r2, r5
 8002efe:	4463      	add	r3, ip
 8002f00:	409a      	lsls	r2, r3
 8002f02:	4098      	lsls	r0, r3
 8002f04:	1e55      	subs	r5, r2, #1
 8002f06:	41aa      	sbcs	r2, r5
 8002f08:	4302      	orrs	r2, r0
 8002f0a:	4322      	orrs	r2, r4
 8002f0c:	e7e4      	b.n	8002ed8 <__aeabi_d2f+0xc4>
 8002f0e:	0033      	movs	r3, r6
 8002f10:	e79e      	b.n	8002e50 <__aeabi_d2f+0x3c>
 8002f12:	46c0      	nop			; (mov r8, r8)
 8002f14:	000007fe 	.word	0x000007fe
 8002f18:	fffffc80 	.word	0xfffffc80
 8002f1c:	fffffca2 	.word	0xfffffca2
 8002f20:	fffffc82 	.word	0xfffffc82

08002f24 <__clzsi2>:
 8002f24:	211c      	movs	r1, #28
 8002f26:	2301      	movs	r3, #1
 8002f28:	041b      	lsls	r3, r3, #16
 8002f2a:	4298      	cmp	r0, r3
 8002f2c:	d301      	bcc.n	8002f32 <__clzsi2+0xe>
 8002f2e:	0c00      	lsrs	r0, r0, #16
 8002f30:	3910      	subs	r1, #16
 8002f32:	0a1b      	lsrs	r3, r3, #8
 8002f34:	4298      	cmp	r0, r3
 8002f36:	d301      	bcc.n	8002f3c <__clzsi2+0x18>
 8002f38:	0a00      	lsrs	r0, r0, #8
 8002f3a:	3908      	subs	r1, #8
 8002f3c:	091b      	lsrs	r3, r3, #4
 8002f3e:	4298      	cmp	r0, r3
 8002f40:	d301      	bcc.n	8002f46 <__clzsi2+0x22>
 8002f42:	0900      	lsrs	r0, r0, #4
 8002f44:	3904      	subs	r1, #4
 8002f46:	a202      	add	r2, pc, #8	; (adr r2, 8002f50 <__clzsi2+0x2c>)
 8002f48:	5c10      	ldrb	r0, [r2, r0]
 8002f4a:	1840      	adds	r0, r0, r1
 8002f4c:	4770      	bx	lr
 8002f4e:	46c0      	nop			; (mov r8, r8)
 8002f50:	02020304 	.word	0x02020304
 8002f54:	01010101 	.word	0x01010101
	...

08002f60 <Madgwick_init>:
    float roll;
    float pitch;
    float yaw;
    char anglesComputed;

void Madgwick_init(float sampleFrequency) {
 8002f60:	b580      	push	{r7, lr}
 8002f62:	b082      	sub	sp, #8
 8002f64:	af00      	add	r7, sp, #0
 8002f66:	6078      	str	r0, [r7, #4]
    beta = betaDef;
 8002f68:	4b11      	ldr	r3, [pc, #68]	; (8002fb0 <Madgwick_init+0x50>)
 8002f6a:	4a12      	ldr	r2, [pc, #72]	; (8002fb4 <Madgwick_init+0x54>)
 8002f6c:	601a      	str	r2, [r3, #0]
	q0 = 1.0f;
 8002f6e:	4b12      	ldr	r3, [pc, #72]	; (8002fb8 <Madgwick_init+0x58>)
 8002f70:	22fe      	movs	r2, #254	; 0xfe
 8002f72:	0592      	lsls	r2, r2, #22
 8002f74:	601a      	str	r2, [r3, #0]
	q1 = 0.0f;
 8002f76:	4b11      	ldr	r3, [pc, #68]	; (8002fbc <Madgwick_init+0x5c>)
 8002f78:	2200      	movs	r2, #0
 8002f7a:	601a      	str	r2, [r3, #0]
	q2 = 0.0f;
 8002f7c:	4b10      	ldr	r3, [pc, #64]	; (8002fc0 <Madgwick_init+0x60>)
 8002f7e:	2200      	movs	r2, #0
 8002f80:	601a      	str	r2, [r3, #0]
	q3 = 0.0f;
 8002f82:	4b10      	ldr	r3, [pc, #64]	; (8002fc4 <Madgwick_init+0x64>)
 8002f84:	2200      	movs	r2, #0
 8002f86:	601a      	str	r2, [r3, #0]
	invSampleFreq = 1.0f / sampleFreqDef;
 8002f88:	4b0f      	ldr	r3, [pc, #60]	; (8002fc8 <Madgwick_init+0x68>)
 8002f8a:	22ec      	movs	r2, #236	; 0xec
 8002f8c:	0592      	lsls	r2, r2, #22
 8002f8e:	601a      	str	r2, [r3, #0]
	anglesComputed = 0;
 8002f90:	4b0e      	ldr	r3, [pc, #56]	; (8002fcc <Madgwick_init+0x6c>)
 8002f92:	2200      	movs	r2, #0
 8002f94:	701a      	strb	r2, [r3, #0]

    invSampleFreq = 1.0f / sampleFrequency;
 8002f96:	6879      	ldr	r1, [r7, #4]
 8002f98:	20fe      	movs	r0, #254	; 0xfe
 8002f9a:	0580      	lsls	r0, r0, #22
 8002f9c:	f7fd fc5a 	bl	8000854 <__aeabi_fdiv>
 8002fa0:	1c03      	adds	r3, r0, #0
 8002fa2:	1c1a      	adds	r2, r3, #0
 8002fa4:	4b08      	ldr	r3, [pc, #32]	; (8002fc8 <Madgwick_init+0x68>)
 8002fa6:	601a      	str	r2, [r3, #0]
    }
 8002fa8:	46c0      	nop			; (mov r8, r8)
 8002faa:	46bd      	mov	sp, r7
 8002fac:	b002      	add	sp, #8
 8002fae:	bd80      	pop	{r7, pc}
 8002fb0:	200001f8 	.word	0x200001f8
 8002fb4:	3dcccccd 	.word	0x3dcccccd
 8002fb8:	200001fc 	.word	0x200001fc
 8002fbc:	20000200 	.word	0x20000200
 8002fc0:	20000204 	.word	0x20000204
 8002fc4:	20000208 	.word	0x20000208
 8002fc8:	2000020c 	.word	0x2000020c
 8002fcc:	2000021c 	.word	0x2000021c

08002fd0 <Madgwick_updateIMU>:
}

//-------------------------------------------------------------------------------------------
// IMU algorithm update

void Madgwick_updateIMU(float gx, float gy, float gz, float ax, float ay, float az) {
 8002fd0:	b590      	push	{r4, r7, lr}
 8002fd2:	b09b      	sub	sp, #108	; 0x6c
 8002fd4:	af00      	add	r7, sp, #0
 8002fd6:	60f8      	str	r0, [r7, #12]
 8002fd8:	60b9      	str	r1, [r7, #8]
 8002fda:	607a      	str	r2, [r7, #4]
 8002fdc:	603b      	str	r3, [r7, #0]
	float s0, s1, s2, s3;
	float qDot1, qDot2, qDot3, qDot4;
	float _2q0, _2q1, _2q2, _2q3, _4q0, _4q1, _4q2 ,_8q1, _8q2, q0q0, q1q1, q2q2, q3q3;

	// Convert gyroscope degrees/sec to radians/sec
	gx *= 0.0174533f;
 8002fde:	49fa      	ldr	r1, [pc, #1000]	; (80033c8 <Madgwick_updateIMU+0x3f8>)
 8002fe0:	68f8      	ldr	r0, [r7, #12]
 8002fe2:	f7fd fdff 	bl	8000be4 <__aeabi_fmul>
 8002fe6:	1c03      	adds	r3, r0, #0
 8002fe8:	60fb      	str	r3, [r7, #12]
	gy *= 0.0174533f;
 8002fea:	49f7      	ldr	r1, [pc, #988]	; (80033c8 <Madgwick_updateIMU+0x3f8>)
 8002fec:	68b8      	ldr	r0, [r7, #8]
 8002fee:	f7fd fdf9 	bl	8000be4 <__aeabi_fmul>
 8002ff2:	1c03      	adds	r3, r0, #0
 8002ff4:	60bb      	str	r3, [r7, #8]
	gz *= 0.0174533f;
 8002ff6:	49f4      	ldr	r1, [pc, #976]	; (80033c8 <Madgwick_updateIMU+0x3f8>)
 8002ff8:	6878      	ldr	r0, [r7, #4]
 8002ffa:	f7fd fdf3 	bl	8000be4 <__aeabi_fmul>
 8002ffe:	1c03      	adds	r3, r0, #0
 8003000:	607b      	str	r3, [r7, #4]

	// Rate of change of quaternion from gyroscope
	qDot1 = 0.5f * (-q1 * gx - q2 * gy - q3 * gz);
 8003002:	4bf2      	ldr	r3, [pc, #968]	; (80033cc <Madgwick_updateIMU+0x3fc>)
 8003004:	681b      	ldr	r3, [r3, #0]
 8003006:	2280      	movs	r2, #128	; 0x80
 8003008:	0612      	lsls	r2, r2, #24
 800300a:	4053      	eors	r3, r2
 800300c:	68f9      	ldr	r1, [r7, #12]
 800300e:	1c18      	adds	r0, r3, #0
 8003010:	f7fd fde8 	bl	8000be4 <__aeabi_fmul>
 8003014:	1c03      	adds	r3, r0, #0
 8003016:	1c1c      	adds	r4, r3, #0
 8003018:	4bed      	ldr	r3, [pc, #948]	; (80033d0 <Madgwick_updateIMU+0x400>)
 800301a:	681b      	ldr	r3, [r3, #0]
 800301c:	68b9      	ldr	r1, [r7, #8]
 800301e:	1c18      	adds	r0, r3, #0
 8003020:	f7fd fde0 	bl	8000be4 <__aeabi_fmul>
 8003024:	1c03      	adds	r3, r0, #0
 8003026:	1c19      	adds	r1, r3, #0
 8003028:	1c20      	adds	r0, r4, #0
 800302a:	f7fd ff01 	bl	8000e30 <__aeabi_fsub>
 800302e:	1c03      	adds	r3, r0, #0
 8003030:	1c1c      	adds	r4, r3, #0
 8003032:	4be8      	ldr	r3, [pc, #928]	; (80033d4 <Madgwick_updateIMU+0x404>)
 8003034:	681b      	ldr	r3, [r3, #0]
 8003036:	6879      	ldr	r1, [r7, #4]
 8003038:	1c18      	adds	r0, r3, #0
 800303a:	f7fd fdd3 	bl	8000be4 <__aeabi_fmul>
 800303e:	1c03      	adds	r3, r0, #0
 8003040:	1c19      	adds	r1, r3, #0
 8003042:	1c20      	adds	r0, r4, #0
 8003044:	f7fd fef4 	bl	8000e30 <__aeabi_fsub>
 8003048:	1c03      	adds	r3, r0, #0
 800304a:	21fc      	movs	r1, #252	; 0xfc
 800304c:	0589      	lsls	r1, r1, #22
 800304e:	1c18      	adds	r0, r3, #0
 8003050:	f7fd fdc8 	bl	8000be4 <__aeabi_fmul>
 8003054:	1c03      	adds	r3, r0, #0
 8003056:	667b      	str	r3, [r7, #100]	; 0x64
	qDot2 = 0.5f * (q0 * gx + q2 * gz - q3 * gy);
 8003058:	4bdf      	ldr	r3, [pc, #892]	; (80033d8 <Madgwick_updateIMU+0x408>)
 800305a:	681b      	ldr	r3, [r3, #0]
 800305c:	68f9      	ldr	r1, [r7, #12]
 800305e:	1c18      	adds	r0, r3, #0
 8003060:	f7fd fdc0 	bl	8000be4 <__aeabi_fmul>
 8003064:	1c03      	adds	r3, r0, #0
 8003066:	1c1c      	adds	r4, r3, #0
 8003068:	4bd9      	ldr	r3, [pc, #868]	; (80033d0 <Madgwick_updateIMU+0x400>)
 800306a:	681b      	ldr	r3, [r3, #0]
 800306c:	6879      	ldr	r1, [r7, #4]
 800306e:	1c18      	adds	r0, r3, #0
 8003070:	f7fd fdb8 	bl	8000be4 <__aeabi_fmul>
 8003074:	1c03      	adds	r3, r0, #0
 8003076:	1c19      	adds	r1, r3, #0
 8003078:	1c20      	adds	r0, r4, #0
 800307a:	f7fd fa4d 	bl	8000518 <__aeabi_fadd>
 800307e:	1c03      	adds	r3, r0, #0
 8003080:	1c1c      	adds	r4, r3, #0
 8003082:	4bd4      	ldr	r3, [pc, #848]	; (80033d4 <Madgwick_updateIMU+0x404>)
 8003084:	681b      	ldr	r3, [r3, #0]
 8003086:	68b9      	ldr	r1, [r7, #8]
 8003088:	1c18      	adds	r0, r3, #0
 800308a:	f7fd fdab 	bl	8000be4 <__aeabi_fmul>
 800308e:	1c03      	adds	r3, r0, #0
 8003090:	1c19      	adds	r1, r3, #0
 8003092:	1c20      	adds	r0, r4, #0
 8003094:	f7fd fecc 	bl	8000e30 <__aeabi_fsub>
 8003098:	1c03      	adds	r3, r0, #0
 800309a:	21fc      	movs	r1, #252	; 0xfc
 800309c:	0589      	lsls	r1, r1, #22
 800309e:	1c18      	adds	r0, r3, #0
 80030a0:	f7fd fda0 	bl	8000be4 <__aeabi_fmul>
 80030a4:	1c03      	adds	r3, r0, #0
 80030a6:	663b      	str	r3, [r7, #96]	; 0x60
	qDot3 = 0.5f * (q0 * gy - q1 * gz + q3 * gx);
 80030a8:	4bcb      	ldr	r3, [pc, #812]	; (80033d8 <Madgwick_updateIMU+0x408>)
 80030aa:	681b      	ldr	r3, [r3, #0]
 80030ac:	68b9      	ldr	r1, [r7, #8]
 80030ae:	1c18      	adds	r0, r3, #0
 80030b0:	f7fd fd98 	bl	8000be4 <__aeabi_fmul>
 80030b4:	1c03      	adds	r3, r0, #0
 80030b6:	1c1c      	adds	r4, r3, #0
 80030b8:	4bc4      	ldr	r3, [pc, #784]	; (80033cc <Madgwick_updateIMU+0x3fc>)
 80030ba:	681b      	ldr	r3, [r3, #0]
 80030bc:	6879      	ldr	r1, [r7, #4]
 80030be:	1c18      	adds	r0, r3, #0
 80030c0:	f7fd fd90 	bl	8000be4 <__aeabi_fmul>
 80030c4:	1c03      	adds	r3, r0, #0
 80030c6:	1c19      	adds	r1, r3, #0
 80030c8:	1c20      	adds	r0, r4, #0
 80030ca:	f7fd feb1 	bl	8000e30 <__aeabi_fsub>
 80030ce:	1c03      	adds	r3, r0, #0
 80030d0:	1c1c      	adds	r4, r3, #0
 80030d2:	4bc0      	ldr	r3, [pc, #768]	; (80033d4 <Madgwick_updateIMU+0x404>)
 80030d4:	681b      	ldr	r3, [r3, #0]
 80030d6:	68f9      	ldr	r1, [r7, #12]
 80030d8:	1c18      	adds	r0, r3, #0
 80030da:	f7fd fd83 	bl	8000be4 <__aeabi_fmul>
 80030de:	1c03      	adds	r3, r0, #0
 80030e0:	1c19      	adds	r1, r3, #0
 80030e2:	1c20      	adds	r0, r4, #0
 80030e4:	f7fd fa18 	bl	8000518 <__aeabi_fadd>
 80030e8:	1c03      	adds	r3, r0, #0
 80030ea:	21fc      	movs	r1, #252	; 0xfc
 80030ec:	0589      	lsls	r1, r1, #22
 80030ee:	1c18      	adds	r0, r3, #0
 80030f0:	f7fd fd78 	bl	8000be4 <__aeabi_fmul>
 80030f4:	1c03      	adds	r3, r0, #0
 80030f6:	65fb      	str	r3, [r7, #92]	; 0x5c
	qDot4 = 0.5f * (q0 * gz + q1 * gy - q2 * gx);
 80030f8:	4bb7      	ldr	r3, [pc, #732]	; (80033d8 <Madgwick_updateIMU+0x408>)
 80030fa:	681b      	ldr	r3, [r3, #0]
 80030fc:	6879      	ldr	r1, [r7, #4]
 80030fe:	1c18      	adds	r0, r3, #0
 8003100:	f7fd fd70 	bl	8000be4 <__aeabi_fmul>
 8003104:	1c03      	adds	r3, r0, #0
 8003106:	1c1c      	adds	r4, r3, #0
 8003108:	4bb0      	ldr	r3, [pc, #704]	; (80033cc <Madgwick_updateIMU+0x3fc>)
 800310a:	681b      	ldr	r3, [r3, #0]
 800310c:	68b9      	ldr	r1, [r7, #8]
 800310e:	1c18      	adds	r0, r3, #0
 8003110:	f7fd fd68 	bl	8000be4 <__aeabi_fmul>
 8003114:	1c03      	adds	r3, r0, #0
 8003116:	1c19      	adds	r1, r3, #0
 8003118:	1c20      	adds	r0, r4, #0
 800311a:	f7fd f9fd 	bl	8000518 <__aeabi_fadd>
 800311e:	1c03      	adds	r3, r0, #0
 8003120:	1c1c      	adds	r4, r3, #0
 8003122:	4bab      	ldr	r3, [pc, #684]	; (80033d0 <Madgwick_updateIMU+0x400>)
 8003124:	681b      	ldr	r3, [r3, #0]
 8003126:	68f9      	ldr	r1, [r7, #12]
 8003128:	1c18      	adds	r0, r3, #0
 800312a:	f7fd fd5b 	bl	8000be4 <__aeabi_fmul>
 800312e:	1c03      	adds	r3, r0, #0
 8003130:	1c19      	adds	r1, r3, #0
 8003132:	1c20      	adds	r0, r4, #0
 8003134:	f7fd fe7c 	bl	8000e30 <__aeabi_fsub>
 8003138:	1c03      	adds	r3, r0, #0
 800313a:	21fc      	movs	r1, #252	; 0xfc
 800313c:	0589      	lsls	r1, r1, #22
 800313e:	1c18      	adds	r0, r3, #0
 8003140:	f7fd fd50 	bl	8000be4 <__aeabi_fmul>
 8003144:	1c03      	adds	r3, r0, #0
 8003146:	65bb      	str	r3, [r7, #88]	; 0x58

	// Compute feedback only if accelerometer measurement valid (avoids NaN in accelerometer normalisation)
	if(!((ax == 0.0f) && (ay == 0.0f) && (az == 0.0f))) {
 8003148:	2100      	movs	r1, #0
 800314a:	6838      	ldr	r0, [r7, #0]
 800314c:	f7fd f9b6 	bl	80004bc <__aeabi_fcmpeq>
 8003150:	1e03      	subs	r3, r0, #0
 8003152:	d00c      	beq.n	800316e <Madgwick_updateIMU+0x19e>
 8003154:	2100      	movs	r1, #0
 8003156:	6fb8      	ldr	r0, [r7, #120]	; 0x78
 8003158:	f7fd f9b0 	bl	80004bc <__aeabi_fcmpeq>
 800315c:	1e03      	subs	r3, r0, #0
 800315e:	d006      	beq.n	800316e <Madgwick_updateIMU+0x19e>
 8003160:	2100      	movs	r1, #0
 8003162:	6ff8      	ldr	r0, [r7, #124]	; 0x7c
 8003164:	f7fd f9aa 	bl	80004bc <__aeabi_fcmpeq>
 8003168:	1e03      	subs	r3, r0, #0
 800316a:	d000      	beq.n	800316e <Madgwick_updateIMU+0x19e>
 800316c:	e235      	b.n	80035da <Madgwick_updateIMU+0x60a>

		// Normalise accelerometer measurement
		recipNorm = Madgwick_invSqrt(ax * ax + ay * ay + az * az);
 800316e:	6839      	ldr	r1, [r7, #0]
 8003170:	6838      	ldr	r0, [r7, #0]
 8003172:	f7fd fd37 	bl	8000be4 <__aeabi_fmul>
 8003176:	1c03      	adds	r3, r0, #0
 8003178:	1c1c      	adds	r4, r3, #0
 800317a:	6fb9      	ldr	r1, [r7, #120]	; 0x78
 800317c:	6fb8      	ldr	r0, [r7, #120]	; 0x78
 800317e:	f7fd fd31 	bl	8000be4 <__aeabi_fmul>
 8003182:	1c03      	adds	r3, r0, #0
 8003184:	1c19      	adds	r1, r3, #0
 8003186:	1c20      	adds	r0, r4, #0
 8003188:	f7fd f9c6 	bl	8000518 <__aeabi_fadd>
 800318c:	1c03      	adds	r3, r0, #0
 800318e:	1c1c      	adds	r4, r3, #0
 8003190:	6ff9      	ldr	r1, [r7, #124]	; 0x7c
 8003192:	6ff8      	ldr	r0, [r7, #124]	; 0x7c
 8003194:	f7fd fd26 	bl	8000be4 <__aeabi_fmul>
 8003198:	1c03      	adds	r3, r0, #0
 800319a:	1c19      	adds	r1, r3, #0
 800319c:	1c20      	adds	r0, r4, #0
 800319e:	f7fd f9bb 	bl	8000518 <__aeabi_fadd>
 80031a2:	1c03      	adds	r3, r0, #0
 80031a4:	1c18      	adds	r0, r3, #0
 80031a6:	f000 fad9 	bl	800375c <Madgwick_invSqrt>
 80031aa:	1c03      	adds	r3, r0, #0
 80031ac:	657b      	str	r3, [r7, #84]	; 0x54
		ax *= recipNorm;
 80031ae:	6d79      	ldr	r1, [r7, #84]	; 0x54
 80031b0:	6838      	ldr	r0, [r7, #0]
 80031b2:	f7fd fd17 	bl	8000be4 <__aeabi_fmul>
 80031b6:	1c03      	adds	r3, r0, #0
 80031b8:	603b      	str	r3, [r7, #0]
		ay *= recipNorm;
 80031ba:	6d79      	ldr	r1, [r7, #84]	; 0x54
 80031bc:	6fb8      	ldr	r0, [r7, #120]	; 0x78
 80031be:	f7fd fd11 	bl	8000be4 <__aeabi_fmul>
 80031c2:	1c03      	adds	r3, r0, #0
 80031c4:	67bb      	str	r3, [r7, #120]	; 0x78
		az *= recipNorm;
 80031c6:	6d79      	ldr	r1, [r7, #84]	; 0x54
 80031c8:	6ff8      	ldr	r0, [r7, #124]	; 0x7c
 80031ca:	f7fd fd0b 	bl	8000be4 <__aeabi_fmul>
 80031ce:	1c03      	adds	r3, r0, #0
 80031d0:	67fb      	str	r3, [r7, #124]	; 0x7c

		// Auxiliary variables to avoid repeated arithmetic
		_2q0 = 2.0f * q0;
 80031d2:	4b81      	ldr	r3, [pc, #516]	; (80033d8 <Madgwick_updateIMU+0x408>)
 80031d4:	681b      	ldr	r3, [r3, #0]
 80031d6:	1c19      	adds	r1, r3, #0
 80031d8:	1c18      	adds	r0, r3, #0
 80031da:	f7fd f99d 	bl	8000518 <__aeabi_fadd>
 80031de:	1c03      	adds	r3, r0, #0
 80031e0:	653b      	str	r3, [r7, #80]	; 0x50
		_2q1 = 2.0f * q1;
 80031e2:	4b7a      	ldr	r3, [pc, #488]	; (80033cc <Madgwick_updateIMU+0x3fc>)
 80031e4:	681b      	ldr	r3, [r3, #0]
 80031e6:	1c19      	adds	r1, r3, #0
 80031e8:	1c18      	adds	r0, r3, #0
 80031ea:	f7fd f995 	bl	8000518 <__aeabi_fadd>
 80031ee:	1c03      	adds	r3, r0, #0
 80031f0:	64fb      	str	r3, [r7, #76]	; 0x4c
		_2q2 = 2.0f * q2;
 80031f2:	4b77      	ldr	r3, [pc, #476]	; (80033d0 <Madgwick_updateIMU+0x400>)
 80031f4:	681b      	ldr	r3, [r3, #0]
 80031f6:	1c19      	adds	r1, r3, #0
 80031f8:	1c18      	adds	r0, r3, #0
 80031fa:	f7fd f98d 	bl	8000518 <__aeabi_fadd>
 80031fe:	1c03      	adds	r3, r0, #0
 8003200:	64bb      	str	r3, [r7, #72]	; 0x48
		_2q3 = 2.0f * q3;
 8003202:	4b74      	ldr	r3, [pc, #464]	; (80033d4 <Madgwick_updateIMU+0x404>)
 8003204:	681b      	ldr	r3, [r3, #0]
 8003206:	1c19      	adds	r1, r3, #0
 8003208:	1c18      	adds	r0, r3, #0
 800320a:	f7fd f985 	bl	8000518 <__aeabi_fadd>
 800320e:	1c03      	adds	r3, r0, #0
 8003210:	647b      	str	r3, [r7, #68]	; 0x44
		_4q0 = 4.0f * q0;
 8003212:	4b71      	ldr	r3, [pc, #452]	; (80033d8 <Madgwick_updateIMU+0x408>)
 8003214:	681b      	ldr	r3, [r3, #0]
 8003216:	2181      	movs	r1, #129	; 0x81
 8003218:	05c9      	lsls	r1, r1, #23
 800321a:	1c18      	adds	r0, r3, #0
 800321c:	f7fd fce2 	bl	8000be4 <__aeabi_fmul>
 8003220:	1c03      	adds	r3, r0, #0
 8003222:	643b      	str	r3, [r7, #64]	; 0x40
		_4q1 = 4.0f * q1;
 8003224:	4b69      	ldr	r3, [pc, #420]	; (80033cc <Madgwick_updateIMU+0x3fc>)
 8003226:	681b      	ldr	r3, [r3, #0]
 8003228:	2181      	movs	r1, #129	; 0x81
 800322a:	05c9      	lsls	r1, r1, #23
 800322c:	1c18      	adds	r0, r3, #0
 800322e:	f7fd fcd9 	bl	8000be4 <__aeabi_fmul>
 8003232:	1c03      	adds	r3, r0, #0
 8003234:	63fb      	str	r3, [r7, #60]	; 0x3c
		_4q2 = 4.0f * q2;
 8003236:	4b66      	ldr	r3, [pc, #408]	; (80033d0 <Madgwick_updateIMU+0x400>)
 8003238:	681b      	ldr	r3, [r3, #0]
 800323a:	2181      	movs	r1, #129	; 0x81
 800323c:	05c9      	lsls	r1, r1, #23
 800323e:	1c18      	adds	r0, r3, #0
 8003240:	f7fd fcd0 	bl	8000be4 <__aeabi_fmul>
 8003244:	1c03      	adds	r3, r0, #0
 8003246:	63bb      	str	r3, [r7, #56]	; 0x38
		_8q1 = 8.0f * q1;
 8003248:	4b60      	ldr	r3, [pc, #384]	; (80033cc <Madgwick_updateIMU+0x3fc>)
 800324a:	681b      	ldr	r3, [r3, #0]
 800324c:	2182      	movs	r1, #130	; 0x82
 800324e:	05c9      	lsls	r1, r1, #23
 8003250:	1c18      	adds	r0, r3, #0
 8003252:	f7fd fcc7 	bl	8000be4 <__aeabi_fmul>
 8003256:	1c03      	adds	r3, r0, #0
 8003258:	637b      	str	r3, [r7, #52]	; 0x34
		_8q2 = 8.0f * q2;
 800325a:	4b5d      	ldr	r3, [pc, #372]	; (80033d0 <Madgwick_updateIMU+0x400>)
 800325c:	681b      	ldr	r3, [r3, #0]
 800325e:	2182      	movs	r1, #130	; 0x82
 8003260:	05c9      	lsls	r1, r1, #23
 8003262:	1c18      	adds	r0, r3, #0
 8003264:	f7fd fcbe 	bl	8000be4 <__aeabi_fmul>
 8003268:	1c03      	adds	r3, r0, #0
 800326a:	633b      	str	r3, [r7, #48]	; 0x30
		q0q0 = q0 * q0;
 800326c:	4b5a      	ldr	r3, [pc, #360]	; (80033d8 <Madgwick_updateIMU+0x408>)
 800326e:	681a      	ldr	r2, [r3, #0]
 8003270:	4b59      	ldr	r3, [pc, #356]	; (80033d8 <Madgwick_updateIMU+0x408>)
 8003272:	681b      	ldr	r3, [r3, #0]
 8003274:	1c19      	adds	r1, r3, #0
 8003276:	1c10      	adds	r0, r2, #0
 8003278:	f7fd fcb4 	bl	8000be4 <__aeabi_fmul>
 800327c:	1c03      	adds	r3, r0, #0
 800327e:	62fb      	str	r3, [r7, #44]	; 0x2c
		q1q1 = q1 * q1;
 8003280:	4b52      	ldr	r3, [pc, #328]	; (80033cc <Madgwick_updateIMU+0x3fc>)
 8003282:	681a      	ldr	r2, [r3, #0]
 8003284:	4b51      	ldr	r3, [pc, #324]	; (80033cc <Madgwick_updateIMU+0x3fc>)
 8003286:	681b      	ldr	r3, [r3, #0]
 8003288:	1c19      	adds	r1, r3, #0
 800328a:	1c10      	adds	r0, r2, #0
 800328c:	f7fd fcaa 	bl	8000be4 <__aeabi_fmul>
 8003290:	1c03      	adds	r3, r0, #0
 8003292:	62bb      	str	r3, [r7, #40]	; 0x28
		q2q2 = q2 * q2;
 8003294:	4b4e      	ldr	r3, [pc, #312]	; (80033d0 <Madgwick_updateIMU+0x400>)
 8003296:	681a      	ldr	r2, [r3, #0]
 8003298:	4b4d      	ldr	r3, [pc, #308]	; (80033d0 <Madgwick_updateIMU+0x400>)
 800329a:	681b      	ldr	r3, [r3, #0]
 800329c:	1c19      	adds	r1, r3, #0
 800329e:	1c10      	adds	r0, r2, #0
 80032a0:	f7fd fca0 	bl	8000be4 <__aeabi_fmul>
 80032a4:	1c03      	adds	r3, r0, #0
 80032a6:	627b      	str	r3, [r7, #36]	; 0x24
		q3q3 = q3 * q3;
 80032a8:	4b4a      	ldr	r3, [pc, #296]	; (80033d4 <Madgwick_updateIMU+0x404>)
 80032aa:	681a      	ldr	r2, [r3, #0]
 80032ac:	4b49      	ldr	r3, [pc, #292]	; (80033d4 <Madgwick_updateIMU+0x404>)
 80032ae:	681b      	ldr	r3, [r3, #0]
 80032b0:	1c19      	adds	r1, r3, #0
 80032b2:	1c10      	adds	r0, r2, #0
 80032b4:	f7fd fc96 	bl	8000be4 <__aeabi_fmul>
 80032b8:	1c03      	adds	r3, r0, #0
 80032ba:	623b      	str	r3, [r7, #32]

		// Gradient decent algorithm corrective step
		s0 = _4q0 * q2q2 + _2q2 * ax + _4q0 * q1q1 - _2q1 * ay;
 80032bc:	6a79      	ldr	r1, [r7, #36]	; 0x24
 80032be:	6c38      	ldr	r0, [r7, #64]	; 0x40
 80032c0:	f7fd fc90 	bl	8000be4 <__aeabi_fmul>
 80032c4:	1c03      	adds	r3, r0, #0
 80032c6:	1c1c      	adds	r4, r3, #0
 80032c8:	6839      	ldr	r1, [r7, #0]
 80032ca:	6cb8      	ldr	r0, [r7, #72]	; 0x48
 80032cc:	f7fd fc8a 	bl	8000be4 <__aeabi_fmul>
 80032d0:	1c03      	adds	r3, r0, #0
 80032d2:	1c19      	adds	r1, r3, #0
 80032d4:	1c20      	adds	r0, r4, #0
 80032d6:	f7fd f91f 	bl	8000518 <__aeabi_fadd>
 80032da:	1c03      	adds	r3, r0, #0
 80032dc:	1c1c      	adds	r4, r3, #0
 80032de:	6ab9      	ldr	r1, [r7, #40]	; 0x28
 80032e0:	6c38      	ldr	r0, [r7, #64]	; 0x40
 80032e2:	f7fd fc7f 	bl	8000be4 <__aeabi_fmul>
 80032e6:	1c03      	adds	r3, r0, #0
 80032e8:	1c19      	adds	r1, r3, #0
 80032ea:	1c20      	adds	r0, r4, #0
 80032ec:	f7fd f914 	bl	8000518 <__aeabi_fadd>
 80032f0:	1c03      	adds	r3, r0, #0
 80032f2:	1c1c      	adds	r4, r3, #0
 80032f4:	6fb9      	ldr	r1, [r7, #120]	; 0x78
 80032f6:	6cf8      	ldr	r0, [r7, #76]	; 0x4c
 80032f8:	f7fd fc74 	bl	8000be4 <__aeabi_fmul>
 80032fc:	1c03      	adds	r3, r0, #0
 80032fe:	1c19      	adds	r1, r3, #0
 8003300:	1c20      	adds	r0, r4, #0
 8003302:	f7fd fd95 	bl	8000e30 <__aeabi_fsub>
 8003306:	1c03      	adds	r3, r0, #0
 8003308:	61fb      	str	r3, [r7, #28]
		s1 = _4q1 * q3q3 - _2q3 * ax + 4.0f * q0q0 * q1 - _2q0 * ay - _4q1 + _8q1 * q1q1 + _8q1 * q2q2 + _4q1 * az;
 800330a:	6a39      	ldr	r1, [r7, #32]
 800330c:	6bf8      	ldr	r0, [r7, #60]	; 0x3c
 800330e:	f7fd fc69 	bl	8000be4 <__aeabi_fmul>
 8003312:	1c03      	adds	r3, r0, #0
 8003314:	1c1c      	adds	r4, r3, #0
 8003316:	6839      	ldr	r1, [r7, #0]
 8003318:	6c78      	ldr	r0, [r7, #68]	; 0x44
 800331a:	f7fd fc63 	bl	8000be4 <__aeabi_fmul>
 800331e:	1c03      	adds	r3, r0, #0
 8003320:	1c19      	adds	r1, r3, #0
 8003322:	1c20      	adds	r0, r4, #0
 8003324:	f7fd fd84 	bl	8000e30 <__aeabi_fsub>
 8003328:	1c03      	adds	r3, r0, #0
 800332a:	1c1c      	adds	r4, r3, #0
 800332c:	2181      	movs	r1, #129	; 0x81
 800332e:	05c9      	lsls	r1, r1, #23
 8003330:	6af8      	ldr	r0, [r7, #44]	; 0x2c
 8003332:	f7fd fc57 	bl	8000be4 <__aeabi_fmul>
 8003336:	1c03      	adds	r3, r0, #0
 8003338:	1c1a      	adds	r2, r3, #0
 800333a:	4b24      	ldr	r3, [pc, #144]	; (80033cc <Madgwick_updateIMU+0x3fc>)
 800333c:	681b      	ldr	r3, [r3, #0]
 800333e:	1c19      	adds	r1, r3, #0
 8003340:	1c10      	adds	r0, r2, #0
 8003342:	f7fd fc4f 	bl	8000be4 <__aeabi_fmul>
 8003346:	1c03      	adds	r3, r0, #0
 8003348:	1c19      	adds	r1, r3, #0
 800334a:	1c20      	adds	r0, r4, #0
 800334c:	f7fd f8e4 	bl	8000518 <__aeabi_fadd>
 8003350:	1c03      	adds	r3, r0, #0
 8003352:	1c1c      	adds	r4, r3, #0
 8003354:	6fb9      	ldr	r1, [r7, #120]	; 0x78
 8003356:	6d38      	ldr	r0, [r7, #80]	; 0x50
 8003358:	f7fd fc44 	bl	8000be4 <__aeabi_fmul>
 800335c:	1c03      	adds	r3, r0, #0
 800335e:	1c19      	adds	r1, r3, #0
 8003360:	1c20      	adds	r0, r4, #0
 8003362:	f7fd fd65 	bl	8000e30 <__aeabi_fsub>
 8003366:	1c03      	adds	r3, r0, #0
 8003368:	6bf9      	ldr	r1, [r7, #60]	; 0x3c
 800336a:	1c18      	adds	r0, r3, #0
 800336c:	f7fd fd60 	bl	8000e30 <__aeabi_fsub>
 8003370:	1c03      	adds	r3, r0, #0
 8003372:	1c1c      	adds	r4, r3, #0
 8003374:	6ab9      	ldr	r1, [r7, #40]	; 0x28
 8003376:	6b78      	ldr	r0, [r7, #52]	; 0x34
 8003378:	f7fd fc34 	bl	8000be4 <__aeabi_fmul>
 800337c:	1c03      	adds	r3, r0, #0
 800337e:	1c19      	adds	r1, r3, #0
 8003380:	1c20      	adds	r0, r4, #0
 8003382:	f7fd f8c9 	bl	8000518 <__aeabi_fadd>
 8003386:	1c03      	adds	r3, r0, #0
 8003388:	1c1c      	adds	r4, r3, #0
 800338a:	6a79      	ldr	r1, [r7, #36]	; 0x24
 800338c:	6b78      	ldr	r0, [r7, #52]	; 0x34
 800338e:	f7fd fc29 	bl	8000be4 <__aeabi_fmul>
 8003392:	1c03      	adds	r3, r0, #0
 8003394:	1c19      	adds	r1, r3, #0
 8003396:	1c20      	adds	r0, r4, #0
 8003398:	f7fd f8be 	bl	8000518 <__aeabi_fadd>
 800339c:	1c03      	adds	r3, r0, #0
 800339e:	1c1c      	adds	r4, r3, #0
 80033a0:	6ff9      	ldr	r1, [r7, #124]	; 0x7c
 80033a2:	6bf8      	ldr	r0, [r7, #60]	; 0x3c
 80033a4:	f7fd fc1e 	bl	8000be4 <__aeabi_fmul>
 80033a8:	1c03      	adds	r3, r0, #0
 80033aa:	1c19      	adds	r1, r3, #0
 80033ac:	1c20      	adds	r0, r4, #0
 80033ae:	f7fd f8b3 	bl	8000518 <__aeabi_fadd>
 80033b2:	1c03      	adds	r3, r0, #0
 80033b4:	61bb      	str	r3, [r7, #24]
		s2 = 4.0f * q0q0 * q2 + _2q0 * ax + _4q2 * q3q3 - _2q3 * ay - _4q2 + _8q2 * q1q1 + _8q2 * q2q2 + _4q2 * az;
 80033b6:	2181      	movs	r1, #129	; 0x81
 80033b8:	05c9      	lsls	r1, r1, #23
 80033ba:	6af8      	ldr	r0, [r7, #44]	; 0x2c
 80033bc:	f7fd fc12 	bl	8000be4 <__aeabi_fmul>
 80033c0:	1c03      	adds	r3, r0, #0
 80033c2:	1c1a      	adds	r2, r3, #0
 80033c4:	e00a      	b.n	80033dc <Madgwick_updateIMU+0x40c>
 80033c6:	46c0      	nop			; (mov r8, r8)
 80033c8:	3c8efa39 	.word	0x3c8efa39
 80033cc:	20000200 	.word	0x20000200
 80033d0:	20000204 	.word	0x20000204
 80033d4:	20000208 	.word	0x20000208
 80033d8:	200001fc 	.word	0x200001fc
 80033dc:	4bd8      	ldr	r3, [pc, #864]	; (8003740 <Madgwick_updateIMU+0x770>)
 80033de:	681b      	ldr	r3, [r3, #0]
 80033e0:	1c19      	adds	r1, r3, #0
 80033e2:	1c10      	adds	r0, r2, #0
 80033e4:	f7fd fbfe 	bl	8000be4 <__aeabi_fmul>
 80033e8:	1c03      	adds	r3, r0, #0
 80033ea:	1c1c      	adds	r4, r3, #0
 80033ec:	6839      	ldr	r1, [r7, #0]
 80033ee:	6d38      	ldr	r0, [r7, #80]	; 0x50
 80033f0:	f7fd fbf8 	bl	8000be4 <__aeabi_fmul>
 80033f4:	1c03      	adds	r3, r0, #0
 80033f6:	1c19      	adds	r1, r3, #0
 80033f8:	1c20      	adds	r0, r4, #0
 80033fa:	f7fd f88d 	bl	8000518 <__aeabi_fadd>
 80033fe:	1c03      	adds	r3, r0, #0
 8003400:	1c1c      	adds	r4, r3, #0
 8003402:	6a39      	ldr	r1, [r7, #32]
 8003404:	6bb8      	ldr	r0, [r7, #56]	; 0x38
 8003406:	f7fd fbed 	bl	8000be4 <__aeabi_fmul>
 800340a:	1c03      	adds	r3, r0, #0
 800340c:	1c19      	adds	r1, r3, #0
 800340e:	1c20      	adds	r0, r4, #0
 8003410:	f7fd f882 	bl	8000518 <__aeabi_fadd>
 8003414:	1c03      	adds	r3, r0, #0
 8003416:	1c1c      	adds	r4, r3, #0
 8003418:	6fb9      	ldr	r1, [r7, #120]	; 0x78
 800341a:	6c78      	ldr	r0, [r7, #68]	; 0x44
 800341c:	f7fd fbe2 	bl	8000be4 <__aeabi_fmul>
 8003420:	1c03      	adds	r3, r0, #0
 8003422:	1c19      	adds	r1, r3, #0
 8003424:	1c20      	adds	r0, r4, #0
 8003426:	f7fd fd03 	bl	8000e30 <__aeabi_fsub>
 800342a:	1c03      	adds	r3, r0, #0
 800342c:	6bb9      	ldr	r1, [r7, #56]	; 0x38
 800342e:	1c18      	adds	r0, r3, #0
 8003430:	f7fd fcfe 	bl	8000e30 <__aeabi_fsub>
 8003434:	1c03      	adds	r3, r0, #0
 8003436:	1c1c      	adds	r4, r3, #0
 8003438:	6ab9      	ldr	r1, [r7, #40]	; 0x28
 800343a:	6b38      	ldr	r0, [r7, #48]	; 0x30
 800343c:	f7fd fbd2 	bl	8000be4 <__aeabi_fmul>
 8003440:	1c03      	adds	r3, r0, #0
 8003442:	1c19      	adds	r1, r3, #0
 8003444:	1c20      	adds	r0, r4, #0
 8003446:	f7fd f867 	bl	8000518 <__aeabi_fadd>
 800344a:	1c03      	adds	r3, r0, #0
 800344c:	1c1c      	adds	r4, r3, #0
 800344e:	6a79      	ldr	r1, [r7, #36]	; 0x24
 8003450:	6b38      	ldr	r0, [r7, #48]	; 0x30
 8003452:	f7fd fbc7 	bl	8000be4 <__aeabi_fmul>
 8003456:	1c03      	adds	r3, r0, #0
 8003458:	1c19      	adds	r1, r3, #0
 800345a:	1c20      	adds	r0, r4, #0
 800345c:	f7fd f85c 	bl	8000518 <__aeabi_fadd>
 8003460:	1c03      	adds	r3, r0, #0
 8003462:	1c1c      	adds	r4, r3, #0
 8003464:	6ff9      	ldr	r1, [r7, #124]	; 0x7c
 8003466:	6bb8      	ldr	r0, [r7, #56]	; 0x38
 8003468:	f7fd fbbc 	bl	8000be4 <__aeabi_fmul>
 800346c:	1c03      	adds	r3, r0, #0
 800346e:	1c19      	adds	r1, r3, #0
 8003470:	1c20      	adds	r0, r4, #0
 8003472:	f7fd f851 	bl	8000518 <__aeabi_fadd>
 8003476:	1c03      	adds	r3, r0, #0
 8003478:	617b      	str	r3, [r7, #20]
		s3 = 4.0f * q1q1 * q3 - _2q1 * ax + 4.0f * q2q2 * q3 - _2q2 * ay;
 800347a:	2181      	movs	r1, #129	; 0x81
 800347c:	05c9      	lsls	r1, r1, #23
 800347e:	6ab8      	ldr	r0, [r7, #40]	; 0x28
 8003480:	f7fd fbb0 	bl	8000be4 <__aeabi_fmul>
 8003484:	1c03      	adds	r3, r0, #0
 8003486:	1c1a      	adds	r2, r3, #0
 8003488:	4bae      	ldr	r3, [pc, #696]	; (8003744 <Madgwick_updateIMU+0x774>)
 800348a:	681b      	ldr	r3, [r3, #0]
 800348c:	1c19      	adds	r1, r3, #0
 800348e:	1c10      	adds	r0, r2, #0
 8003490:	f7fd fba8 	bl	8000be4 <__aeabi_fmul>
 8003494:	1c03      	adds	r3, r0, #0
 8003496:	1c1c      	adds	r4, r3, #0
 8003498:	6839      	ldr	r1, [r7, #0]
 800349a:	6cf8      	ldr	r0, [r7, #76]	; 0x4c
 800349c:	f7fd fba2 	bl	8000be4 <__aeabi_fmul>
 80034a0:	1c03      	adds	r3, r0, #0
 80034a2:	1c19      	adds	r1, r3, #0
 80034a4:	1c20      	adds	r0, r4, #0
 80034a6:	f7fd fcc3 	bl	8000e30 <__aeabi_fsub>
 80034aa:	1c03      	adds	r3, r0, #0
 80034ac:	1c1c      	adds	r4, r3, #0
 80034ae:	2181      	movs	r1, #129	; 0x81
 80034b0:	05c9      	lsls	r1, r1, #23
 80034b2:	6a78      	ldr	r0, [r7, #36]	; 0x24
 80034b4:	f7fd fb96 	bl	8000be4 <__aeabi_fmul>
 80034b8:	1c03      	adds	r3, r0, #0
 80034ba:	1c1a      	adds	r2, r3, #0
 80034bc:	4ba1      	ldr	r3, [pc, #644]	; (8003744 <Madgwick_updateIMU+0x774>)
 80034be:	681b      	ldr	r3, [r3, #0]
 80034c0:	1c19      	adds	r1, r3, #0
 80034c2:	1c10      	adds	r0, r2, #0
 80034c4:	f7fd fb8e 	bl	8000be4 <__aeabi_fmul>
 80034c8:	1c03      	adds	r3, r0, #0
 80034ca:	1c19      	adds	r1, r3, #0
 80034cc:	1c20      	adds	r0, r4, #0
 80034ce:	f7fd f823 	bl	8000518 <__aeabi_fadd>
 80034d2:	1c03      	adds	r3, r0, #0
 80034d4:	1c1c      	adds	r4, r3, #0
 80034d6:	6fb9      	ldr	r1, [r7, #120]	; 0x78
 80034d8:	6cb8      	ldr	r0, [r7, #72]	; 0x48
 80034da:	f7fd fb83 	bl	8000be4 <__aeabi_fmul>
 80034de:	1c03      	adds	r3, r0, #0
 80034e0:	1c19      	adds	r1, r3, #0
 80034e2:	1c20      	adds	r0, r4, #0
 80034e4:	f7fd fca4 	bl	8000e30 <__aeabi_fsub>
 80034e8:	1c03      	adds	r3, r0, #0
 80034ea:	613b      	str	r3, [r7, #16]
		recipNorm = Madgwick_invSqrt(s0 * s0 + s1 * s1 + s2 * s2 + s3 * s3); // normalise step magnitude
 80034ec:	69f9      	ldr	r1, [r7, #28]
 80034ee:	69f8      	ldr	r0, [r7, #28]
 80034f0:	f7fd fb78 	bl	8000be4 <__aeabi_fmul>
 80034f4:	1c03      	adds	r3, r0, #0
 80034f6:	1c1c      	adds	r4, r3, #0
 80034f8:	69b9      	ldr	r1, [r7, #24]
 80034fa:	69b8      	ldr	r0, [r7, #24]
 80034fc:	f7fd fb72 	bl	8000be4 <__aeabi_fmul>
 8003500:	1c03      	adds	r3, r0, #0
 8003502:	1c19      	adds	r1, r3, #0
 8003504:	1c20      	adds	r0, r4, #0
 8003506:	f7fd f807 	bl	8000518 <__aeabi_fadd>
 800350a:	1c03      	adds	r3, r0, #0
 800350c:	1c1c      	adds	r4, r3, #0
 800350e:	6979      	ldr	r1, [r7, #20]
 8003510:	6978      	ldr	r0, [r7, #20]
 8003512:	f7fd fb67 	bl	8000be4 <__aeabi_fmul>
 8003516:	1c03      	adds	r3, r0, #0
 8003518:	1c19      	adds	r1, r3, #0
 800351a:	1c20      	adds	r0, r4, #0
 800351c:	f7fc fffc 	bl	8000518 <__aeabi_fadd>
 8003520:	1c03      	adds	r3, r0, #0
 8003522:	1c1c      	adds	r4, r3, #0
 8003524:	6939      	ldr	r1, [r7, #16]
 8003526:	6938      	ldr	r0, [r7, #16]
 8003528:	f7fd fb5c 	bl	8000be4 <__aeabi_fmul>
 800352c:	1c03      	adds	r3, r0, #0
 800352e:	1c19      	adds	r1, r3, #0
 8003530:	1c20      	adds	r0, r4, #0
 8003532:	f7fc fff1 	bl	8000518 <__aeabi_fadd>
 8003536:	1c03      	adds	r3, r0, #0
 8003538:	1c18      	adds	r0, r3, #0
 800353a:	f000 f90f 	bl	800375c <Madgwick_invSqrt>
 800353e:	1c03      	adds	r3, r0, #0
 8003540:	657b      	str	r3, [r7, #84]	; 0x54
		s0 *= recipNorm;
 8003542:	6d79      	ldr	r1, [r7, #84]	; 0x54
 8003544:	69f8      	ldr	r0, [r7, #28]
 8003546:	f7fd fb4d 	bl	8000be4 <__aeabi_fmul>
 800354a:	1c03      	adds	r3, r0, #0
 800354c:	61fb      	str	r3, [r7, #28]
		s1 *= recipNorm;
 800354e:	6d79      	ldr	r1, [r7, #84]	; 0x54
 8003550:	69b8      	ldr	r0, [r7, #24]
 8003552:	f7fd fb47 	bl	8000be4 <__aeabi_fmul>
 8003556:	1c03      	adds	r3, r0, #0
 8003558:	61bb      	str	r3, [r7, #24]
		s2 *= recipNorm;
 800355a:	6d79      	ldr	r1, [r7, #84]	; 0x54
 800355c:	6978      	ldr	r0, [r7, #20]
 800355e:	f7fd fb41 	bl	8000be4 <__aeabi_fmul>
 8003562:	1c03      	adds	r3, r0, #0
 8003564:	617b      	str	r3, [r7, #20]
		s3 *= recipNorm;
 8003566:	6d79      	ldr	r1, [r7, #84]	; 0x54
 8003568:	6938      	ldr	r0, [r7, #16]
 800356a:	f7fd fb3b 	bl	8000be4 <__aeabi_fmul>
 800356e:	1c03      	adds	r3, r0, #0
 8003570:	613b      	str	r3, [r7, #16]

		// Apply feedback step
		qDot1 -= beta * s0;
 8003572:	4b75      	ldr	r3, [pc, #468]	; (8003748 <Madgwick_updateIMU+0x778>)
 8003574:	681b      	ldr	r3, [r3, #0]
 8003576:	69f9      	ldr	r1, [r7, #28]
 8003578:	1c18      	adds	r0, r3, #0
 800357a:	f7fd fb33 	bl	8000be4 <__aeabi_fmul>
 800357e:	1c03      	adds	r3, r0, #0
 8003580:	1c19      	adds	r1, r3, #0
 8003582:	6e78      	ldr	r0, [r7, #100]	; 0x64
 8003584:	f7fd fc54 	bl	8000e30 <__aeabi_fsub>
 8003588:	1c03      	adds	r3, r0, #0
 800358a:	667b      	str	r3, [r7, #100]	; 0x64
		qDot2 -= beta * s1;
 800358c:	4b6e      	ldr	r3, [pc, #440]	; (8003748 <Madgwick_updateIMU+0x778>)
 800358e:	681b      	ldr	r3, [r3, #0]
 8003590:	69b9      	ldr	r1, [r7, #24]
 8003592:	1c18      	adds	r0, r3, #0
 8003594:	f7fd fb26 	bl	8000be4 <__aeabi_fmul>
 8003598:	1c03      	adds	r3, r0, #0
 800359a:	1c19      	adds	r1, r3, #0
 800359c:	6e38      	ldr	r0, [r7, #96]	; 0x60
 800359e:	f7fd fc47 	bl	8000e30 <__aeabi_fsub>
 80035a2:	1c03      	adds	r3, r0, #0
 80035a4:	663b      	str	r3, [r7, #96]	; 0x60
		qDot3 -= beta * s2;
 80035a6:	4b68      	ldr	r3, [pc, #416]	; (8003748 <Madgwick_updateIMU+0x778>)
 80035a8:	681b      	ldr	r3, [r3, #0]
 80035aa:	6979      	ldr	r1, [r7, #20]
 80035ac:	1c18      	adds	r0, r3, #0
 80035ae:	f7fd fb19 	bl	8000be4 <__aeabi_fmul>
 80035b2:	1c03      	adds	r3, r0, #0
 80035b4:	1c19      	adds	r1, r3, #0
 80035b6:	6df8      	ldr	r0, [r7, #92]	; 0x5c
 80035b8:	f7fd fc3a 	bl	8000e30 <__aeabi_fsub>
 80035bc:	1c03      	adds	r3, r0, #0
 80035be:	65fb      	str	r3, [r7, #92]	; 0x5c
		qDot4 -= beta * s3;
 80035c0:	4b61      	ldr	r3, [pc, #388]	; (8003748 <Madgwick_updateIMU+0x778>)
 80035c2:	681b      	ldr	r3, [r3, #0]
 80035c4:	6939      	ldr	r1, [r7, #16]
 80035c6:	1c18      	adds	r0, r3, #0
 80035c8:	f7fd fb0c 	bl	8000be4 <__aeabi_fmul>
 80035cc:	1c03      	adds	r3, r0, #0
 80035ce:	1c19      	adds	r1, r3, #0
 80035d0:	6db8      	ldr	r0, [r7, #88]	; 0x58
 80035d2:	f7fd fc2d 	bl	8000e30 <__aeabi_fsub>
 80035d6:	1c03      	adds	r3, r0, #0
 80035d8:	65bb      	str	r3, [r7, #88]	; 0x58
	}

	// Integrate rate of change of quaternion to yield quaternion
	q0 += qDot1 * invSampleFreq;
 80035da:	4b5c      	ldr	r3, [pc, #368]	; (800374c <Madgwick_updateIMU+0x77c>)
 80035dc:	681b      	ldr	r3, [r3, #0]
 80035de:	6e79      	ldr	r1, [r7, #100]	; 0x64
 80035e0:	1c18      	adds	r0, r3, #0
 80035e2:	f7fd faff 	bl	8000be4 <__aeabi_fmul>
 80035e6:	1c03      	adds	r3, r0, #0
 80035e8:	1c1a      	adds	r2, r3, #0
 80035ea:	4b59      	ldr	r3, [pc, #356]	; (8003750 <Madgwick_updateIMU+0x780>)
 80035ec:	681b      	ldr	r3, [r3, #0]
 80035ee:	1c19      	adds	r1, r3, #0
 80035f0:	1c10      	adds	r0, r2, #0
 80035f2:	f7fc ff91 	bl	8000518 <__aeabi_fadd>
 80035f6:	1c03      	adds	r3, r0, #0
 80035f8:	1c1a      	adds	r2, r3, #0
 80035fa:	4b55      	ldr	r3, [pc, #340]	; (8003750 <Madgwick_updateIMU+0x780>)
 80035fc:	601a      	str	r2, [r3, #0]
	q1 += qDot2 * invSampleFreq;
 80035fe:	4b53      	ldr	r3, [pc, #332]	; (800374c <Madgwick_updateIMU+0x77c>)
 8003600:	681b      	ldr	r3, [r3, #0]
 8003602:	6e39      	ldr	r1, [r7, #96]	; 0x60
 8003604:	1c18      	adds	r0, r3, #0
 8003606:	f7fd faed 	bl	8000be4 <__aeabi_fmul>
 800360a:	1c03      	adds	r3, r0, #0
 800360c:	1c1a      	adds	r2, r3, #0
 800360e:	4b51      	ldr	r3, [pc, #324]	; (8003754 <Madgwick_updateIMU+0x784>)
 8003610:	681b      	ldr	r3, [r3, #0]
 8003612:	1c19      	adds	r1, r3, #0
 8003614:	1c10      	adds	r0, r2, #0
 8003616:	f7fc ff7f 	bl	8000518 <__aeabi_fadd>
 800361a:	1c03      	adds	r3, r0, #0
 800361c:	1c1a      	adds	r2, r3, #0
 800361e:	4b4d      	ldr	r3, [pc, #308]	; (8003754 <Madgwick_updateIMU+0x784>)
 8003620:	601a      	str	r2, [r3, #0]
	q2 += qDot3 * invSampleFreq;
 8003622:	4b4a      	ldr	r3, [pc, #296]	; (800374c <Madgwick_updateIMU+0x77c>)
 8003624:	681b      	ldr	r3, [r3, #0]
 8003626:	6df9      	ldr	r1, [r7, #92]	; 0x5c
 8003628:	1c18      	adds	r0, r3, #0
 800362a:	f7fd fadb 	bl	8000be4 <__aeabi_fmul>
 800362e:	1c03      	adds	r3, r0, #0
 8003630:	1c1a      	adds	r2, r3, #0
 8003632:	4b43      	ldr	r3, [pc, #268]	; (8003740 <Madgwick_updateIMU+0x770>)
 8003634:	681b      	ldr	r3, [r3, #0]
 8003636:	1c19      	adds	r1, r3, #0
 8003638:	1c10      	adds	r0, r2, #0
 800363a:	f7fc ff6d 	bl	8000518 <__aeabi_fadd>
 800363e:	1c03      	adds	r3, r0, #0
 8003640:	1c1a      	adds	r2, r3, #0
 8003642:	4b3f      	ldr	r3, [pc, #252]	; (8003740 <Madgwick_updateIMU+0x770>)
 8003644:	601a      	str	r2, [r3, #0]
	q3 += qDot4 * invSampleFreq;
 8003646:	4b41      	ldr	r3, [pc, #260]	; (800374c <Madgwick_updateIMU+0x77c>)
 8003648:	681b      	ldr	r3, [r3, #0]
 800364a:	6db9      	ldr	r1, [r7, #88]	; 0x58
 800364c:	1c18      	adds	r0, r3, #0
 800364e:	f7fd fac9 	bl	8000be4 <__aeabi_fmul>
 8003652:	1c03      	adds	r3, r0, #0
 8003654:	1c1a      	adds	r2, r3, #0
 8003656:	4b3b      	ldr	r3, [pc, #236]	; (8003744 <Madgwick_updateIMU+0x774>)
 8003658:	681b      	ldr	r3, [r3, #0]
 800365a:	1c19      	adds	r1, r3, #0
 800365c:	1c10      	adds	r0, r2, #0
 800365e:	f7fc ff5b 	bl	8000518 <__aeabi_fadd>
 8003662:	1c03      	adds	r3, r0, #0
 8003664:	1c1a      	adds	r2, r3, #0
 8003666:	4b37      	ldr	r3, [pc, #220]	; (8003744 <Madgwick_updateIMU+0x774>)
 8003668:	601a      	str	r2, [r3, #0]

	// Normalise quaternion
	recipNorm = Madgwick_invSqrt(q0 * q0 + q1 * q1 + q2 * q2 + q3 * q3);
 800366a:	4b39      	ldr	r3, [pc, #228]	; (8003750 <Madgwick_updateIMU+0x780>)
 800366c:	681a      	ldr	r2, [r3, #0]
 800366e:	4b38      	ldr	r3, [pc, #224]	; (8003750 <Madgwick_updateIMU+0x780>)
 8003670:	681b      	ldr	r3, [r3, #0]
 8003672:	1c19      	adds	r1, r3, #0
 8003674:	1c10      	adds	r0, r2, #0
 8003676:	f7fd fab5 	bl	8000be4 <__aeabi_fmul>
 800367a:	1c03      	adds	r3, r0, #0
 800367c:	1c1c      	adds	r4, r3, #0
 800367e:	4b35      	ldr	r3, [pc, #212]	; (8003754 <Madgwick_updateIMU+0x784>)
 8003680:	681a      	ldr	r2, [r3, #0]
 8003682:	4b34      	ldr	r3, [pc, #208]	; (8003754 <Madgwick_updateIMU+0x784>)
 8003684:	681b      	ldr	r3, [r3, #0]
 8003686:	1c19      	adds	r1, r3, #0
 8003688:	1c10      	adds	r0, r2, #0
 800368a:	f7fd faab 	bl	8000be4 <__aeabi_fmul>
 800368e:	1c03      	adds	r3, r0, #0
 8003690:	1c19      	adds	r1, r3, #0
 8003692:	1c20      	adds	r0, r4, #0
 8003694:	f7fc ff40 	bl	8000518 <__aeabi_fadd>
 8003698:	1c03      	adds	r3, r0, #0
 800369a:	1c1c      	adds	r4, r3, #0
 800369c:	4b28      	ldr	r3, [pc, #160]	; (8003740 <Madgwick_updateIMU+0x770>)
 800369e:	681a      	ldr	r2, [r3, #0]
 80036a0:	4b27      	ldr	r3, [pc, #156]	; (8003740 <Madgwick_updateIMU+0x770>)
 80036a2:	681b      	ldr	r3, [r3, #0]
 80036a4:	1c19      	adds	r1, r3, #0
 80036a6:	1c10      	adds	r0, r2, #0
 80036a8:	f7fd fa9c 	bl	8000be4 <__aeabi_fmul>
 80036ac:	1c03      	adds	r3, r0, #0
 80036ae:	1c19      	adds	r1, r3, #0
 80036b0:	1c20      	adds	r0, r4, #0
 80036b2:	f7fc ff31 	bl	8000518 <__aeabi_fadd>
 80036b6:	1c03      	adds	r3, r0, #0
 80036b8:	1c1c      	adds	r4, r3, #0
 80036ba:	4b22      	ldr	r3, [pc, #136]	; (8003744 <Madgwick_updateIMU+0x774>)
 80036bc:	681a      	ldr	r2, [r3, #0]
 80036be:	4b21      	ldr	r3, [pc, #132]	; (8003744 <Madgwick_updateIMU+0x774>)
 80036c0:	681b      	ldr	r3, [r3, #0]
 80036c2:	1c19      	adds	r1, r3, #0
 80036c4:	1c10      	adds	r0, r2, #0
 80036c6:	f7fd fa8d 	bl	8000be4 <__aeabi_fmul>
 80036ca:	1c03      	adds	r3, r0, #0
 80036cc:	1c19      	adds	r1, r3, #0
 80036ce:	1c20      	adds	r0, r4, #0
 80036d0:	f7fc ff22 	bl	8000518 <__aeabi_fadd>
 80036d4:	1c03      	adds	r3, r0, #0
 80036d6:	1c18      	adds	r0, r3, #0
 80036d8:	f000 f840 	bl	800375c <Madgwick_invSqrt>
 80036dc:	1c03      	adds	r3, r0, #0
 80036de:	657b      	str	r3, [r7, #84]	; 0x54
	q0 *= recipNorm;
 80036e0:	4b1b      	ldr	r3, [pc, #108]	; (8003750 <Madgwick_updateIMU+0x780>)
 80036e2:	681b      	ldr	r3, [r3, #0]
 80036e4:	6d79      	ldr	r1, [r7, #84]	; 0x54
 80036e6:	1c18      	adds	r0, r3, #0
 80036e8:	f7fd fa7c 	bl	8000be4 <__aeabi_fmul>
 80036ec:	1c03      	adds	r3, r0, #0
 80036ee:	1c1a      	adds	r2, r3, #0
 80036f0:	4b17      	ldr	r3, [pc, #92]	; (8003750 <Madgwick_updateIMU+0x780>)
 80036f2:	601a      	str	r2, [r3, #0]
	q1 *= recipNorm;
 80036f4:	4b17      	ldr	r3, [pc, #92]	; (8003754 <Madgwick_updateIMU+0x784>)
 80036f6:	681b      	ldr	r3, [r3, #0]
 80036f8:	6d79      	ldr	r1, [r7, #84]	; 0x54
 80036fa:	1c18      	adds	r0, r3, #0
 80036fc:	f7fd fa72 	bl	8000be4 <__aeabi_fmul>
 8003700:	1c03      	adds	r3, r0, #0
 8003702:	1c1a      	adds	r2, r3, #0
 8003704:	4b13      	ldr	r3, [pc, #76]	; (8003754 <Madgwick_updateIMU+0x784>)
 8003706:	601a      	str	r2, [r3, #0]
	q2 *= recipNorm;
 8003708:	4b0d      	ldr	r3, [pc, #52]	; (8003740 <Madgwick_updateIMU+0x770>)
 800370a:	681b      	ldr	r3, [r3, #0]
 800370c:	6d79      	ldr	r1, [r7, #84]	; 0x54
 800370e:	1c18      	adds	r0, r3, #0
 8003710:	f7fd fa68 	bl	8000be4 <__aeabi_fmul>
 8003714:	1c03      	adds	r3, r0, #0
 8003716:	1c1a      	adds	r2, r3, #0
 8003718:	4b09      	ldr	r3, [pc, #36]	; (8003740 <Madgwick_updateIMU+0x770>)
 800371a:	601a      	str	r2, [r3, #0]
	q3 *= recipNorm;
 800371c:	4b09      	ldr	r3, [pc, #36]	; (8003744 <Madgwick_updateIMU+0x774>)
 800371e:	681b      	ldr	r3, [r3, #0]
 8003720:	6d79      	ldr	r1, [r7, #84]	; 0x54
 8003722:	1c18      	adds	r0, r3, #0
 8003724:	f7fd fa5e 	bl	8000be4 <__aeabi_fmul>
 8003728:	1c03      	adds	r3, r0, #0
 800372a:	1c1a      	adds	r2, r3, #0
 800372c:	4b05      	ldr	r3, [pc, #20]	; (8003744 <Madgwick_updateIMU+0x774>)
 800372e:	601a      	str	r2, [r3, #0]
	anglesComputed = 0;
 8003730:	4b09      	ldr	r3, [pc, #36]	; (8003758 <Madgwick_updateIMU+0x788>)
 8003732:	2200      	movs	r2, #0
 8003734:	701a      	strb	r2, [r3, #0]
}
 8003736:	46c0      	nop			; (mov r8, r8)
 8003738:	46bd      	mov	sp, r7
 800373a:	b01b      	add	sp, #108	; 0x6c
 800373c:	bd90      	pop	{r4, r7, pc}
 800373e:	46c0      	nop			; (mov r8, r8)
 8003740:	20000204 	.word	0x20000204
 8003744:	20000208 	.word	0x20000208
 8003748:	200001f8 	.word	0x200001f8
 800374c:	2000020c 	.word	0x2000020c
 8003750:	200001fc 	.word	0x200001fc
 8003754:	20000200 	.word	0x20000200
 8003758:	2000021c 	.word	0x2000021c

0800375c <Madgwick_invSqrt>:

static float Madgwick_invSqrt(float x) {
 800375c:	b580      	push	{r7, lr}
 800375e:	b086      	sub	sp, #24
 8003760:	af00      	add	r7, sp, #0
 8003762:	6078      	str	r0, [r7, #4]
	float halfx = 0.5f * x;
 8003764:	21fc      	movs	r1, #252	; 0xfc
 8003766:	0589      	lsls	r1, r1, #22
 8003768:	6878      	ldr	r0, [r7, #4]
 800376a:	f7fd fa3b 	bl	8000be4 <__aeabi_fmul>
 800376e:	1c03      	adds	r3, r0, #0
 8003770:	617b      	str	r3, [r7, #20]
	float y = x;
 8003772:	687b      	ldr	r3, [r7, #4]
 8003774:	613b      	str	r3, [r7, #16]
	long i = *(long*)&y;
 8003776:	2310      	movs	r3, #16
 8003778:	18fb      	adds	r3, r7, r3
 800377a:	681b      	ldr	r3, [r3, #0]
 800377c:	60fb      	str	r3, [r7, #12]
	i = 0x5f3759df - (i>>1);
 800377e:	68fb      	ldr	r3, [r7, #12]
 8003780:	105b      	asrs	r3, r3, #1
 8003782:	4a21      	ldr	r2, [pc, #132]	; (8003808 <Madgwick_invSqrt+0xac>)
 8003784:	1ad3      	subs	r3, r2, r3
 8003786:	60fb      	str	r3, [r7, #12]
	y = *(float*)&i;
 8003788:	230c      	movs	r3, #12
 800378a:	18fb      	adds	r3, r7, r3
 800378c:	681b      	ldr	r3, [r3, #0]
 800378e:	613b      	str	r3, [r7, #16]
	y = y * (1.5f - (halfx * y * y));
 8003790:	693b      	ldr	r3, [r7, #16]
 8003792:	6979      	ldr	r1, [r7, #20]
 8003794:	1c18      	adds	r0, r3, #0
 8003796:	f7fd fa25 	bl	8000be4 <__aeabi_fmul>
 800379a:	1c03      	adds	r3, r0, #0
 800379c:	1c1a      	adds	r2, r3, #0
 800379e:	693b      	ldr	r3, [r7, #16]
 80037a0:	1c19      	adds	r1, r3, #0
 80037a2:	1c10      	adds	r0, r2, #0
 80037a4:	f7fd fa1e 	bl	8000be4 <__aeabi_fmul>
 80037a8:	1c03      	adds	r3, r0, #0
 80037aa:	1c19      	adds	r1, r3, #0
 80037ac:	20ff      	movs	r0, #255	; 0xff
 80037ae:	0580      	lsls	r0, r0, #22
 80037b0:	f7fd fb3e 	bl	8000e30 <__aeabi_fsub>
 80037b4:	1c03      	adds	r3, r0, #0
 80037b6:	1c1a      	adds	r2, r3, #0
 80037b8:	693b      	ldr	r3, [r7, #16]
 80037ba:	1c19      	adds	r1, r3, #0
 80037bc:	1c10      	adds	r0, r2, #0
 80037be:	f7fd fa11 	bl	8000be4 <__aeabi_fmul>
 80037c2:	1c03      	adds	r3, r0, #0
 80037c4:	613b      	str	r3, [r7, #16]
	y = y * (1.5f - (halfx * y * y));
 80037c6:	693b      	ldr	r3, [r7, #16]
 80037c8:	6979      	ldr	r1, [r7, #20]
 80037ca:	1c18      	adds	r0, r3, #0
 80037cc:	f7fd fa0a 	bl	8000be4 <__aeabi_fmul>
 80037d0:	1c03      	adds	r3, r0, #0
 80037d2:	1c1a      	adds	r2, r3, #0
 80037d4:	693b      	ldr	r3, [r7, #16]
 80037d6:	1c19      	adds	r1, r3, #0
 80037d8:	1c10      	adds	r0, r2, #0
 80037da:	f7fd fa03 	bl	8000be4 <__aeabi_fmul>
 80037de:	1c03      	adds	r3, r0, #0
 80037e0:	1c19      	adds	r1, r3, #0
 80037e2:	20ff      	movs	r0, #255	; 0xff
 80037e4:	0580      	lsls	r0, r0, #22
 80037e6:	f7fd fb23 	bl	8000e30 <__aeabi_fsub>
 80037ea:	1c03      	adds	r3, r0, #0
 80037ec:	1c1a      	adds	r2, r3, #0
 80037ee:	693b      	ldr	r3, [r7, #16]
 80037f0:	1c19      	adds	r1, r3, #0
 80037f2:	1c10      	adds	r0, r2, #0
 80037f4:	f7fd f9f6 	bl	8000be4 <__aeabi_fmul>
 80037f8:	1c03      	adds	r3, r0, #0
 80037fa:	613b      	str	r3, [r7, #16]
	return y;
 80037fc:	693b      	ldr	r3, [r7, #16]
}
 80037fe:	1c18      	adds	r0, r3, #0
 8003800:	46bd      	mov	sp, r7
 8003802:	b006      	add	sp, #24
 8003804:	bd80      	pop	{r7, pc}
 8003806:	46c0      	nop			; (mov r8, r8)
 8003808:	5f3759df 	.word	0x5f3759df

0800380c <Madgwick_computeAngles>:

void Madgwick_computeAngles()
{
 800380c:	b5b0      	push	{r4, r5, r7, lr}
 800380e:	af00      	add	r7, sp, #0
	roll = atan2f(q0*q1 + q2*q3, 0.5f - q1*q1 - q2*q2);
 8003810:	4b52      	ldr	r3, [pc, #328]	; (800395c <Madgwick_computeAngles+0x150>)
 8003812:	681a      	ldr	r2, [r3, #0]
 8003814:	4b52      	ldr	r3, [pc, #328]	; (8003960 <Madgwick_computeAngles+0x154>)
 8003816:	681b      	ldr	r3, [r3, #0]
 8003818:	1c19      	adds	r1, r3, #0
 800381a:	1c10      	adds	r0, r2, #0
 800381c:	f7fd f9e2 	bl	8000be4 <__aeabi_fmul>
 8003820:	1c03      	adds	r3, r0, #0
 8003822:	1c1c      	adds	r4, r3, #0
 8003824:	4b4f      	ldr	r3, [pc, #316]	; (8003964 <Madgwick_computeAngles+0x158>)
 8003826:	681a      	ldr	r2, [r3, #0]
 8003828:	4b4f      	ldr	r3, [pc, #316]	; (8003968 <Madgwick_computeAngles+0x15c>)
 800382a:	681b      	ldr	r3, [r3, #0]
 800382c:	1c19      	adds	r1, r3, #0
 800382e:	1c10      	adds	r0, r2, #0
 8003830:	f7fd f9d8 	bl	8000be4 <__aeabi_fmul>
 8003834:	1c03      	adds	r3, r0, #0
 8003836:	1c19      	adds	r1, r3, #0
 8003838:	1c20      	adds	r0, r4, #0
 800383a:	f7fc fe6d 	bl	8000518 <__aeabi_fadd>
 800383e:	1c03      	adds	r3, r0, #0
 8003840:	1c1c      	adds	r4, r3, #0
 8003842:	4b47      	ldr	r3, [pc, #284]	; (8003960 <Madgwick_computeAngles+0x154>)
 8003844:	681a      	ldr	r2, [r3, #0]
 8003846:	4b46      	ldr	r3, [pc, #280]	; (8003960 <Madgwick_computeAngles+0x154>)
 8003848:	681b      	ldr	r3, [r3, #0]
 800384a:	1c19      	adds	r1, r3, #0
 800384c:	1c10      	adds	r0, r2, #0
 800384e:	f7fd f9c9 	bl	8000be4 <__aeabi_fmul>
 8003852:	1c03      	adds	r3, r0, #0
 8003854:	1c19      	adds	r1, r3, #0
 8003856:	20fc      	movs	r0, #252	; 0xfc
 8003858:	0580      	lsls	r0, r0, #22
 800385a:	f7fd fae9 	bl	8000e30 <__aeabi_fsub>
 800385e:	1c03      	adds	r3, r0, #0
 8003860:	1c1d      	adds	r5, r3, #0
 8003862:	4b40      	ldr	r3, [pc, #256]	; (8003964 <Madgwick_computeAngles+0x158>)
 8003864:	681a      	ldr	r2, [r3, #0]
 8003866:	4b3f      	ldr	r3, [pc, #252]	; (8003964 <Madgwick_computeAngles+0x158>)
 8003868:	681b      	ldr	r3, [r3, #0]
 800386a:	1c19      	adds	r1, r3, #0
 800386c:	1c10      	adds	r0, r2, #0
 800386e:	f7fd f9b9 	bl	8000be4 <__aeabi_fmul>
 8003872:	1c03      	adds	r3, r0, #0
 8003874:	1c19      	adds	r1, r3, #0
 8003876:	1c28      	adds	r0, r5, #0
 8003878:	f7fd fada 	bl	8000e30 <__aeabi_fsub>
 800387c:	1c03      	adds	r3, r0, #0
 800387e:	1c19      	adds	r1, r3, #0
 8003880:	1c20      	adds	r0, r4, #0
 8003882:	f005 f85f 	bl	8008944 <atan2f>
 8003886:	1c02      	adds	r2, r0, #0
 8003888:	4b38      	ldr	r3, [pc, #224]	; (800396c <Madgwick_computeAngles+0x160>)
 800388a:	601a      	str	r2, [r3, #0]
	pitch = asinf(-2.0f * (q1*q3 - q0*q2));
 800388c:	4b34      	ldr	r3, [pc, #208]	; (8003960 <Madgwick_computeAngles+0x154>)
 800388e:	681a      	ldr	r2, [r3, #0]
 8003890:	4b35      	ldr	r3, [pc, #212]	; (8003968 <Madgwick_computeAngles+0x15c>)
 8003892:	681b      	ldr	r3, [r3, #0]
 8003894:	1c19      	adds	r1, r3, #0
 8003896:	1c10      	adds	r0, r2, #0
 8003898:	f7fd f9a4 	bl	8000be4 <__aeabi_fmul>
 800389c:	1c03      	adds	r3, r0, #0
 800389e:	1c1c      	adds	r4, r3, #0
 80038a0:	4b2e      	ldr	r3, [pc, #184]	; (800395c <Madgwick_computeAngles+0x150>)
 80038a2:	681a      	ldr	r2, [r3, #0]
 80038a4:	4b2f      	ldr	r3, [pc, #188]	; (8003964 <Madgwick_computeAngles+0x158>)
 80038a6:	681b      	ldr	r3, [r3, #0]
 80038a8:	1c19      	adds	r1, r3, #0
 80038aa:	1c10      	adds	r0, r2, #0
 80038ac:	f7fd f99a 	bl	8000be4 <__aeabi_fmul>
 80038b0:	1c03      	adds	r3, r0, #0
 80038b2:	1c19      	adds	r1, r3, #0
 80038b4:	1c20      	adds	r0, r4, #0
 80038b6:	f7fd fabb 	bl	8000e30 <__aeabi_fsub>
 80038ba:	1c03      	adds	r3, r0, #0
 80038bc:	21c0      	movs	r1, #192	; 0xc0
 80038be:	0609      	lsls	r1, r1, #24
 80038c0:	1c18      	adds	r0, r3, #0
 80038c2:	f7fd f98f 	bl	8000be4 <__aeabi_fmul>
 80038c6:	1c03      	adds	r3, r0, #0
 80038c8:	1c18      	adds	r0, r3, #0
 80038ca:	f005 f81b 	bl	8008904 <asinf>
 80038ce:	1c02      	adds	r2, r0, #0
 80038d0:	4b27      	ldr	r3, [pc, #156]	; (8003970 <Madgwick_computeAngles+0x164>)
 80038d2:	601a      	str	r2, [r3, #0]
	yaw = atan2f(q1*q2 + q0*q3, 0.5f - q2*q2 - q3*q3);
 80038d4:	4b22      	ldr	r3, [pc, #136]	; (8003960 <Madgwick_computeAngles+0x154>)
 80038d6:	681a      	ldr	r2, [r3, #0]
 80038d8:	4b22      	ldr	r3, [pc, #136]	; (8003964 <Madgwick_computeAngles+0x158>)
 80038da:	681b      	ldr	r3, [r3, #0]
 80038dc:	1c19      	adds	r1, r3, #0
 80038de:	1c10      	adds	r0, r2, #0
 80038e0:	f7fd f980 	bl	8000be4 <__aeabi_fmul>
 80038e4:	1c03      	adds	r3, r0, #0
 80038e6:	1c1c      	adds	r4, r3, #0
 80038e8:	4b1c      	ldr	r3, [pc, #112]	; (800395c <Madgwick_computeAngles+0x150>)
 80038ea:	681a      	ldr	r2, [r3, #0]
 80038ec:	4b1e      	ldr	r3, [pc, #120]	; (8003968 <Madgwick_computeAngles+0x15c>)
 80038ee:	681b      	ldr	r3, [r3, #0]
 80038f0:	1c19      	adds	r1, r3, #0
 80038f2:	1c10      	adds	r0, r2, #0
 80038f4:	f7fd f976 	bl	8000be4 <__aeabi_fmul>
 80038f8:	1c03      	adds	r3, r0, #0
 80038fa:	1c19      	adds	r1, r3, #0
 80038fc:	1c20      	adds	r0, r4, #0
 80038fe:	f7fc fe0b 	bl	8000518 <__aeabi_fadd>
 8003902:	1c03      	adds	r3, r0, #0
 8003904:	1c1c      	adds	r4, r3, #0
 8003906:	4b17      	ldr	r3, [pc, #92]	; (8003964 <Madgwick_computeAngles+0x158>)
 8003908:	681a      	ldr	r2, [r3, #0]
 800390a:	4b16      	ldr	r3, [pc, #88]	; (8003964 <Madgwick_computeAngles+0x158>)
 800390c:	681b      	ldr	r3, [r3, #0]
 800390e:	1c19      	adds	r1, r3, #0
 8003910:	1c10      	adds	r0, r2, #0
 8003912:	f7fd f967 	bl	8000be4 <__aeabi_fmul>
 8003916:	1c03      	adds	r3, r0, #0
 8003918:	1c19      	adds	r1, r3, #0
 800391a:	20fc      	movs	r0, #252	; 0xfc
 800391c:	0580      	lsls	r0, r0, #22
 800391e:	f7fd fa87 	bl	8000e30 <__aeabi_fsub>
 8003922:	1c03      	adds	r3, r0, #0
 8003924:	1c1d      	adds	r5, r3, #0
 8003926:	4b10      	ldr	r3, [pc, #64]	; (8003968 <Madgwick_computeAngles+0x15c>)
 8003928:	681a      	ldr	r2, [r3, #0]
 800392a:	4b0f      	ldr	r3, [pc, #60]	; (8003968 <Madgwick_computeAngles+0x15c>)
 800392c:	681b      	ldr	r3, [r3, #0]
 800392e:	1c19      	adds	r1, r3, #0
 8003930:	1c10      	adds	r0, r2, #0
 8003932:	f7fd f957 	bl	8000be4 <__aeabi_fmul>
 8003936:	1c03      	adds	r3, r0, #0
 8003938:	1c19      	adds	r1, r3, #0
 800393a:	1c28      	adds	r0, r5, #0
 800393c:	f7fd fa78 	bl	8000e30 <__aeabi_fsub>
 8003940:	1c03      	adds	r3, r0, #0
 8003942:	1c19      	adds	r1, r3, #0
 8003944:	1c20      	adds	r0, r4, #0
 8003946:	f004 fffd 	bl	8008944 <atan2f>
 800394a:	1c02      	adds	r2, r0, #0
 800394c:	4b09      	ldr	r3, [pc, #36]	; (8003974 <Madgwick_computeAngles+0x168>)
 800394e:	601a      	str	r2, [r3, #0]
	anglesComputed = 1;
 8003950:	4b09      	ldr	r3, [pc, #36]	; (8003978 <Madgwick_computeAngles+0x16c>)
 8003952:	2201      	movs	r2, #1
 8003954:	701a      	strb	r2, [r3, #0]
}
 8003956:	46c0      	nop			; (mov r8, r8)
 8003958:	46bd      	mov	sp, r7
 800395a:	bdb0      	pop	{r4, r5, r7, pc}
 800395c:	200001fc 	.word	0x200001fc
 8003960:	20000200 	.word	0x20000200
 8003964:	20000204 	.word	0x20000204
 8003968:	20000208 	.word	0x20000208
 800396c:	20000210 	.word	0x20000210
 8003970:	20000214 	.word	0x20000214
 8003974:	20000218 	.word	0x20000218
 8003978:	2000021c 	.word	0x2000021c

0800397c <Madgwick_getRoll>:

    float Madgwick_getRoll() {
 800397c:	b580      	push	{r7, lr}
 800397e:	af00      	add	r7, sp, #0
        if (!anglesComputed) Madgwick_computeAngles();
 8003980:	4b07      	ldr	r3, [pc, #28]	; (80039a0 <Madgwick_getRoll+0x24>)
 8003982:	781b      	ldrb	r3, [r3, #0]
 8003984:	2b00      	cmp	r3, #0
 8003986:	d101      	bne.n	800398c <Madgwick_getRoll+0x10>
 8003988:	f7ff ff40 	bl	800380c <Madgwick_computeAngles>
        return roll * 57.29578f;
 800398c:	4b05      	ldr	r3, [pc, #20]	; (80039a4 <Madgwick_getRoll+0x28>)
 800398e:	681b      	ldr	r3, [r3, #0]
 8003990:	4905      	ldr	r1, [pc, #20]	; (80039a8 <Madgwick_getRoll+0x2c>)
 8003992:	1c18      	adds	r0, r3, #0
 8003994:	f7fd f926 	bl	8000be4 <__aeabi_fmul>
 8003998:	1c03      	adds	r3, r0, #0
    }
 800399a:	1c18      	adds	r0, r3, #0
 800399c:	46bd      	mov	sp, r7
 800399e:	bd80      	pop	{r7, pc}
 80039a0:	2000021c 	.word	0x2000021c
 80039a4:	20000210 	.word	0x20000210
 80039a8:	42652ee1 	.word	0x42652ee1

080039ac <Madgwick_getPitch>:
    float Madgwick_getPitch() {
 80039ac:	b580      	push	{r7, lr}
 80039ae:	af00      	add	r7, sp, #0
        if (!anglesComputed) Madgwick_computeAngles();
 80039b0:	4b07      	ldr	r3, [pc, #28]	; (80039d0 <Madgwick_getPitch+0x24>)
 80039b2:	781b      	ldrb	r3, [r3, #0]
 80039b4:	2b00      	cmp	r3, #0
 80039b6:	d101      	bne.n	80039bc <Madgwick_getPitch+0x10>
 80039b8:	f7ff ff28 	bl	800380c <Madgwick_computeAngles>
        return pitch * 57.29578f;
 80039bc:	4b05      	ldr	r3, [pc, #20]	; (80039d4 <Madgwick_getPitch+0x28>)
 80039be:	681b      	ldr	r3, [r3, #0]
 80039c0:	4905      	ldr	r1, [pc, #20]	; (80039d8 <Madgwick_getPitch+0x2c>)
 80039c2:	1c18      	adds	r0, r3, #0
 80039c4:	f7fd f90e 	bl	8000be4 <__aeabi_fmul>
 80039c8:	1c03      	adds	r3, r0, #0
    }
 80039ca:	1c18      	adds	r0, r3, #0
 80039cc:	46bd      	mov	sp, r7
 80039ce:	bd80      	pop	{r7, pc}
 80039d0:	2000021c 	.word	0x2000021c
 80039d4:	20000214 	.word	0x20000214
 80039d8:	42652ee1 	.word	0x42652ee1

080039dc <Madgwick_getYaw>:
    float Madgwick_getYaw() {
 80039dc:	b580      	push	{r7, lr}
 80039de:	af00      	add	r7, sp, #0
//    	static float value = 0.05;
//    	value += value;
        if (!anglesComputed) Madgwick_computeAngles();
 80039e0:	4b0a      	ldr	r3, [pc, #40]	; (8003a0c <Madgwick_getYaw+0x30>)
 80039e2:	781b      	ldrb	r3, [r3, #0]
 80039e4:	2b00      	cmp	r3, #0
 80039e6:	d101      	bne.n	80039ec <Madgwick_getYaw+0x10>
 80039e8:	f7ff ff10 	bl	800380c <Madgwick_computeAngles>
        return (yaw * 57.29578f + 180.0f);
 80039ec:	4b08      	ldr	r3, [pc, #32]	; (8003a10 <Madgwick_getYaw+0x34>)
 80039ee:	681b      	ldr	r3, [r3, #0]
 80039f0:	4908      	ldr	r1, [pc, #32]	; (8003a14 <Madgwick_getYaw+0x38>)
 80039f2:	1c18      	adds	r0, r3, #0
 80039f4:	f7fd f8f6 	bl	8000be4 <__aeabi_fmul>
 80039f8:	1c03      	adds	r3, r0, #0
 80039fa:	4907      	ldr	r1, [pc, #28]	; (8003a18 <Madgwick_getYaw+0x3c>)
 80039fc:	1c18      	adds	r0, r3, #0
 80039fe:	f7fc fd8b 	bl	8000518 <__aeabi_fadd>
 8003a02:	1c03      	adds	r3, r0, #0
    }
 8003a04:	1c18      	adds	r0, r3, #0
 8003a06:	46bd      	mov	sp, r7
 8003a08:	bd80      	pop	{r7, pc}
 8003a0a:	46c0      	nop			; (mov r8, r8)
 8003a0c:	2000021c 	.word	0x2000021c
 8003a10:	20000218 	.word	0x20000218
 8003a14:	42652ee1 	.word	0x42652ee1
 8003a18:	43340000 	.word	0x43340000

08003a1c <SPI2_LowLevel_Init>:
#define SPI2_SCK_PORT 		GPIOB

#define SPI2_CS_PIN 		12
#define SPI2_CS_PORT 		GPIOB

void SPI2_LowLevel_Init(void) {
 8003a1c:	b580      	push	{r7, lr}
 8003a1e:	b082      	sub	sp, #8
 8003a20:	af00      	add	r7, sp, #0
	uint32_t temp;
	//MISO
	SPI2_MISO_PORT->MODER &= ~(0x03 << (SPI2_MISO_PIN * 2));
 8003a22:	4b36      	ldr	r3, [pc, #216]	; (8003afc <SPI2_LowLevel_Init+0xe0>)
 8003a24:	681a      	ldr	r2, [r3, #0]
 8003a26:	4b35      	ldr	r3, [pc, #212]	; (8003afc <SPI2_LowLevel_Init+0xe0>)
 8003a28:	4935      	ldr	r1, [pc, #212]	; (8003b00 <SPI2_LowLevel_Init+0xe4>)
 8003a2a:	400a      	ands	r2, r1
 8003a2c:	601a      	str	r2, [r3, #0]
	SPI2_MISO_PORT->MODER |= (0x02 << (SPI2_MISO_PIN * 2)); //mode AF
 8003a2e:	4b33      	ldr	r3, [pc, #204]	; (8003afc <SPI2_LowLevel_Init+0xe0>)
 8003a30:	681a      	ldr	r2, [r3, #0]
 8003a32:	4b32      	ldr	r3, [pc, #200]	; (8003afc <SPI2_LowLevel_Init+0xe0>)
 8003a34:	2180      	movs	r1, #128	; 0x80
 8003a36:	0589      	lsls	r1, r1, #22
 8003a38:	430a      	orrs	r2, r1
 8003a3a:	601a      	str	r2, [r3, #0]

	SPI2_MISO_PORT->ODR &= ~(0x01 << SPI2_MISO_PIN); //push pull
 8003a3c:	4b2f      	ldr	r3, [pc, #188]	; (8003afc <SPI2_LowLevel_Init+0xe0>)
 8003a3e:	695a      	ldr	r2, [r3, #20]
 8003a40:	4b2e      	ldr	r3, [pc, #184]	; (8003afc <SPI2_LowLevel_Init+0xe0>)
 8003a42:	4930      	ldr	r1, [pc, #192]	; (8003b04 <SPI2_LowLevel_Init+0xe8>)
 8003a44:	400a      	ands	r2, r1
 8003a46:	615a      	str	r2, [r3, #20]
	SPI2_MISO_PORT->PUPDR &= ~(0x03 << (SPI2_MISO_PIN * 2)); //no pull
 8003a48:	4b2c      	ldr	r3, [pc, #176]	; (8003afc <SPI2_LowLevel_Init+0xe0>)
 8003a4a:	68da      	ldr	r2, [r3, #12]
 8003a4c:	4b2b      	ldr	r3, [pc, #172]	; (8003afc <SPI2_LowLevel_Init+0xe0>)
 8003a4e:	492c      	ldr	r1, [pc, #176]	; (8003b00 <SPI2_LowLevel_Init+0xe4>)
 8003a50:	400a      	ands	r2, r1
 8003a52:	60da      	str	r2, [r3, #12]

	//SPI2_MISO_PORT->AFR[1] = 0x00;

	temp = SPI2_MISO_PORT->AFR[SPI2_MISO_PIN >> 3u];
 8003a54:	4b29      	ldr	r3, [pc, #164]	; (8003afc <SPI2_LowLevel_Init+0xe0>)
 8003a56:	6a5b      	ldr	r3, [r3, #36]	; 0x24
 8003a58:	607b      	str	r3, [r7, #4]
	temp &= ~(0xFu << ((SPI2_MISO_PIN & 0x07u) * 4u));
 8003a5a:	687b      	ldr	r3, [r7, #4]
 8003a5c:	4a2a      	ldr	r2, [pc, #168]	; (8003b08 <SPI2_LowLevel_Init+0xec>)
 8003a5e:	4013      	ands	r3, r2
 8003a60:	607b      	str	r3, [r7, #4]
	temp |= ((0x00) << ((SPI2_MISO_PIN & 0x07u) * 4u));
	SPI2_MISO_PORT->AFR[SPI2_MISO_PIN >> 3u] = temp;
 8003a62:	4b26      	ldr	r3, [pc, #152]	; (8003afc <SPI2_LowLevel_Init+0xe0>)
 8003a64:	687a      	ldr	r2, [r7, #4]
 8003a66:	625a      	str	r2, [r3, #36]	; 0x24

	//MOSI
	SPI2_MOSI_PORT->MODER &= ~(0x03 << (SPI2_MOSI_PIN * 2));
 8003a68:	4b24      	ldr	r3, [pc, #144]	; (8003afc <SPI2_LowLevel_Init+0xe0>)
 8003a6a:	681a      	ldr	r2, [r3, #0]
 8003a6c:	4b23      	ldr	r3, [pc, #140]	; (8003afc <SPI2_LowLevel_Init+0xe0>)
 8003a6e:	0092      	lsls	r2, r2, #2
 8003a70:	0892      	lsrs	r2, r2, #2
 8003a72:	601a      	str	r2, [r3, #0]
	SPI2_MOSI_PORT->MODER |= (0x02 << (SPI2_MOSI_PIN * 2)); //mode AF
 8003a74:	4b21      	ldr	r3, [pc, #132]	; (8003afc <SPI2_LowLevel_Init+0xe0>)
 8003a76:	681a      	ldr	r2, [r3, #0]
 8003a78:	4b20      	ldr	r3, [pc, #128]	; (8003afc <SPI2_LowLevel_Init+0xe0>)
 8003a7a:	2180      	movs	r1, #128	; 0x80
 8003a7c:	0609      	lsls	r1, r1, #24
 8003a7e:	430a      	orrs	r2, r1
 8003a80:	601a      	str	r2, [r3, #0]

	SPI2_MOSI_PORT->ODR &= ~(0x01 << SPI2_MOSI_PIN); //push pull
 8003a82:	4b1e      	ldr	r3, [pc, #120]	; (8003afc <SPI2_LowLevel_Init+0xe0>)
 8003a84:	695a      	ldr	r2, [r3, #20]
 8003a86:	4b1d      	ldr	r3, [pc, #116]	; (8003afc <SPI2_LowLevel_Init+0xe0>)
 8003a88:	4920      	ldr	r1, [pc, #128]	; (8003b0c <SPI2_LowLevel_Init+0xf0>)
 8003a8a:	400a      	ands	r2, r1
 8003a8c:	615a      	str	r2, [r3, #20]
	SPI2_MOSI_PORT->PUPDR &= ~(0x03 << (SPI2_MOSI_PIN * 2)); //no pull
 8003a8e:	4b1b      	ldr	r3, [pc, #108]	; (8003afc <SPI2_LowLevel_Init+0xe0>)
 8003a90:	68da      	ldr	r2, [r3, #12]
 8003a92:	4b1a      	ldr	r3, [pc, #104]	; (8003afc <SPI2_LowLevel_Init+0xe0>)
 8003a94:	0092      	lsls	r2, r2, #2
 8003a96:	0892      	lsrs	r2, r2, #2
 8003a98:	60da      	str	r2, [r3, #12]

	//SPI2_MOSI_PORT->AFR[1] = 0x00;
	temp = SPI2_MOSI_PORT->AFR[SPI2_MOSI_PIN >> 3u];
 8003a9a:	4b18      	ldr	r3, [pc, #96]	; (8003afc <SPI2_LowLevel_Init+0xe0>)
 8003a9c:	6a5b      	ldr	r3, [r3, #36]	; 0x24
 8003a9e:	607b      	str	r3, [r7, #4]
	temp &= ~(0xFu << ((SPI2_MOSI_PIN & 0x07u) * 4u));
 8003aa0:	687b      	ldr	r3, [r7, #4]
 8003aa2:	011b      	lsls	r3, r3, #4
 8003aa4:	091b      	lsrs	r3, r3, #4
 8003aa6:	607b      	str	r3, [r7, #4]
	temp |= ((0x00) << ((SPI2_MOSI_PIN & 0x07u) * 4u));
	SPI2_MOSI_PORT->AFR[SPI2_MOSI_PIN >> 3u] = temp;
 8003aa8:	4b14      	ldr	r3, [pc, #80]	; (8003afc <SPI2_LowLevel_Init+0xe0>)
 8003aaa:	687a      	ldr	r2, [r7, #4]
 8003aac:	625a      	str	r2, [r3, #36]	; 0x24

	//SCK
	SPI2_SCK_PORT->MODER &= ~(0x03 << (SPI2_SCK_PIN * 2));
 8003aae:	4b13      	ldr	r3, [pc, #76]	; (8003afc <SPI2_LowLevel_Init+0xe0>)
 8003ab0:	681a      	ldr	r2, [r3, #0]
 8003ab2:	4b12      	ldr	r3, [pc, #72]	; (8003afc <SPI2_LowLevel_Init+0xe0>)
 8003ab4:	4916      	ldr	r1, [pc, #88]	; (8003b10 <SPI2_LowLevel_Init+0xf4>)
 8003ab6:	400a      	ands	r2, r1
 8003ab8:	601a      	str	r2, [r3, #0]
	SPI2_SCK_PORT->MODER |= (0x02 << (SPI2_SCK_PIN * 2)); //mode AF
 8003aba:	4b10      	ldr	r3, [pc, #64]	; (8003afc <SPI2_LowLevel_Init+0xe0>)
 8003abc:	681a      	ldr	r2, [r3, #0]
 8003abe:	4b0f      	ldr	r3, [pc, #60]	; (8003afc <SPI2_LowLevel_Init+0xe0>)
 8003ac0:	2180      	movs	r1, #128	; 0x80
 8003ac2:	0509      	lsls	r1, r1, #20
 8003ac4:	430a      	orrs	r2, r1
 8003ac6:	601a      	str	r2, [r3, #0]

	SPI2_SCK_PORT->ODR &= ~(0x01 << SPI2_SCK_PIN); //push pull
 8003ac8:	4b0c      	ldr	r3, [pc, #48]	; (8003afc <SPI2_LowLevel_Init+0xe0>)
 8003aca:	695a      	ldr	r2, [r3, #20]
 8003acc:	4b0b      	ldr	r3, [pc, #44]	; (8003afc <SPI2_LowLevel_Init+0xe0>)
 8003ace:	4911      	ldr	r1, [pc, #68]	; (8003b14 <SPI2_LowLevel_Init+0xf8>)
 8003ad0:	400a      	ands	r2, r1
 8003ad2:	615a      	str	r2, [r3, #20]
	SPI2_SCK_PORT->PUPDR &= ~(0x03 << (SPI2_SCK_PIN * 2)); //no pull
 8003ad4:	4b09      	ldr	r3, [pc, #36]	; (8003afc <SPI2_LowLevel_Init+0xe0>)
 8003ad6:	68da      	ldr	r2, [r3, #12]
 8003ad8:	4b08      	ldr	r3, [pc, #32]	; (8003afc <SPI2_LowLevel_Init+0xe0>)
 8003ada:	490d      	ldr	r1, [pc, #52]	; (8003b10 <SPI2_LowLevel_Init+0xf4>)
 8003adc:	400a      	ands	r2, r1
 8003ade:	60da      	str	r2, [r3, #12]

	//SPI2_SCK_PORT->AFR[1] = 0x00;
	temp = SPI2_SCK_PORT->AFR[SPI2_SCK_PIN >> 3u];
 8003ae0:	4b06      	ldr	r3, [pc, #24]	; (8003afc <SPI2_LowLevel_Init+0xe0>)
 8003ae2:	6a5b      	ldr	r3, [r3, #36]	; 0x24
 8003ae4:	607b      	str	r3, [r7, #4]
	temp &= ~(0xFu << ((SPI2_SCK_PIN & 0x07u) * 4u));
 8003ae6:	687b      	ldr	r3, [r7, #4]
 8003ae8:	4a0b      	ldr	r2, [pc, #44]	; (8003b18 <SPI2_LowLevel_Init+0xfc>)
 8003aea:	4013      	ands	r3, r2
 8003aec:	607b      	str	r3, [r7, #4]
	temp |= ((0x00) << ((SPI2_SCK_PIN & 0x07u) * 4u));
	SPI2_SCK_PORT->AFR[SPI2_SCK_PIN >> 3u] = temp;
 8003aee:	4b03      	ldr	r3, [pc, #12]	; (8003afc <SPI2_LowLevel_Init+0xe0>)
 8003af0:	687a      	ldr	r2, [r7, #4]
 8003af2:	625a      	str	r2, [r3, #36]	; 0x24

}
 8003af4:	46c0      	nop			; (mov r8, r8)
 8003af6:	46bd      	mov	sp, r7
 8003af8:	b002      	add	sp, #8
 8003afa:	bd80      	pop	{r7, pc}
 8003afc:	50000400 	.word	0x50000400
 8003b00:	cfffffff 	.word	0xcfffffff
 8003b04:	ffffbfff 	.word	0xffffbfff
 8003b08:	f0ffffff 	.word	0xf0ffffff
 8003b0c:	ffff7fff 	.word	0xffff7fff
 8003b10:	f3ffffff 	.word	0xf3ffffff
 8003b14:	ffffdfff 	.word	0xffffdfff
 8003b18:	ff0fffff 	.word	0xff0fffff

08003b1c <SPIx_Init>:


void SPIx_Init(SPI_TypeDef *SPIx){
 8003b1c:	b580      	push	{r7, lr}
 8003b1e:	b082      	sub	sp, #8
 8003b20:	af00      	add	r7, sp, #0
 8003b22:	6078      	str	r0, [r7, #4]
	 RCC->APBENR1 |= RCC_APBENR1_SPI2EN;//clock Enbale
 8003b24:	4b3d      	ldr	r3, [pc, #244]	; (8003c1c <SPIx_Init+0x100>)
 8003b26:	6bda      	ldr	r2, [r3, #60]	; 0x3c
 8003b28:	4b3c      	ldr	r3, [pc, #240]	; (8003c1c <SPIx_Init+0x100>)
 8003b2a:	2180      	movs	r1, #128	; 0x80
 8003b2c:	01c9      	lsls	r1, r1, #7
 8003b2e:	430a      	orrs	r2, r1
 8003b30:	63da      	str	r2, [r3, #60]	; 0x3c

	 SPIx->CR1 |= SPI_CR1_MSTR; //MasterMode
 8003b32:	687b      	ldr	r3, [r7, #4]
 8003b34:	681b      	ldr	r3, [r3, #0]
 8003b36:	2204      	movs	r2, #4
 8003b38:	431a      	orrs	r2, r3
 8003b3a:	687b      	ldr	r3, [r7, #4]
 8003b3c:	601a      	str	r2, [r3, #0]
	 SPIx->CR1 &= ~SPI_CR1_RXONLY;// 2line
 8003b3e:	687b      	ldr	r3, [r7, #4]
 8003b40:	681b      	ldr	r3, [r3, #0]
 8003b42:	4a37      	ldr	r2, [pc, #220]	; (8003c20 <SPIx_Init+0x104>)
 8003b44:	401a      	ands	r2, r3
 8003b46:	687b      	ldr	r3, [r7, #4]
 8003b48:	601a      	str	r2, [r3, #0]
	 SPIx->CR2 &= SPI_CR2_DS;
 8003b4a:	687b      	ldr	r3, [r7, #4]
 8003b4c:	685a      	ldr	r2, [r3, #4]
 8003b4e:	23f0      	movs	r3, #240	; 0xf0
 8003b50:	011b      	lsls	r3, r3, #4
 8003b52:	401a      	ands	r2, r3
 8003b54:	687b      	ldr	r3, [r7, #4]
 8003b56:	605a      	str	r2, [r3, #4]
	 SPIx->CR2 &= SPI_CR2_DS_0 | SPI_CR2_DS_1 | SPI_CR2_DS_2;//8bit
 8003b58:	687b      	ldr	r3, [r7, #4]
 8003b5a:	685a      	ldr	r2, [r3, #4]
 8003b5c:	23e0      	movs	r3, #224	; 0xe0
 8003b5e:	00db      	lsls	r3, r3, #3
 8003b60:	401a      	ands	r2, r3
 8003b62:	687b      	ldr	r3, [r7, #4]
 8003b64:	605a      	str	r2, [r3, #4]
	 SPIx->CR1 &= ~SPI_CR1_CPHA;
 8003b66:	687b      	ldr	r3, [r7, #4]
 8003b68:	681b      	ldr	r3, [r3, #0]
 8003b6a:	2201      	movs	r2, #1
 8003b6c:	4393      	bics	r3, r2
 8003b6e:	001a      	movs	r2, r3
 8003b70:	687b      	ldr	r3, [r7, #4]
 8003b72:	601a      	str	r2, [r3, #0]
	 SPIx->CR1 &= ~SPI_CR1_CPOL;
 8003b74:	687b      	ldr	r3, [r7, #4]
 8003b76:	681b      	ldr	r3, [r3, #0]
 8003b78:	2202      	movs	r2, #2
 8003b7a:	4393      	bics	r3, r2
 8003b7c:	001a      	movs	r2, r3
 8003b7e:	687b      	ldr	r3, [r7, #4]
 8003b80:	601a      	str	r2, [r3, #0]
	 SPIx->CR1 |= SPI_CR1_SSM;//soff nss
 8003b82:	687b      	ldr	r3, [r7, #4]
 8003b84:	681b      	ldr	r3, [r3, #0]
 8003b86:	2280      	movs	r2, #128	; 0x80
 8003b88:	0092      	lsls	r2, r2, #2
 8003b8a:	431a      	orrs	r2, r3
 8003b8c:	687b      	ldr	r3, [r7, #4]
 8003b8e:	601a      	str	r2, [r3, #0]
	 SPIx->CR1 |= SPI_CR1_SSI;//soff nss
 8003b90:	687b      	ldr	r3, [r7, #4]
 8003b92:	681b      	ldr	r3, [r3, #0]
 8003b94:	2280      	movs	r2, #128	; 0x80
 8003b96:	0052      	lsls	r2, r2, #1
 8003b98:	431a      	orrs	r2, r3
 8003b9a:	687b      	ldr	r3, [r7, #4]
 8003b9c:	601a      	str	r2, [r3, #0]
	 SPIx->CR1 &= ~SPI_CR1_BR;
 8003b9e:	687b      	ldr	r3, [r7, #4]
 8003ba0:	681b      	ldr	r3, [r3, #0]
 8003ba2:	2238      	movs	r2, #56	; 0x38
 8003ba4:	4393      	bics	r3, r2
 8003ba6:	001a      	movs	r2, r3
 8003ba8:	687b      	ldr	r3, [r7, #4]
 8003baa:	601a      	str	r2, [r3, #0]
	 SPIx->CR1 |= (SPI_CR1_BR_1 | SPI_CR1_BR_2);   //f/8
 8003bac:	687b      	ldr	r3, [r7, #4]
 8003bae:	681b      	ldr	r3, [r3, #0]
 8003bb0:	2230      	movs	r2, #48	; 0x30
 8003bb2:	431a      	orrs	r2, r3
 8003bb4:	687b      	ldr	r3, [r7, #4]
 8003bb6:	601a      	str	r2, [r3, #0]
	 SPIx->CR1 &= ~SPI_CR1_LSBFIRST; //SPI_FIRSTBIT_MSB
 8003bb8:	687b      	ldr	r3, [r7, #4]
 8003bba:	681b      	ldr	r3, [r3, #0]
 8003bbc:	2280      	movs	r2, #128	; 0x80
 8003bbe:	4393      	bics	r3, r2
 8003bc0:	001a      	movs	r2, r3
 8003bc2:	687b      	ldr	r3, [r7, #4]
 8003bc4:	601a      	str	r2, [r3, #0]
	 SPIx->CR2 &= ~SPI_CR2_FRF;//SPI_TIMODE_DISABLE
 8003bc6:	687b      	ldr	r3, [r7, #4]
 8003bc8:	685b      	ldr	r3, [r3, #4]
 8003bca:	2210      	movs	r2, #16
 8003bcc:	4393      	bics	r3, r2
 8003bce:	001a      	movs	r2, r3
 8003bd0:	687b      	ldr	r3, [r7, #4]
 8003bd2:	605a      	str	r2, [r3, #4]
	 SPIx->CR1 &= ~SPI_CR1_CRCEN;//SPI_CRCCALCULATION_DISABLE
 8003bd4:	687b      	ldr	r3, [r7, #4]
 8003bd6:	681b      	ldr	r3, [r3, #0]
 8003bd8:	4a12      	ldr	r2, [pc, #72]	; (8003c24 <SPIx_Init+0x108>)
 8003bda:	401a      	ands	r2, r3
 8003bdc:	687b      	ldr	r3, [r7, #4]
 8003bde:	601a      	str	r2, [r3, #0]
	 SPIx->CR2 |= SPI_CR2_NSSP;//SPI_NSS_PULSE_ENABLE
 8003be0:	687b      	ldr	r3, [r7, #4]
 8003be2:	685b      	ldr	r3, [r3, #4]
 8003be4:	2208      	movs	r2, #8
 8003be6:	431a      	orrs	r2, r3
 8003be8:	687b      	ldr	r3, [r7, #4]
 8003bea:	605a      	str	r2, [r3, #4]
	 SPIx->CR2 |= SPI_CR2_FRXTH;
 8003bec:	687b      	ldr	r3, [r7, #4]
 8003bee:	685b      	ldr	r3, [r3, #4]
 8003bf0:	2280      	movs	r2, #128	; 0x80
 8003bf2:	0152      	lsls	r2, r2, #5
 8003bf4:	431a      	orrs	r2, r3
 8003bf6:	687b      	ldr	r3, [r7, #4]
 8003bf8:	605a      	str	r2, [r3, #4]
	 SPIx->I2SCFGR &= ~SPI_I2SCFGR_I2SMOD;//SPI mode is selected
 8003bfa:	687b      	ldr	r3, [r7, #4]
 8003bfc:	69db      	ldr	r3, [r3, #28]
 8003bfe:	4a0a      	ldr	r2, [pc, #40]	; (8003c28 <SPIx_Init+0x10c>)
 8003c00:	401a      	ands	r2, r3
 8003c02:	687b      	ldr	r3, [r7, #4]
 8003c04:	61da      	str	r2, [r3, #28]
	 SPIx->CR1 |= SPI_CR1_SPE;//enable SPI
 8003c06:	687b      	ldr	r3, [r7, #4]
 8003c08:	681b      	ldr	r3, [r3, #0]
 8003c0a:	2240      	movs	r2, #64	; 0x40
 8003c0c:	431a      	orrs	r2, r3
 8003c0e:	687b      	ldr	r3, [r7, #4]
 8003c10:	601a      	str	r2, [r3, #0]

}
 8003c12:	46c0      	nop			; (mov r8, r8)
 8003c14:	46bd      	mov	sp, r7
 8003c16:	b002      	add	sp, #8
 8003c18:	bd80      	pop	{r7, pc}
 8003c1a:	46c0      	nop			; (mov r8, r8)
 8003c1c:	40021000 	.word	0x40021000
 8003c20:	fffffbff 	.word	0xfffffbff
 8003c24:	ffffdfff 	.word	0xffffdfff
 8003c28:	fffff7ff 	.word	0xfffff7ff

08003c2c <SPIx_readWrite>:


int valu=0;

uint8_t SPIx_readWrite(SPI_TypeDef *SPIx, uint8_t byte){
 8003c2c:	b580      	push	{r7, lr}
 8003c2e:	b084      	sub	sp, #16
 8003c30:	af00      	add	r7, sp, #0
 8003c32:	6078      	str	r0, [r7, #4]
 8003c34:	000a      	movs	r2, r1
 8003c36:	1cfb      	adds	r3, r7, #3
 8003c38:	701a      	strb	r2, [r3, #0]
	uint8_t ret  = 0;
 8003c3a:	230f      	movs	r3, #15
 8003c3c:	18fb      	adds	r3, r7, r3
 8003c3e:	2200      	movs	r2, #0
 8003c40:	701a      	strb	r2, [r3, #0]

	valu = byte;
 8003c42:	1cfb      	adds	r3, r7, #3
 8003c44:	781a      	ldrb	r2, [r3, #0]
 8003c46:	4b0f      	ldr	r3, [pc, #60]	; (8003c84 <SPIx_readWrite+0x58>)
 8003c48:	601a      	str	r2, [r3, #0]
	while(!((SPIx->SR) & SPI_SR_TXE)){}
 8003c4a:	46c0      	nop			; (mov r8, r8)
 8003c4c:	687b      	ldr	r3, [r7, #4]
 8003c4e:	689b      	ldr	r3, [r3, #8]
 8003c50:	2202      	movs	r2, #2
 8003c52:	4013      	ands	r3, r2
 8003c54:	d0fa      	beq.n	8003c4c <SPIx_readWrite+0x20>
	*((__IO uint8_t *)&SPIx->DR) = byte;
 8003c56:	687b      	ldr	r3, [r7, #4]
 8003c58:	330c      	adds	r3, #12
 8003c5a:	1cfa      	adds	r2, r7, #3
 8003c5c:	7812      	ldrb	r2, [r2, #0]
 8003c5e:	701a      	strb	r2, [r3, #0]
	while(!((SPIx->SR) & SPI_SR_RXNE));
 8003c60:	46c0      	nop			; (mov r8, r8)
 8003c62:	687b      	ldr	r3, [r7, #4]
 8003c64:	689b      	ldr	r3, [r3, #8]
 8003c66:	2201      	movs	r2, #1
 8003c68:	4013      	ands	r3, r2
 8003c6a:	d0fa      	beq.n	8003c62 <SPIx_readWrite+0x36>
	ret =  (uint8_t)SPIx->DR;
 8003c6c:	687b      	ldr	r3, [r7, #4]
 8003c6e:	68da      	ldr	r2, [r3, #12]
 8003c70:	210f      	movs	r1, #15
 8003c72:	187b      	adds	r3, r7, r1
 8003c74:	701a      	strb	r2, [r3, #0]
	return ret;
 8003c76:	187b      	adds	r3, r7, r1
 8003c78:	781b      	ldrb	r3, [r3, #0]
}
 8003c7a:	0018      	movs	r0, r3
 8003c7c:	46bd      	mov	sp, r7
 8003c7e:	b004      	add	sp, #16
 8003c80:	bd80      	pop	{r7, pc}
 8003c82:	46c0      	nop			; (mov r8, r8)
 8003c84:	20000220 	.word	0x20000220

08003c88 <MX_GPIO_Init>:
 */

#include "gpio.h"

void MX_GPIO_Init(void)
{
 8003c88:	b590      	push	{r4, r7, lr}
 8003c8a:	b089      	sub	sp, #36	; 0x24
 8003c8c:	af00      	add	r7, sp, #0
  GPIO_InitTypeDef GPIO_InitStruct = {0};
 8003c8e:	240c      	movs	r4, #12
 8003c90:	193b      	adds	r3, r7, r4
 8003c92:	0018      	movs	r0, r3
 8003c94:	2314      	movs	r3, #20
 8003c96:	001a      	movs	r2, r3
 8003c98:	2100      	movs	r1, #0
 8003c9a:	f001 fe91 	bl	80059c0 <memset>
/* USER CODE BEGIN MX_GPIO_Init_1 */
/* USER CODE END MX_GPIO_Init_1 */

  /* GPIO Ports Clock Enable */
  __HAL_RCC_GPIOF_CLK_ENABLE();
 8003c9e:	4b22      	ldr	r3, [pc, #136]	; (8003d28 <MX_GPIO_Init+0xa0>)
 8003ca0:	6b5a      	ldr	r2, [r3, #52]	; 0x34
 8003ca2:	4b21      	ldr	r3, [pc, #132]	; (8003d28 <MX_GPIO_Init+0xa0>)
 8003ca4:	2120      	movs	r1, #32
 8003ca6:	430a      	orrs	r2, r1
 8003ca8:	635a      	str	r2, [r3, #52]	; 0x34
 8003caa:	4b1f      	ldr	r3, [pc, #124]	; (8003d28 <MX_GPIO_Init+0xa0>)
 8003cac:	6b5b      	ldr	r3, [r3, #52]	; 0x34
 8003cae:	2220      	movs	r2, #32
 8003cb0:	4013      	ands	r3, r2
 8003cb2:	60bb      	str	r3, [r7, #8]
 8003cb4:	68bb      	ldr	r3, [r7, #8]
  __HAL_RCC_GPIOB_CLK_ENABLE();
 8003cb6:	4b1c      	ldr	r3, [pc, #112]	; (8003d28 <MX_GPIO_Init+0xa0>)
 8003cb8:	6b5a      	ldr	r2, [r3, #52]	; 0x34
 8003cba:	4b1b      	ldr	r3, [pc, #108]	; (8003d28 <MX_GPIO_Init+0xa0>)
 8003cbc:	2102      	movs	r1, #2
 8003cbe:	430a      	orrs	r2, r1
 8003cc0:	635a      	str	r2, [r3, #52]	; 0x34
 8003cc2:	4b19      	ldr	r3, [pc, #100]	; (8003d28 <MX_GPIO_Init+0xa0>)
 8003cc4:	6b5b      	ldr	r3, [r3, #52]	; 0x34
 8003cc6:	2202      	movs	r2, #2
 8003cc8:	4013      	ands	r3, r2
 8003cca:	607b      	str	r3, [r7, #4]
 8003ccc:	687b      	ldr	r3, [r7, #4]
  __HAL_RCC_GPIOA_CLK_ENABLE();
 8003cce:	4b16      	ldr	r3, [pc, #88]	; (8003d28 <MX_GPIO_Init+0xa0>)
 8003cd0:	6b5a      	ldr	r2, [r3, #52]	; 0x34
 8003cd2:	4b15      	ldr	r3, [pc, #84]	; (8003d28 <MX_GPIO_Init+0xa0>)
 8003cd4:	2101      	movs	r1, #1
 8003cd6:	430a      	orrs	r2, r1
 8003cd8:	635a      	str	r2, [r3, #52]	; 0x34
 8003cda:	4b13      	ldr	r3, [pc, #76]	; (8003d28 <MX_GPIO_Init+0xa0>)
 8003cdc:	6b5b      	ldr	r3, [r3, #52]	; 0x34
 8003cde:	2201      	movs	r2, #1
 8003ce0:	4013      	ands	r3, r2
 8003ce2:	603b      	str	r3, [r7, #0]
 8003ce4:	683b      	ldr	r3, [r7, #0]

  /*Configure GPIO pin Output Level */
  HAL_GPIO_WritePin(CS_GPIO_Port, CS_Pin, GPIO_PIN_RESET);
 8003ce6:	2380      	movs	r3, #128	; 0x80
 8003ce8:	0059      	lsls	r1, r3, #1
 8003cea:	23a0      	movs	r3, #160	; 0xa0
 8003cec:	05db      	lsls	r3, r3, #23
 8003cee:	2200      	movs	r2, #0
 8003cf0:	0018      	movs	r0, r3
 8003cf2:	f001 f939 	bl	8004f68 <HAL_GPIO_WritePin>

  /*Configure GPIO pin : CS_Pin */
  GPIO_InitStruct.Pin = CS_Pin;
 8003cf6:	193b      	adds	r3, r7, r4
 8003cf8:	2280      	movs	r2, #128	; 0x80
 8003cfa:	0052      	lsls	r2, r2, #1
 8003cfc:	601a      	str	r2, [r3, #0]
  GPIO_InitStruct.Mode = GPIO_MODE_OUTPUT_PP;
 8003cfe:	193b      	adds	r3, r7, r4
 8003d00:	2201      	movs	r2, #1
 8003d02:	605a      	str	r2, [r3, #4]
  GPIO_InitStruct.Pull = GPIO_NOPULL;
 8003d04:	193b      	adds	r3, r7, r4
 8003d06:	2200      	movs	r2, #0
 8003d08:	609a      	str	r2, [r3, #8]
  GPIO_InitStruct.Speed = GPIO_SPEED_FREQ_LOW;
 8003d0a:	193b      	adds	r3, r7, r4
 8003d0c:	2200      	movs	r2, #0
 8003d0e:	60da      	str	r2, [r3, #12]
  HAL_GPIO_Init(CS_GPIO_Port, &GPIO_InitStruct);
 8003d10:	193a      	adds	r2, r7, r4
 8003d12:	23a0      	movs	r3, #160	; 0xa0
 8003d14:	05db      	lsls	r3, r3, #23
 8003d16:	0011      	movs	r1, r2
 8003d18:	0018      	movs	r0, r3
 8003d1a:	f000 ffc1 	bl	8004ca0 <HAL_GPIO_Init>

/* USER CODE BEGIN MX_GPIO_Init_2 */
/* USER CODE END MX_GPIO_Init_2 */
}
 8003d1e:	46c0      	nop			; (mov r8, r8)
 8003d20:	46bd      	mov	sp, r7
 8003d22:	b009      	add	sp, #36	; 0x24
 8003d24:	bd90      	pop	{r4, r7, pc}
 8003d26:	46c0      	nop			; (mov r8, r8)
 8003d28:	40021000 	.word	0x40021000

08003d2c <Lsm6ds3_int>:
uint8_t team = 0;
uint8_t teap = 0;
int value = 0;

int Lsm6ds3_int()
{
 8003d2c:	b580      	push	{r7, lr}
 8003d2e:	af00      	add	r7, sp, #0
	team = Lsm6ds3_readRegister(WHO_AM_I_REG);
 8003d30:	200f      	movs	r0, #15
 8003d32:	f000 f94d 	bl	8003fd0 <Lsm6ds3_readRegister>
 8003d36:	0003      	movs	r3, r0
 8003d38:	b2da      	uxtb	r2, r3
 8003d3a:	4b12      	ldr	r3, [pc, #72]	; (8003d84 <Lsm6ds3_int+0x58>)
 8003d3c:	701a      	strb	r2, [r3, #0]
	if(Lsm6ds3_readRegister(WHO_AM_I_REG) == 0x6b){
 8003d3e:	200f      	movs	r0, #15
 8003d40:	f000 f946 	bl	8003fd0 <Lsm6ds3_readRegister>
 8003d44:	0003      	movs	r3, r0
 8003d46:	2b6b      	cmp	r3, #107	; 0x6b
 8003d48:	d118      	bne.n	8003d7c <Lsm6ds3_int+0x50>
		//set the gyroscope control register to work at 104 Hz, 2000 dps and in bypass mode
		Lsm6ds3_writeRegister(CTRL2_G, 0x4C);
 8003d4a:	214c      	movs	r1, #76	; 0x4c
 8003d4c:	2011      	movs	r0, #17
 8003d4e:	f000 f9a3 	bl	8004098 <Lsm6ds3_writeRegister>
		teap = Lsm6ds3_readRegister(CTRL2_G);
 8003d52:	2011      	movs	r0, #17
 8003d54:	f000 f93c 	bl	8003fd0 <Lsm6ds3_readRegister>
 8003d58:	0003      	movs	r3, r0
 8003d5a:	b2da      	uxtb	r2, r3
 8003d5c:	4b0a      	ldr	r3, [pc, #40]	; (8003d88 <Lsm6ds3_int+0x5c>)
 8003d5e:	701a      	strb	r2, [r3, #0]

		// Set the Accelerometer control register to work at 104 Hz, 4 g,and in bypass mode and enable ODR/4
		// low pass filter (check figure9 of LSM6DS3's datasheet)
		Lsm6ds3_writeRegister(CTRL1_XL, 0x4A);
 8003d60:	214a      	movs	r1, #74	; 0x4a
 8003d62:	2010      	movs	r0, #16
 8003d64:	f000 f998 	bl	8004098 <Lsm6ds3_writeRegister>

		// set gyroscope power mode to high performance and bandwidth to 16 MHz
		Lsm6ds3_writeRegister(CTRL7_G, 0x00);
 8003d68:	2100      	movs	r1, #0
 8003d6a:	2016      	movs	r0, #22
 8003d6c:	f000 f994 	bl	8004098 <Lsm6ds3_writeRegister>

		// Set the ODR config register to ODR/4
		Lsm6ds3_writeRegister(CTRL8_XL, 0x09);
 8003d70:	2109      	movs	r1, #9
 8003d72:	2017      	movs	r0, #23
 8003d74:	f000 f990 	bl	8004098 <Lsm6ds3_writeRegister>
		return 1;
 8003d78:	2301      	movs	r3, #1
 8003d7a:	e000      	b.n	8003d7e <Lsm6ds3_int+0x52>
	}
	else {
		return 0;
 8003d7c:	2300      	movs	r3, #0
	}
}
 8003d7e:	0018      	movs	r0, r3
 8003d80:	46bd      	mov	sp, r7
 8003d82:	bd80      	pop	{r7, pc}
 8003d84:	20000288 	.word	0x20000288
 8003d88:	20000289 	.word	0x20000289

08003d8c <Lsm6ds3_readAcceleration>:
	Lsm6ds3_writeRegister(CTRL2_G, 0x00);
	Lsm6ds3_writeRegister(CTRL1_XL, 0x00);
}

int Lsm6ds3_readAcceleration(float *x, float* y, float* z)
{
 8003d8c:	b590      	push	{r4, r7, lr}
 8003d8e:	b08d      	sub	sp, #52	; 0x34
 8003d90:	af00      	add	r7, sp, #0
 8003d92:	60f8      	str	r0, [r7, #12]
 8003d94:	60b9      	str	r1, [r7, #8]
 8003d96:	607a      	str	r2, [r7, #4]
  int16_t data[3]={0};
 8003d98:	2428      	movs	r4, #40	; 0x28
 8003d9a:	193b      	adds	r3, r7, r4
 8003d9c:	0018      	movs	r0, r3
 8003d9e:	2306      	movs	r3, #6
 8003da0:	001a      	movs	r2, r3
 8003da2:	2100      	movs	r1, #0
 8003da4:	f001 fe0c 	bl	80059c0 <memset>
  long double _data[3]={0};
 8003da8:	2310      	movs	r3, #16
 8003daa:	18fb      	adds	r3, r7, r3
 8003dac:	0018      	movs	r0, r3
 8003dae:	2318      	movs	r3, #24
 8003db0:	001a      	movs	r2, r3
 8003db2:	2100      	movs	r1, #0
 8003db4:	f001 fe04 	bl	80059c0 <memset>

  if (!Lsm6ds3_readRegisters(OUTX_L_XL, (uint8_t*)data, sizeof(data))) {
 8003db8:	193b      	adds	r3, r7, r4
 8003dba:	2206      	movs	r2, #6
 8003dbc:	0019      	movs	r1, r3
 8003dbe:	2028      	movs	r0, #40	; 0x28
 8003dc0:	f000 f928 	bl	8004014 <Lsm6ds3_readRegisters>
 8003dc4:	1e03      	subs	r3, r0, #0
 8003dc6:	d107      	bne.n	8003dd8 <Lsm6ds3_readAcceleration+0x4c>
    x = 0;
 8003dc8:	2300      	movs	r3, #0
 8003dca:	60fb      	str	r3, [r7, #12]
    y = 0;
 8003dcc:	2300      	movs	r3, #0
 8003dce:	60bb      	str	r3, [r7, #8]
    z = 0;
 8003dd0:	2300      	movs	r3, #0
 8003dd2:	607b      	str	r3, [r7, #4]
    return 0;
 8003dd4:	2300      	movs	r3, #0
 8003dd6:	e052      	b.n	8003e7e <Lsm6ds3_readAcceleration+0xf2>
  }
  *x = data[0] * 4.0 / 32768.0;
 8003dd8:	2428      	movs	r4, #40	; 0x28
 8003dda:	193b      	adds	r3, r7, r4
 8003ddc:	2200      	movs	r2, #0
 8003dde:	5e9b      	ldrsh	r3, [r3, r2]
 8003de0:	0018      	movs	r0, r3
 8003de2:	f7fe ff79 	bl	8002cd8 <__aeabi_i2d>
 8003de6:	2200      	movs	r2, #0
 8003de8:	4b27      	ldr	r3, [pc, #156]	; (8003e88 <Lsm6ds3_readAcceleration+0xfc>)
 8003dea:	f7fe f923 	bl	8002034 <__aeabi_dmul>
 8003dee:	0002      	movs	r2, r0
 8003df0:	000b      	movs	r3, r1
 8003df2:	0010      	movs	r0, r2
 8003df4:	0019      	movs	r1, r3
 8003df6:	2200      	movs	r2, #0
 8003df8:	4b24      	ldr	r3, [pc, #144]	; (8003e8c <Lsm6ds3_readAcceleration+0x100>)
 8003dfa:	f7fd fd19 	bl	8001830 <__aeabi_ddiv>
 8003dfe:	0002      	movs	r2, r0
 8003e00:	000b      	movs	r3, r1
 8003e02:	0010      	movs	r0, r2
 8003e04:	0019      	movs	r1, r3
 8003e06:	f7ff f805 	bl	8002e14 <__aeabi_d2f>
 8003e0a:	1c02      	adds	r2, r0, #0
 8003e0c:	68fb      	ldr	r3, [r7, #12]
 8003e0e:	601a      	str	r2, [r3, #0]
  *y = data[1] * 4.0 / 32768.0;
 8003e10:	193b      	adds	r3, r7, r4
 8003e12:	2202      	movs	r2, #2
 8003e14:	5e9b      	ldrsh	r3, [r3, r2]
 8003e16:	0018      	movs	r0, r3
 8003e18:	f7fe ff5e 	bl	8002cd8 <__aeabi_i2d>
 8003e1c:	2200      	movs	r2, #0
 8003e1e:	4b1a      	ldr	r3, [pc, #104]	; (8003e88 <Lsm6ds3_readAcceleration+0xfc>)
 8003e20:	f7fe f908 	bl	8002034 <__aeabi_dmul>
 8003e24:	0002      	movs	r2, r0
 8003e26:	000b      	movs	r3, r1
 8003e28:	0010      	movs	r0, r2
 8003e2a:	0019      	movs	r1, r3
 8003e2c:	2200      	movs	r2, #0
 8003e2e:	4b17      	ldr	r3, [pc, #92]	; (8003e8c <Lsm6ds3_readAcceleration+0x100>)
 8003e30:	f7fd fcfe 	bl	8001830 <__aeabi_ddiv>
 8003e34:	0002      	movs	r2, r0
 8003e36:	000b      	movs	r3, r1
 8003e38:	0010      	movs	r0, r2
 8003e3a:	0019      	movs	r1, r3
 8003e3c:	f7fe ffea 	bl	8002e14 <__aeabi_d2f>
 8003e40:	1c02      	adds	r2, r0, #0
 8003e42:	68bb      	ldr	r3, [r7, #8]
 8003e44:	601a      	str	r2, [r3, #0]
  *z = data[2] * 4.0 / 32768.0;
 8003e46:	193b      	adds	r3, r7, r4
 8003e48:	2204      	movs	r2, #4
 8003e4a:	5e9b      	ldrsh	r3, [r3, r2]
 8003e4c:	0018      	movs	r0, r3
 8003e4e:	f7fe ff43 	bl	8002cd8 <__aeabi_i2d>
 8003e52:	2200      	movs	r2, #0
 8003e54:	4b0c      	ldr	r3, [pc, #48]	; (8003e88 <Lsm6ds3_readAcceleration+0xfc>)
 8003e56:	f7fe f8ed 	bl	8002034 <__aeabi_dmul>
 8003e5a:	0002      	movs	r2, r0
 8003e5c:	000b      	movs	r3, r1
 8003e5e:	0010      	movs	r0, r2
 8003e60:	0019      	movs	r1, r3
 8003e62:	2200      	movs	r2, #0
 8003e64:	4b09      	ldr	r3, [pc, #36]	; (8003e8c <Lsm6ds3_readAcceleration+0x100>)
 8003e66:	f7fd fce3 	bl	8001830 <__aeabi_ddiv>
 8003e6a:	0002      	movs	r2, r0
 8003e6c:	000b      	movs	r3, r1
 8003e6e:	0010      	movs	r0, r2
 8003e70:	0019      	movs	r1, r3
 8003e72:	f7fe ffcf 	bl	8002e14 <__aeabi_d2f>
 8003e76:	1c02      	adds	r2, r0, #0
 8003e78:	687b      	ldr	r3, [r7, #4]
 8003e7a:	601a      	str	r2, [r3, #0]
  return 1;
 8003e7c:	2301      	movs	r3, #1
}
 8003e7e:	0018      	movs	r0, r3
 8003e80:	46bd      	mov	sp, r7
 8003e82:	b00d      	add	sp, #52	; 0x34
 8003e84:	bd90      	pop	{r4, r7, pc}
 8003e86:	46c0      	nop			; (mov r8, r8)
 8003e88:	40100000 	.word	0x40100000
 8003e8c:	40e00000 	.word	0x40e00000

08003e90 <Lsm6ds3_accelerationAvailable>:
int acc;
int Lsm6ds3_accelerationAvailable()
{
 8003e90:	b580      	push	{r7, lr}
 8003e92:	af00      	add	r7, sp, #0
	acc = Lsm6ds3_readRegister(STATUS_REG);
 8003e94:	201e      	movs	r0, #30
 8003e96:	f000 f89b 	bl	8003fd0 <Lsm6ds3_readRegister>
 8003e9a:	0002      	movs	r2, r0
 8003e9c:	4b06      	ldr	r3, [pc, #24]	; (8003eb8 <Lsm6ds3_accelerationAvailable+0x28>)
 8003e9e:	601a      	str	r2, [r3, #0]
  if (acc & 0x01) {
 8003ea0:	4b05      	ldr	r3, [pc, #20]	; (8003eb8 <Lsm6ds3_accelerationAvailable+0x28>)
 8003ea2:	681b      	ldr	r3, [r3, #0]
 8003ea4:	2201      	movs	r2, #1
 8003ea6:	4013      	ands	r3, r2
 8003ea8:	d001      	beq.n	8003eae <Lsm6ds3_accelerationAvailable+0x1e>
    return 1;
 8003eaa:	2301      	movs	r3, #1
 8003eac:	e000      	b.n	8003eb0 <Lsm6ds3_accelerationAvailable+0x20>
  }
  return 0;
 8003eae:	2300      	movs	r3, #0
}
 8003eb0:	0018      	movs	r0, r3
 8003eb2:	46bd      	mov	sp, r7
 8003eb4:	bd80      	pop	{r7, pc}
 8003eb6:	46c0      	nop			; (mov r8, r8)
 8003eb8:	2000028c 	.word	0x2000028c

08003ebc <Lsm6ds3_readGyroscope>:

int Lsm6ds3_readGyroscope(float* x, float* y, float* z)
{
 8003ebc:	b590      	push	{r4, r7, lr}
 8003ebe:	b087      	sub	sp, #28
 8003ec0:	af00      	add	r7, sp, #0
 8003ec2:	60f8      	str	r0, [r7, #12]
 8003ec4:	60b9      	str	r1, [r7, #8]
 8003ec6:	607a      	str	r2, [r7, #4]
  int16_t data[3]={0};
 8003ec8:	2410      	movs	r4, #16
 8003eca:	193b      	adds	r3, r7, r4
 8003ecc:	0018      	movs	r0, r3
 8003ece:	2306      	movs	r3, #6
 8003ed0:	001a      	movs	r2, r3
 8003ed2:	2100      	movs	r1, #0
 8003ed4:	f001 fd74 	bl	80059c0 <memset>

  if (!Lsm6ds3_readRegisters(OUTX_L_G, (uint8_t*)data, sizeof(data))) {
 8003ed8:	193b      	adds	r3, r7, r4
 8003eda:	2206      	movs	r2, #6
 8003edc:	0019      	movs	r1, r3
 8003ede:	2022      	movs	r0, #34	; 0x22
 8003ee0:	f000 f898 	bl	8004014 <Lsm6ds3_readRegisters>
 8003ee4:	1e03      	subs	r3, r0, #0
 8003ee6:	d107      	bne.n	8003ef8 <Lsm6ds3_readGyroscope+0x3c>
    x = 0;
 8003ee8:	2300      	movs	r3, #0
 8003eea:	60fb      	str	r3, [r7, #12]
    y = 0;
 8003eec:	2300      	movs	r3, #0
 8003eee:	60bb      	str	r3, [r7, #8]
    z = 0;
 8003ef0:	2300      	movs	r3, #0
 8003ef2:	607b      	str	r3, [r7, #4]
    return 0;
 8003ef4:	2300      	movs	r3, #0
 8003ef6:	e052      	b.n	8003f9e <Lsm6ds3_readGyroscope+0xe2>
  }
  *x = data[0] * 2000.0 / 32768.0;
 8003ef8:	2410      	movs	r4, #16
 8003efa:	193b      	adds	r3, r7, r4
 8003efc:	2200      	movs	r2, #0
 8003efe:	5e9b      	ldrsh	r3, [r3, r2]
 8003f00:	0018      	movs	r0, r3
 8003f02:	f7fe fee9 	bl	8002cd8 <__aeabi_i2d>
 8003f06:	2200      	movs	r2, #0
 8003f08:	4b27      	ldr	r3, [pc, #156]	; (8003fa8 <Lsm6ds3_readGyroscope+0xec>)
 8003f0a:	f7fe f893 	bl	8002034 <__aeabi_dmul>
 8003f0e:	0002      	movs	r2, r0
 8003f10:	000b      	movs	r3, r1
 8003f12:	0010      	movs	r0, r2
 8003f14:	0019      	movs	r1, r3
 8003f16:	2200      	movs	r2, #0
 8003f18:	4b24      	ldr	r3, [pc, #144]	; (8003fac <Lsm6ds3_readGyroscope+0xf0>)
 8003f1a:	f7fd fc89 	bl	8001830 <__aeabi_ddiv>
 8003f1e:	0002      	movs	r2, r0
 8003f20:	000b      	movs	r3, r1
 8003f22:	0010      	movs	r0, r2
 8003f24:	0019      	movs	r1, r3
 8003f26:	f7fe ff75 	bl	8002e14 <__aeabi_d2f>
 8003f2a:	1c02      	adds	r2, r0, #0
 8003f2c:	68fb      	ldr	r3, [r7, #12]
 8003f2e:	601a      	str	r2, [r3, #0]
  *y = data[1] * 2000.0 / 32768.0;
 8003f30:	193b      	adds	r3, r7, r4
 8003f32:	2202      	movs	r2, #2
 8003f34:	5e9b      	ldrsh	r3, [r3, r2]
 8003f36:	0018      	movs	r0, r3
 8003f38:	f7fe fece 	bl	8002cd8 <__aeabi_i2d>
 8003f3c:	2200      	movs	r2, #0
 8003f3e:	4b1a      	ldr	r3, [pc, #104]	; (8003fa8 <Lsm6ds3_readGyroscope+0xec>)
 8003f40:	f7fe f878 	bl	8002034 <__aeabi_dmul>
 8003f44:	0002      	movs	r2, r0
 8003f46:	000b      	movs	r3, r1
 8003f48:	0010      	movs	r0, r2
 8003f4a:	0019      	movs	r1, r3
 8003f4c:	2200      	movs	r2, #0
 8003f4e:	4b17      	ldr	r3, [pc, #92]	; (8003fac <Lsm6ds3_readGyroscope+0xf0>)
 8003f50:	f7fd fc6e 	bl	8001830 <__aeabi_ddiv>
 8003f54:	0002      	movs	r2, r0
 8003f56:	000b      	movs	r3, r1
 8003f58:	0010      	movs	r0, r2
 8003f5a:	0019      	movs	r1, r3
 8003f5c:	f7fe ff5a 	bl	8002e14 <__aeabi_d2f>
 8003f60:	1c02      	adds	r2, r0, #0
 8003f62:	68bb      	ldr	r3, [r7, #8]
 8003f64:	601a      	str	r2, [r3, #0]
  *z = data[2] * 2000.0 / 32768.0;
 8003f66:	193b      	adds	r3, r7, r4
 8003f68:	2204      	movs	r2, #4
 8003f6a:	5e9b      	ldrsh	r3, [r3, r2]
 8003f6c:	0018      	movs	r0, r3
 8003f6e:	f7fe feb3 	bl	8002cd8 <__aeabi_i2d>
 8003f72:	2200      	movs	r2, #0
 8003f74:	4b0c      	ldr	r3, [pc, #48]	; (8003fa8 <Lsm6ds3_readGyroscope+0xec>)
 8003f76:	f7fe f85d 	bl	8002034 <__aeabi_dmul>
 8003f7a:	0002      	movs	r2, r0
 8003f7c:	000b      	movs	r3, r1
 8003f7e:	0010      	movs	r0, r2
 8003f80:	0019      	movs	r1, r3
 8003f82:	2200      	movs	r2, #0
 8003f84:	4b09      	ldr	r3, [pc, #36]	; (8003fac <Lsm6ds3_readGyroscope+0xf0>)
 8003f86:	f7fd fc53 	bl	8001830 <__aeabi_ddiv>
 8003f8a:	0002      	movs	r2, r0
 8003f8c:	000b      	movs	r3, r1
 8003f8e:	0010      	movs	r0, r2
 8003f90:	0019      	movs	r1, r3
 8003f92:	f7fe ff3f 	bl	8002e14 <__aeabi_d2f>
 8003f96:	1c02      	adds	r2, r0, #0
 8003f98:	687b      	ldr	r3, [r7, #4]
 8003f9a:	601a      	str	r2, [r3, #0]
  return 1;
 8003f9c:	2301      	movs	r3, #1
}
 8003f9e:	0018      	movs	r0, r3
 8003fa0:	46bd      	mov	sp, r7
 8003fa2:	b007      	add	sp, #28
 8003fa4:	bd90      	pop	{r4, r7, pc}
 8003fa6:	46c0      	nop			; (mov r8, r8)
 8003fa8:	409f4000 	.word	0x409f4000
 8003fac:	40e00000 	.word	0x40e00000

08003fb0 <Lsm6ds3_gyroscopeAvailable>:

int Lsm6ds3_gyroscopeAvailable()
{
 8003fb0:	b580      	push	{r7, lr}
 8003fb2:	af00      	add	r7, sp, #0
  if (Lsm6ds3_readRegister(STATUS_REG) & 0x02) {
 8003fb4:	201e      	movs	r0, #30
 8003fb6:	f000 f80b 	bl	8003fd0 <Lsm6ds3_readRegister>
 8003fba:	0003      	movs	r3, r0
 8003fbc:	2202      	movs	r2, #2
 8003fbe:	4013      	ands	r3, r2
 8003fc0:	d001      	beq.n	8003fc6 <Lsm6ds3_gyroscopeAvailable+0x16>
    return 1;
 8003fc2:	2301      	movs	r3, #1
 8003fc4:	e000      	b.n	8003fc8 <Lsm6ds3_gyroscopeAvailable+0x18>
  }
  return 0;
 8003fc6:	2300      	movs	r3, #0
}
 8003fc8:	0018      	movs	r0, r3
 8003fca:	46bd      	mov	sp, r7
 8003fcc:	bd80      	pop	{r7, pc}
	...

08003fd0 <Lsm6ds3_readRegister>:
{
  return 104.0F;
}
int readRegister;
int Lsm6ds3_readRegister(uint8_t address)
{
 8003fd0:	b580      	push	{r7, lr}
 8003fd2:	b084      	sub	sp, #16
 8003fd4:	af00      	add	r7, sp, #0
 8003fd6:	0002      	movs	r2, r0
 8003fd8:	1dfb      	adds	r3, r7, #7
 8003fda:	701a      	strb	r2, [r3, #0]
  uint8_t value;

  if (Lsm6ds3_readRegisters(address, &value, sizeof(value)) != 1) {
 8003fdc:	230f      	movs	r3, #15
 8003fde:	18f9      	adds	r1, r7, r3
 8003fe0:	1dfb      	adds	r3, r7, #7
 8003fe2:	781b      	ldrb	r3, [r3, #0]
 8003fe4:	2201      	movs	r2, #1
 8003fe6:	0018      	movs	r0, r3
 8003fe8:	f000 f814 	bl	8004014 <Lsm6ds3_readRegisters>
 8003fec:	0003      	movs	r3, r0
 8003fee:	2b01      	cmp	r3, #1
 8003ff0:	d006      	beq.n	8004000 <Lsm6ds3_readRegister+0x30>
	  readRegister= -1;
 8003ff2:	4b07      	ldr	r3, [pc, #28]	; (8004010 <Lsm6ds3_readRegister+0x40>)
 8003ff4:	2201      	movs	r2, #1
 8003ff6:	4252      	negs	r2, r2
 8003ff8:	601a      	str	r2, [r3, #0]
	  return readRegister;
 8003ffa:	4b05      	ldr	r3, [pc, #20]	; (8004010 <Lsm6ds3_readRegister+0x40>)
 8003ffc:	681b      	ldr	r3, [r3, #0]
 8003ffe:	e002      	b.n	8004006 <Lsm6ds3_readRegister+0x36>
  }
  return value;
 8004000:	230f      	movs	r3, #15
 8004002:	18fb      	adds	r3, r7, r3
 8004004:	781b      	ldrb	r3, [r3, #0]
}
 8004006:	0018      	movs	r0, r3
 8004008:	46bd      	mov	sp, r7
 800400a:	b004      	add	sp, #16
 800400c:	bd80      	pop	{r7, pc}
 800400e:	46c0      	nop			; (mov r8, r8)
 8004010:	20000290 	.word	0x20000290

08004014 <Lsm6ds3_readRegisters>:

int Lsm6ds3_readRegisters(uint8_t address, uint8_t* data, size_t length)
{
 8004014:	b590      	push	{r4, r7, lr}
 8004016:	b087      	sub	sp, #28
 8004018:	af00      	add	r7, sp, #0
 800401a:	60b9      	str	r1, [r7, #8]
 800401c:	607a      	str	r2, [r7, #4]
 800401e:	240f      	movs	r4, #15
 8004020:	193b      	adds	r3, r7, r4
 8004022:	1c02      	adds	r2, r0, #0
 8004024:	701a      	strb	r2, [r3, #0]
	address |= 0x80;
 8004026:	193b      	adds	r3, r7, r4
 8004028:	193a      	adds	r2, r7, r4
 800402a:	7812      	ldrb	r2, [r2, #0]
 800402c:	2180      	movs	r1, #128	; 0x80
 800402e:	4249      	negs	r1, r1
 8004030:	430a      	orrs	r2, r1
 8004032:	701a      	strb	r2, [r3, #0]
	HAL_GPIO_WritePin(CS_GPIO_Port, CS_Pin, GPIO_PIN_RESET);
 8004034:	2380      	movs	r3, #128	; 0x80
 8004036:	0059      	lsls	r1, r3, #1
 8004038:	23a0      	movs	r3, #160	; 0xa0
 800403a:	05db      	lsls	r3, r3, #23
 800403c:	2200      	movs	r2, #0
 800403e:	0018      	movs	r0, r3
 8004040:	f000 ff92 	bl	8004f68 <HAL_GPIO_WritePin>
	SPIx_readWrite(LSM6DS3_SPI, address);
 8004044:	193b      	adds	r3, r7, r4
 8004046:	781b      	ldrb	r3, [r3, #0]
 8004048:	4a12      	ldr	r2, [pc, #72]	; (8004094 <Lsm6ds3_readRegisters+0x80>)
 800404a:	0019      	movs	r1, r3
 800404c:	0010      	movs	r0, r2
 800404e:	f7ff fded 	bl	8003c2c <SPIx_readWrite>
	for(int i=0; i<length; i++){
 8004052:	2300      	movs	r3, #0
 8004054:	617b      	str	r3, [r7, #20]
 8004056:	e00c      	b.n	8004072 <Lsm6ds3_readRegisters+0x5e>
		*(data+i) = SPIx_readWrite(LSM6DS3_SPI, 0x00);
 8004058:	697b      	ldr	r3, [r7, #20]
 800405a:	68ba      	ldr	r2, [r7, #8]
 800405c:	18d4      	adds	r4, r2, r3
 800405e:	4b0d      	ldr	r3, [pc, #52]	; (8004094 <Lsm6ds3_readRegisters+0x80>)
 8004060:	2100      	movs	r1, #0
 8004062:	0018      	movs	r0, r3
 8004064:	f7ff fde2 	bl	8003c2c <SPIx_readWrite>
 8004068:	0003      	movs	r3, r0
 800406a:	7023      	strb	r3, [r4, #0]
	for(int i=0; i<length; i++){
 800406c:	697b      	ldr	r3, [r7, #20]
 800406e:	3301      	adds	r3, #1
 8004070:	617b      	str	r3, [r7, #20]
 8004072:	697b      	ldr	r3, [r7, #20]
 8004074:	687a      	ldr	r2, [r7, #4]
 8004076:	429a      	cmp	r2, r3
 8004078:	d8ee      	bhi.n	8004058 <Lsm6ds3_readRegisters+0x44>
	}
	HAL_GPIO_WritePin(CS_GPIO_Port, CS_Pin, GPIO_PIN_SET);
 800407a:	2380      	movs	r3, #128	; 0x80
 800407c:	0059      	lsls	r1, r3, #1
 800407e:	23a0      	movs	r3, #160	; 0xa0
 8004080:	05db      	lsls	r3, r3, #23
 8004082:	2201      	movs	r2, #1
 8004084:	0018      	movs	r0, r3
 8004086:	f000 ff6f 	bl	8004f68 <HAL_GPIO_WritePin>
	return 1;
 800408a:	2301      	movs	r3, #1
}
 800408c:	0018      	movs	r0, r3
 800408e:	46bd      	mov	sp, r7
 8004090:	b007      	add	sp, #28
 8004092:	bd90      	pop	{r4, r7, pc}
 8004094:	40003800 	.word	0x40003800

08004098 <Lsm6ds3_writeRegister>:

int Lsm6ds3_writeRegister(uint8_t address, uint8_t value)
{
 8004098:	b580      	push	{r7, lr}
 800409a:	b082      	sub	sp, #8
 800409c:	af00      	add	r7, sp, #0
 800409e:	0002      	movs	r2, r0
 80040a0:	1dfb      	adds	r3, r7, #7
 80040a2:	701a      	strb	r2, [r3, #0]
 80040a4:	1dbb      	adds	r3, r7, #6
 80040a6:	1c0a      	adds	r2, r1, #0
 80040a8:	701a      	strb	r2, [r3, #0]
	HAL_GPIO_WritePin(CS_GPIO_Port, CS_Pin, GPIO_PIN_RESET);
 80040aa:	2380      	movs	r3, #128	; 0x80
 80040ac:	0059      	lsls	r1, r3, #1
 80040ae:	23a0      	movs	r3, #160	; 0xa0
 80040b0:	05db      	lsls	r3, r3, #23
 80040b2:	2200      	movs	r2, #0
 80040b4:	0018      	movs	r0, r3
 80040b6:	f000 ff57 	bl	8004f68 <HAL_GPIO_WritePin>
	SPIx_readWrite(LSM6DS3_SPI, address);
 80040ba:	1dfb      	adds	r3, r7, #7
 80040bc:	781b      	ldrb	r3, [r3, #0]
 80040be:	4a0c      	ldr	r2, [pc, #48]	; (80040f0 <Lsm6ds3_writeRegister+0x58>)
 80040c0:	0019      	movs	r1, r3
 80040c2:	0010      	movs	r0, r2
 80040c4:	f7ff fdb2 	bl	8003c2c <SPIx_readWrite>
	SPIx_readWrite(LSM6DS3_SPI, value);
 80040c8:	1dbb      	adds	r3, r7, #6
 80040ca:	781b      	ldrb	r3, [r3, #0]
 80040cc:	4a08      	ldr	r2, [pc, #32]	; (80040f0 <Lsm6ds3_writeRegister+0x58>)
 80040ce:	0019      	movs	r1, r3
 80040d0:	0010      	movs	r0, r2
 80040d2:	f7ff fdab 	bl	8003c2c <SPIx_readWrite>
	HAL_GPIO_WritePin(CS_GPIO_Port, CS_Pin, GPIO_PIN_SET);
 80040d6:	2380      	movs	r3, #128	; 0x80
 80040d8:	0059      	lsls	r1, r3, #1
 80040da:	23a0      	movs	r3, #160	; 0xa0
 80040dc:	05db      	lsls	r3, r3, #23
 80040de:	2201      	movs	r2, #1
 80040e0:	0018      	movs	r0, r3
 80040e2:	f000 ff41 	bl	8004f68 <HAL_GPIO_WritePin>
}
 80040e6:	46c0      	nop			; (mov r8, r8)
 80040e8:	0018      	movs	r0, r3
 80040ea:	46bd      	mov	sp, r7
 80040ec:	b002      	add	sp, #8
 80040ee:	bd80      	pop	{r7, pc}
 80040f0:	40003800 	.word	0x40003800

080040f4 <Lsm6ds3_printRotationAngles>:

void Lsm6ds3_printRotationAngles() {
 80040f4:	b5f0      	push	{r4, r5, r6, r7, lr}
 80040f6:	b09f      	sub	sp, #124	; 0x7c
 80040f8:	af0a      	add	r7, sp, #40	; 0x28

   float ax, ay, az;  // accelerometer values
   float gx, gy, gz;  // gyroscope values
   char _yaw[] = "yaw";
 80040fa:	232c      	movs	r3, #44	; 0x2c
 80040fc:	2408      	movs	r4, #8
 80040fe:	191b      	adds	r3, r3, r4
 8004100:	19db      	adds	r3, r3, r7
 8004102:	4a52      	ldr	r2, [pc, #328]	; (800424c <Lsm6ds3_printRotationAngles+0x158>)
 8004104:	601a      	str	r2, [r3, #0]
   char _pitch[] = "pitch";
 8004106:	2224      	movs	r2, #36	; 0x24
 8004108:	1913      	adds	r3, r2, r4
 800410a:	19db      	adds	r3, r3, r7
 800410c:	4a50      	ldr	r2, [pc, #320]	; (8004250 <Lsm6ds3_printRotationAngles+0x15c>)
 800410e:	6811      	ldr	r1, [r2, #0]
 8004110:	6019      	str	r1, [r3, #0]
 8004112:	8892      	ldrh	r2, [r2, #4]
 8004114:	809a      	strh	r2, [r3, #4]
   char _roll[] = "roll";
 8004116:	261c      	movs	r6, #28
 8004118:	1933      	adds	r3, r6, r4
 800411a:	19db      	adds	r3, r3, r7
 800411c:	4a4d      	ldr	r2, [pc, #308]	; (8004254 <Lsm6ds3_printRotationAngles+0x160>)
 800411e:	6811      	ldr	r1, [r2, #0]
 8004120:	6019      	str	r1, [r3, #0]
 8004122:	7912      	ldrb	r2, [r2, #4]
 8004124:	711a      	strb	r2, [r3, #4]
   float acc[6] = {0};
 8004126:	230c      	movs	r3, #12
 8004128:	18fb      	adds	r3, r7, r3
 800412a:	0018      	movs	r0, r3
 800412c:	2318      	movs	r3, #24
 800412e:	001a      	movs	r2, r3
 8004130:	2100      	movs	r1, #0
 8004132:	f001 fc45 	bl	80059c0 <memset>
   static int i=0;

   if (Lsm6ds3_accelerationAvailable() && Lsm6ds3_gyroscopeAvailable()
 8004136:	f7ff feab 	bl	8003e90 <Lsm6ds3_accelerationAvailable>
 800413a:	1e03      	subs	r3, r0, #0
 800413c:	d100      	bne.n	8004140 <Lsm6ds3_printRotationAngles+0x4c>
 800413e:	e080      	b.n	8004242 <Lsm6ds3_printRotationAngles+0x14e>
 8004140:	f7ff ff36 	bl	8003fb0 <Lsm6ds3_gyroscopeAvailable>
 8004144:	1e03      	subs	r3, r0, #0
 8004146:	d100      	bne.n	800414a <Lsm6ds3_printRotationAngles+0x56>
 8004148:	e07b      	b.n	8004242 <Lsm6ds3_printRotationAngles+0x14e>
      && Lsm6ds3_readAcceleration(&ax, &ay, &az) && Lsm6ds3_readGyroscope(&gx, &gy, &gz)) {
 800414a:	213c      	movs	r1, #60	; 0x3c
 800414c:	190b      	adds	r3, r1, r4
 800414e:	19da      	adds	r2, r3, r7
 8004150:	2140      	movs	r1, #64	; 0x40
 8004152:	190b      	adds	r3, r1, r4
 8004154:	19d9      	adds	r1, r3, r7
 8004156:	2044      	movs	r0, #68	; 0x44
 8004158:	1903      	adds	r3, r0, r4
 800415a:	19db      	adds	r3, r3, r7
 800415c:	0018      	movs	r0, r3
 800415e:	f7ff fe15 	bl	8003d8c <Lsm6ds3_readAcceleration>
 8004162:	1e03      	subs	r3, r0, #0
 8004164:	d06d      	beq.n	8004242 <Lsm6ds3_printRotationAngles+0x14e>
 8004166:	2130      	movs	r1, #48	; 0x30
 8004168:	190b      	adds	r3, r1, r4
 800416a:	19da      	adds	r2, r3, r7
 800416c:	2134      	movs	r1, #52	; 0x34
 800416e:	190b      	adds	r3, r1, r4
 8004170:	19d9      	adds	r1, r3, r7
 8004172:	2038      	movs	r0, #56	; 0x38
 8004174:	1903      	adds	r3, r0, r4
 8004176:	19db      	adds	r3, r3, r7
 8004178:	0018      	movs	r0, r3
 800417a:	f7ff fe9f 	bl	8003ebc <Lsm6ds3_readGyroscope>
 800417e:	1e03      	subs	r3, r0, #0
 8004180:	d05f      	beq.n	8004242 <Lsm6ds3_printRotationAngles+0x14e>

	      Madgwick_updateIMU(gx, gy, gz, ax, ay, az);
 8004182:	6c38      	ldr	r0, [r7, #64]	; 0x40
 8004184:	6bf9      	ldr	r1, [r7, #60]	; 0x3c
 8004186:	6bbc      	ldr	r4, [r7, #56]	; 0x38
 8004188:	6cfd      	ldr	r5, [r7, #76]	; 0x4c
 800418a:	6cbb      	ldr	r3, [r7, #72]	; 0x48
 800418c:	6c7a      	ldr	r2, [r7, #68]	; 0x44
 800418e:	9201      	str	r2, [sp, #4]
 8004190:	9300      	str	r3, [sp, #0]
 8004192:	1c2b      	adds	r3, r5, #0
 8004194:	1c22      	adds	r2, r4, #0
 8004196:	f7fe ff1b 	bl	8002fd0 <Madgwick_updateIMU>
	      roll  = Madgwick_getRoll();
 800419a:	f7ff fbef 	bl	800397c <Madgwick_getRoll>
 800419e:	1c02      	adds	r2, r0, #0
 80041a0:	4b2d      	ldr	r3, [pc, #180]	; (8004258 <Lsm6ds3_printRotationAngles+0x164>)
 80041a2:	601a      	str	r2, [r3, #0]
	      pitch = Madgwick_getPitch();
 80041a4:	f7ff fc02 	bl	80039ac <Madgwick_getPitch>
 80041a8:	1c02      	adds	r2, r0, #0
 80041aa:	4b2c      	ldr	r3, [pc, #176]	; (800425c <Lsm6ds3_printRotationAngles+0x168>)
 80041ac:	601a      	str	r2, [r3, #0]
	      yaw   = Madgwick_getYaw();
 80041ae:	f7ff fc15 	bl	80039dc <Madgwick_getYaw>
 80041b2:	1c02      	adds	r2, r0, #0
 80041b4:	4b2a      	ldr	r3, [pc, #168]	; (8004260 <Lsm6ds3_printRotationAngles+0x16c>)
 80041b6:	601a      	str	r2, [r3, #0]
	      i++;
 80041b8:	4b2a      	ldr	r3, [pc, #168]	; (8004264 <Lsm6ds3_printRotationAngles+0x170>)
 80041ba:	681b      	ldr	r3, [r3, #0]
 80041bc:	1c5a      	adds	r2, r3, #1
 80041be:	4b29      	ldr	r3, [pc, #164]	; (8004264 <Lsm6ds3_printRotationAngles+0x170>)
 80041c0:	601a      	str	r2, [r3, #0]
	      if(9==i){
 80041c2:	4b28      	ldr	r3, [pc, #160]	; (8004264 <Lsm6ds3_printRotationAngles+0x170>)
 80041c4:	681b      	ldr	r3, [r3, #0]
 80041c6:	2b09      	cmp	r3, #9
 80041c8:	d13b      	bne.n	8004242 <Lsm6ds3_printRotationAngles+0x14e>
	         sprintf(uart_buf, "%s: %0.2f;   %s: %0.2f;   %s: %0.2f\n", _roll, roll, _pitch, pitch, _yaw, yaw);
 80041ca:	4b23      	ldr	r3, [pc, #140]	; (8004258 <Lsm6ds3_printRotationAngles+0x164>)
 80041cc:	681b      	ldr	r3, [r3, #0]
 80041ce:	1c18      	adds	r0, r3, #0
 80041d0:	f7fe fdd8 	bl	8002d84 <__aeabi_f2d>
 80041d4:	0004      	movs	r4, r0
 80041d6:	000d      	movs	r5, r1
 80041d8:	4b20      	ldr	r3, [pc, #128]	; (800425c <Lsm6ds3_printRotationAngles+0x168>)
 80041da:	681b      	ldr	r3, [r3, #0]
 80041dc:	1c18      	adds	r0, r3, #0
 80041de:	f7fe fdd1 	bl	8002d84 <__aeabi_f2d>
 80041e2:	6038      	str	r0, [r7, #0]
 80041e4:	6079      	str	r1, [r7, #4]
 80041e6:	4b1e      	ldr	r3, [pc, #120]	; (8004260 <Lsm6ds3_printRotationAngles+0x16c>)
 80041e8:	681b      	ldr	r3, [r3, #0]
 80041ea:	1c18      	adds	r0, r3, #0
 80041ec:	f7fe fdca 	bl	8002d84 <__aeabi_f2d>
 80041f0:	0002      	movs	r2, r0
 80041f2:	000b      	movs	r3, r1
 80041f4:	2108      	movs	r1, #8
 80041f6:	1870      	adds	r0, r6, r1
 80041f8:	19c6      	adds	r6, r0, r7
 80041fa:	491b      	ldr	r1, [pc, #108]	; (8004268 <Lsm6ds3_printRotationAngles+0x174>)
 80041fc:	481b      	ldr	r0, [pc, #108]	; (800426c <Lsm6ds3_printRotationAngles+0x178>)
 80041fe:	9208      	str	r2, [sp, #32]
 8004200:	9309      	str	r3, [sp, #36]	; 0x24
 8004202:	232c      	movs	r3, #44	; 0x2c
 8004204:	2208      	movs	r2, #8
 8004206:	189b      	adds	r3, r3, r2
 8004208:	19db      	adds	r3, r3, r7
 800420a:	9306      	str	r3, [sp, #24]
 800420c:	683a      	ldr	r2, [r7, #0]
 800420e:	687b      	ldr	r3, [r7, #4]
 8004210:	9204      	str	r2, [sp, #16]
 8004212:	9305      	str	r3, [sp, #20]
 8004214:	2224      	movs	r2, #36	; 0x24
 8004216:	2308      	movs	r3, #8
 8004218:	18d3      	adds	r3, r2, r3
 800421a:	19db      	adds	r3, r3, r7
 800421c:	9302      	str	r3, [sp, #8]
 800421e:	9400      	str	r4, [sp, #0]
 8004220:	9501      	str	r5, [sp, #4]
 8004222:	0032      	movs	r2, r6
 8004224:	f002 f842 	bl	80062ac <siprintf>
	         pc_putArray(&uart_buf, strlen(uart_buf));
 8004228:	4b10      	ldr	r3, [pc, #64]	; (800426c <Lsm6ds3_printRotationAngles+0x178>)
 800422a:	0018      	movs	r0, r3
 800422c:	f7fb ff6a 	bl	8000104 <strlen>
 8004230:	0002      	movs	r2, r0
 8004232:	4b0e      	ldr	r3, [pc, #56]	; (800426c <Lsm6ds3_printRotationAngles+0x178>)
 8004234:	0011      	movs	r1, r2
 8004236:	0018      	movs	r0, r3
 8004238:	f000 f92d 	bl	8004496 <pc_putArray>
	         i=0;
 800423c:	4b09      	ldr	r3, [pc, #36]	; (8004264 <Lsm6ds3_printRotationAngles+0x170>)
 800423e:	2200      	movs	r2, #0
 8004240:	601a      	str	r2, [r3, #0]
	      }
   }
}
 8004242:	46c0      	nop			; (mov r8, r8)
 8004244:	46bd      	mov	sp, r7
 8004246:	b015      	add	sp, #84	; 0x54
 8004248:	bdf0      	pop	{r4, r5, r6, r7, pc}
 800424a:	46c0      	nop			; (mov r8, r8)
 800424c:	00776179 	.word	0x00776179
 8004250:	08008ff8 	.word	0x08008ff8
 8004254:	08009000 	.word	0x08009000
 8004258:	20000210 	.word	0x20000210
 800425c:	20000214 	.word	0x20000214
 8004260:	20000218 	.word	0x20000218
 8004264:	20000294 	.word	0x20000294
 8004268:	08008fd0 	.word	0x08008fd0
 800426c:	20000224 	.word	0x20000224

08004270 <main>:
/**
  * @brief  The application entry point.
  * @retval int
  */
int main(void)
{
 8004270:	b5f0      	push	{r4, r5, r6, r7, lr}
 8004272:	b0a5      	sub	sp, #148	; 0x94
 8004274:	af00      	add	r7, sp, #0
  /* USER CODE END 1 */

  /* MCU Configuration--------------------------------------------------------*/

  /* Reset of all peripherals, Initializes the Flash interface and the Systick. */
  HAL_Init();
 8004276:	f000 fbb5 	bl	80049e4 <HAL_Init>
  /* USER CODE BEGIN Init */

  /* USER CODE END Init */

  /* Configure the system clock */
  SystemClock_Config();
 800427a:	f000 f8a3 	bl	80043c4 <SystemClock_Config>
  /* USER CODE BEGIN SysInit */

  /* USER CODE END SysInit */

  /* Initialize all configured peripherals */
  MX_GPIO_Init();
 800427e:	f7ff fd03 	bl	8003c88 <MX_GPIO_Init>
//  MX_SPI2_Init();

  SPI2_LowLevel_Init();
 8004282:	f7ff fbcb 	bl	8003a1c <SPI2_LowLevel_Init>
  SPIx_Init(SPI2);
 8004286:	4b48      	ldr	r3, [pc, #288]	; (80043a8 <main+0x138>)
 8004288:	0018      	movs	r0, r3
 800428a:	f7ff fc47 	bl	8003b1c <SPIx_Init>
  pc_Int(115200);
 800428e:	23e1      	movs	r3, #225	; 0xe1
 8004290:	025b      	lsls	r3, r3, #9
 8004292:	0018      	movs	r0, r3
 8004294:	f000 f8f3 	bl	800447e <pc_Int>

  /* USER CODE BEGIN 2 */
  char madgwick_buf[]  = "Wait install madgwick\n";
 8004298:	2478      	movs	r4, #120	; 0x78
 800429a:	193b      	adds	r3, r7, r4
 800429c:	4a43      	ldr	r2, [pc, #268]	; (80043ac <main+0x13c>)
 800429e:	ca23      	ldmia	r2!, {r0, r1, r5}
 80042a0:	c323      	stmia	r3!, {r0, r1, r5}
 80042a2:	ca03      	ldmia	r2!, {r0, r1}
 80042a4:	c303      	stmia	r3!, {r0, r1}
 80042a6:	8811      	ldrh	r1, [r2, #0]
 80042a8:	8019      	strh	r1, [r3, #0]
 80042aa:	7892      	ldrb	r2, [r2, #2]
 80042ac:	709a      	strb	r2, [r3, #2]
  char madgwick_buff[] = "Install Madgwick successfully\n";
 80042ae:	2558      	movs	r5, #88	; 0x58
 80042b0:	197b      	adds	r3, r7, r5
 80042b2:	4a3f      	ldr	r2, [pc, #252]	; (80043b0 <main+0x140>)
 80042b4:	ca43      	ldmia	r2!, {r0, r1, r6}
 80042b6:	c343      	stmia	r3!, {r0, r1, r6}
 80042b8:	ca43      	ldmia	r2!, {r0, r1, r6}
 80042ba:	c343      	stmia	r3!, {r0, r1, r6}
 80042bc:	6811      	ldr	r1, [r2, #0]
 80042be:	6019      	str	r1, [r3, #0]
 80042c0:	8891      	ldrh	r1, [r2, #4]
 80042c2:	8099      	strh	r1, [r3, #4]
 80042c4:	7992      	ldrb	r2, [r2, #6]
 80042c6:	719a      	strb	r2, [r3, #6]
  char lsm6ds3_buf[]   = "Wait install LSM6DS3\n";
 80042c8:	2640      	movs	r6, #64	; 0x40
 80042ca:	19bb      	adds	r3, r7, r6
 80042cc:	4a39      	ldr	r2, [pc, #228]	; (80043b4 <main+0x144>)
 80042ce:	ca13      	ldmia	r2!, {r0, r1, r4}
 80042d0:	c313      	stmia	r3!, {r0, r1, r4}
 80042d2:	ca03      	ldmia	r2!, {r0, r1}
 80042d4:	c303      	stmia	r3!, {r0, r1}
 80042d6:	8812      	ldrh	r2, [r2, #0]
 80042d8:	801a      	strh	r2, [r3, #0]
  char lsm6ds3_buff[]  = "Install LSM6DS3 successfully\n";
 80042da:	2320      	movs	r3, #32
 80042dc:	18fb      	adds	r3, r7, r3
 80042de:	4a36      	ldr	r2, [pc, #216]	; (80043b8 <main+0x148>)
 80042e0:	ca13      	ldmia	r2!, {r0, r1, r4}
 80042e2:	c313      	stmia	r3!, {r0, r1, r4}
 80042e4:	ca13      	ldmia	r2!, {r0, r1, r4}
 80042e6:	c313      	stmia	r3!, {r0, r1, r4}
 80042e8:	6811      	ldr	r1, [r2, #0]
 80042ea:	6019      	str	r1, [r3, #0]
 80042ec:	8892      	ldrh	r2, [r2, #4]
 80042ee:	809a      	strh	r2, [r3, #4]
  char lsm6ds3_bufff[] = "LSM6DS3 installation failed\n";
 80042f0:	003b      	movs	r3, r7
 80042f2:	4a32      	ldr	r2, [pc, #200]	; (80043bc <main+0x14c>)
 80042f4:	ca13      	ldmia	r2!, {r0, r1, r4}
 80042f6:	c313      	stmia	r3!, {r0, r1, r4}
 80042f8:	ca13      	ldmia	r2!, {r0, r1, r4}
 80042fa:	c313      	stmia	r3!, {r0, r1, r4}
 80042fc:	6811      	ldr	r1, [r2, #0]
 80042fe:	6019      	str	r1, [r3, #0]
 8004300:	7912      	ldrb	r2, [r2, #4]
 8004302:	711a      	strb	r2, [r3, #4]
  HAL_Delay(1000);
 8004304:	23fa      	movs	r3, #250	; 0xfa
 8004306:	009b      	lsls	r3, r3, #2
 8004308:	0018      	movs	r0, r3
 800430a:	f000 fbf1 	bl	8004af0 <HAL_Delay>
  pc_putArray(&madgwick_buf, strlen(madgwick_buf));
 800430e:	2478      	movs	r4, #120	; 0x78
 8004310:	193b      	adds	r3, r7, r4
 8004312:	0018      	movs	r0, r3
 8004314:	f7fb fef6 	bl	8000104 <strlen>
 8004318:	0002      	movs	r2, r0
 800431a:	193b      	adds	r3, r7, r4
 800431c:	0011      	movs	r1, r2
 800431e:	0018      	movs	r0, r3
 8004320:	f000 f8b9 	bl	8004496 <pc_putArray>
  Madgwick_init(SAMPLE_RATE);
 8004324:	4b26      	ldr	r3, [pc, #152]	; (80043c0 <main+0x150>)
 8004326:	1c18      	adds	r0, r3, #0
 8004328:	f7fe fe1a 	bl	8002f60 <Madgwick_init>
  pc_putArray(&madgwick_buff, strlen(madgwick_buff));
 800432c:	197b      	adds	r3, r7, r5
 800432e:	0018      	movs	r0, r3
 8004330:	f7fb fee8 	bl	8000104 <strlen>
 8004334:	0002      	movs	r2, r0
 8004336:	197b      	adds	r3, r7, r5
 8004338:	0011      	movs	r1, r2
 800433a:	0018      	movs	r0, r3
 800433c:	f000 f8ab 	bl	8004496 <pc_putArray>
  HAL_Delay(1000);
 8004340:	23fa      	movs	r3, #250	; 0xfa
 8004342:	009b      	lsls	r3, r3, #2
 8004344:	0018      	movs	r0, r3
 8004346:	f000 fbd3 	bl	8004af0 <HAL_Delay>
  /* Initialize mems driver interface */
  pc_putArray(&lsm6ds3_buf, strlen(lsm6ds3_buf));
 800434a:	19bb      	adds	r3, r7, r6
 800434c:	0018      	movs	r0, r3
 800434e:	f7fb fed9 	bl	8000104 <strlen>
 8004352:	0002      	movs	r2, r0
 8004354:	19bb      	adds	r3, r7, r6
 8004356:	0011      	movs	r1, r2
 8004358:	0018      	movs	r0, r3
 800435a:	f000 f89c 	bl	8004496 <pc_putArray>
  if(!Lsm6ds3_int()){
 800435e:	f7ff fce5 	bl	8003d2c <Lsm6ds3_int>
 8004362:	1e03      	subs	r3, r0, #0
 8004364:	d10a      	bne.n	800437c <main+0x10c>
	  pc_putArray(&lsm6ds3_bufff, strlen(lsm6ds3_bufff));
 8004366:	003b      	movs	r3, r7
 8004368:	0018      	movs	r0, r3
 800436a:	f7fb fecb 	bl	8000104 <strlen>
 800436e:	0002      	movs	r2, r0
 8004370:	003b      	movs	r3, r7
 8004372:	0011      	movs	r1, r2
 8004374:	0018      	movs	r0, r3
 8004376:	f000 f88e 	bl	8004496 <pc_putArray>
	  while(1);
 800437a:	e7fe      	b.n	800437a <main+0x10a>
  }
  pc_putArray(&lsm6ds3_buff, strlen(lsm6ds3_buff));
 800437c:	2420      	movs	r4, #32
 800437e:	193b      	adds	r3, r7, r4
 8004380:	0018      	movs	r0, r3
 8004382:	f7fb febf 	bl	8000104 <strlen>
 8004386:	0002      	movs	r2, r0
 8004388:	193b      	adds	r3, r7, r4
 800438a:	0011      	movs	r1, r2
 800438c:	0018      	movs	r0, r3
 800438e:	f000 f882 	bl	8004496 <pc_putArray>
  HAL_Delay(1000);
 8004392:	23fa      	movs	r3, #250	; 0xfa
 8004394:	009b      	lsls	r3, r3, #2
 8004396:	0018      	movs	r0, r3
 8004398:	f000 fbaa 	bl	8004af0 <HAL_Delay>

  /* Infinite loop */
  /* USER CODE BEGIN WHILE */
  while (1)
  {
	  Lsm6ds3_printRotationAngles();
 800439c:	f7ff feaa 	bl	80040f4 <Lsm6ds3_printRotationAngles>
	   HAL_Delay(100);
 80043a0:	2064      	movs	r0, #100	; 0x64
 80043a2:	f000 fba5 	bl	8004af0 <HAL_Delay>
  {
 80043a6:	e7f9      	b.n	800439c <main+0x12c>
 80043a8:	40003800 	.word	0x40003800
 80043ac:	08009008 	.word	0x08009008
 80043b0:	08009020 	.word	0x08009020
 80043b4:	08009040 	.word	0x08009040
 80043b8:	08009058 	.word	0x08009058
 80043bc:	08009078 	.word	0x08009078
 80043c0:	41200000 	.word	0x41200000

080043c4 <SystemClock_Config>:
/**
  * @brief System Clock Configuration
  * @retval None
  */
void SystemClock_Config(void)
{
 80043c4:	b590      	push	{r4, r7, lr}
 80043c6:	b093      	sub	sp, #76	; 0x4c
 80043c8:	af00      	add	r7, sp, #0
  RCC_OscInitTypeDef RCC_OscInitStruct = {0};
 80043ca:	2410      	movs	r4, #16
 80043cc:	193b      	adds	r3, r7, r4
 80043ce:	0018      	movs	r0, r3
 80043d0:	2338      	movs	r3, #56	; 0x38
 80043d2:	001a      	movs	r2, r3
 80043d4:	2100      	movs	r1, #0
 80043d6:	f001 faf3 	bl	80059c0 <memset>
  RCC_ClkInitTypeDef RCC_ClkInitStruct = {0};
 80043da:	003b      	movs	r3, r7
 80043dc:	0018      	movs	r0, r3
 80043de:	2310      	movs	r3, #16
 80043e0:	001a      	movs	r2, r3
 80043e2:	2100      	movs	r1, #0
 80043e4:	f001 faec 	bl	80059c0 <memset>

  /** Configure the main internal regulator output voltage
  */
  HAL_PWREx_ControlVoltageScaling(PWR_REGULATOR_VOLTAGE_SCALE1);
 80043e8:	2380      	movs	r3, #128	; 0x80
 80043ea:	009b      	lsls	r3, r3, #2
 80043ec:	0018      	movs	r0, r3
 80043ee:	f000 fdd9 	bl	8004fa4 <HAL_PWREx_ControlVoltageScaling>

  /** Initializes the RCC Oscillators according to the specified parameters
  * in the RCC_OscInitTypeDef structure.
  */
  RCC_OscInitStruct.OscillatorType = RCC_OSCILLATORTYPE_HSE;
 80043f2:	193b      	adds	r3, r7, r4
 80043f4:	2201      	movs	r2, #1
 80043f6:	601a      	str	r2, [r3, #0]
  RCC_OscInitStruct.HSEState = RCC_HSE_ON;
 80043f8:	193b      	adds	r3, r7, r4
 80043fa:	2280      	movs	r2, #128	; 0x80
 80043fc:	0252      	lsls	r2, r2, #9
 80043fe:	605a      	str	r2, [r3, #4]
  RCC_OscInitStruct.PLL.PLLState = RCC_PLL_ON;
 8004400:	0021      	movs	r1, r4
 8004402:	187b      	adds	r3, r7, r1
 8004404:	2202      	movs	r2, #2
 8004406:	61da      	str	r2, [r3, #28]
  RCC_OscInitStruct.PLL.PLLSource = RCC_PLLSOURCE_HSE;
 8004408:	187b      	adds	r3, r7, r1
 800440a:	2203      	movs	r2, #3
 800440c:	621a      	str	r2, [r3, #32]
  RCC_OscInitStruct.PLL.PLLM = RCC_PLLM_DIV1;
 800440e:	187b      	adds	r3, r7, r1
 8004410:	2200      	movs	r2, #0
 8004412:	625a      	str	r2, [r3, #36]	; 0x24
  RCC_OscInitStruct.PLL.PLLN = 16;
 8004414:	187b      	adds	r3, r7, r1
 8004416:	2210      	movs	r2, #16
 8004418:	629a      	str	r2, [r3, #40]	; 0x28
  RCC_OscInitStruct.PLL.PLLP = RCC_PLLP_DIV2;
 800441a:	187b      	adds	r3, r7, r1
 800441c:	2280      	movs	r2, #128	; 0x80
 800441e:	0292      	lsls	r2, r2, #10
 8004420:	62da      	str	r2, [r3, #44]	; 0x2c
  RCC_OscInitStruct.PLL.PLLQ = RCC_PLLQ_DIV2;
 8004422:	187b      	adds	r3, r7, r1
 8004424:	2280      	movs	r2, #128	; 0x80
 8004426:	0492      	lsls	r2, r2, #18
 8004428:	631a      	str	r2, [r3, #48]	; 0x30
  RCC_OscInitStruct.PLL.PLLR = RCC_PLLR_DIV2;
 800442a:	187b      	adds	r3, r7, r1
 800442c:	2280      	movs	r2, #128	; 0x80
 800442e:	0592      	lsls	r2, r2, #22
 8004430:	635a      	str	r2, [r3, #52]	; 0x34
  if (HAL_RCC_OscConfig(&RCC_OscInitStruct) != HAL_OK)
 8004432:	187b      	adds	r3, r7, r1
 8004434:	0018      	movs	r0, r3
 8004436:	f000 fdf5 	bl	8005024 <HAL_RCC_OscConfig>
 800443a:	1e03      	subs	r3, r0, #0
 800443c:	d001      	beq.n	8004442 <SystemClock_Config+0x7e>
  {
    Error_Handler();
 800443e:	f000 f819 	bl	8004474 <Error_Handler>
  }

  /** Initializes the CPU, AHB and APB buses clocks
  */
  RCC_ClkInitStruct.ClockType = RCC_CLOCKTYPE_HCLK|RCC_CLOCKTYPE_SYSCLK
 8004442:	003b      	movs	r3, r7
 8004444:	2207      	movs	r2, #7
 8004446:	601a      	str	r2, [r3, #0]
                              |RCC_CLOCKTYPE_PCLK1;
  RCC_ClkInitStruct.SYSCLKSource = RCC_SYSCLKSOURCE_PLLCLK;
 8004448:	003b      	movs	r3, r7
 800444a:	2202      	movs	r2, #2
 800444c:	605a      	str	r2, [r3, #4]
  RCC_ClkInitStruct.AHBCLKDivider = RCC_SYSCLK_DIV1;
 800444e:	003b      	movs	r3, r7
 8004450:	2200      	movs	r2, #0
 8004452:	609a      	str	r2, [r3, #8]
  RCC_ClkInitStruct.APB1CLKDivider = RCC_HCLK_DIV1;
 8004454:	003b      	movs	r3, r7
 8004456:	2200      	movs	r2, #0
 8004458:	60da      	str	r2, [r3, #12]

  if (HAL_RCC_ClockConfig(&RCC_ClkInitStruct, FLASH_LATENCY_2) != HAL_OK)
 800445a:	003b      	movs	r3, r7
 800445c:	2102      	movs	r1, #2
 800445e:	0018      	movs	r0, r3
 8004460:	f001 f8fa 	bl	8005658 <HAL_RCC_ClockConfig>
 8004464:	1e03      	subs	r3, r0, #0
 8004466:	d001      	beq.n	800446c <SystemClock_Config+0xa8>
  {
    Error_Handler();
 8004468:	f000 f804 	bl	8004474 <Error_Handler>
  }
}
 800446c:	46c0      	nop			; (mov r8, r8)
 800446e:	46bd      	mov	sp, r7
 8004470:	b013      	add	sp, #76	; 0x4c
 8004472:	bd90      	pop	{r4, r7, pc}

08004474 <Error_Handler>:
/**
  * @brief  This function is executed in case of error occurrence.
  * @retval None
  */
void Error_Handler(void)
{
 8004474:	b580      	push	{r7, lr}
 8004476:	af00      	add	r7, sp, #0
  \details Disables IRQ interrupts by setting the I-bit in the CPSR.
           Can only be executed in Privileged modes.
 */
__STATIC_FORCEINLINE void __disable_irq(void)
{
  __ASM volatile ("cpsid i" : : : "memory");
 8004478:	b672      	cpsid	i
}
 800447a:	46c0      	nop			; (mov r8, r8)
  /* USER CODE BEGIN Error_Handler_Debug */
  /* User can add his own implementation to report the HAL error return state */
  __disable_irq();
  while (1)
 800447c:	e7fe      	b.n	800447c <Error_Handler+0x8>

0800447e <pc_Int>:
static void uart1_PutChar(uint8_t ch);
static void uart1_PutString(uint8_t *str);
static void uart1_putArray(uint8_t *str, int len);


void pc_Int(uint32_t bau){
 800447e:	b580      	push	{r7, lr}
 8004480:	b082      	sub	sp, #8
 8004482:	af00      	add	r7, sp, #0
 8004484:	6078      	str	r0, [r7, #4]
	uart1_Int(bau);
 8004486:	687b      	ldr	r3, [r7, #4]
 8004488:	0018      	movs	r0, r3
 800448a:	f000 f813 	bl	80044b4 <uart1_Int>
}
 800448e:	46c0      	nop			; (mov r8, r8)
 8004490:	46bd      	mov	sp, r7
 8004492:	b002      	add	sp, #8
 8004494:	bd80      	pop	{r7, pc}

08004496 <pc_putArray>:

void pc_putArray(uint8_t *str, int len){
 8004496:	b580      	push	{r7, lr}
 8004498:	b082      	sub	sp, #8
 800449a:	af00      	add	r7, sp, #0
 800449c:	6078      	str	r0, [r7, #4]
 800449e:	6039      	str	r1, [r7, #0]
	uart1_putArray(str, len);
 80044a0:	683a      	ldr	r2, [r7, #0]
 80044a2:	687b      	ldr	r3, [r7, #4]
 80044a4:	0011      	movs	r1, r2
 80044a6:	0018      	movs	r0, r3
 80044a8:	f000 f95a 	bl	8004760 <uart1_putArray>
}
 80044ac:	46c0      	nop			; (mov r8, r8)
 80044ae:	46bd      	mov	sp, r7
 80044b0:	b002      	add	sp, #8
 80044b2:	bd80      	pop	{r7, pc}

080044b4 <uart1_Int>:

static void uart1_Int(uint32_t baudrate){
 80044b4:	b590      	push	{r4, r7, lr}
 80044b6:	b089      	sub	sp, #36	; 0x24
 80044b8:	af00      	add	r7, sp, #0
 80044ba:	6078      	str	r0, [r7, #4]
	uint32_t BRR_value = SYS_CLOCK/baudrate;
 80044bc:	6879      	ldr	r1, [r7, #4]
 80044be:	4893      	ldr	r0, [pc, #588]	; (800470c <uart1_Int+0x258>)
 80044c0:	f7fb fe3c 	bl	800013c <__udivsi3>
 80044c4:	0003      	movs	r3, r0
 80044c6:	61fb      	str	r3, [r7, #28]
	uint32_t* NVIC_ISER0 = (uint32_t)0xe000e100;
 80044c8:	4b91      	ldr	r3, [pc, #580]	; (8004710 <uart1_Int+0x25c>)
 80044ca:	61bb      	str	r3, [r7, #24]

	// clock enable PA, UART
	uint32_t *RCC_IOPENR  = (uint32_t*)0x40021034;
 80044cc:	4b91      	ldr	r3, [pc, #580]	; (8004714 <uart1_Int+0x260>)
 80044ce:	617b      	str	r3, [r7, #20]
	uint32_t *RCC_APBENR2 = (uint32_t*)0x40021040;
 80044d0:	4b91      	ldr	r3, [pc, #580]	; (8004718 <uart1_Int+0x264>)
 80044d2:	613b      	str	r3, [r7, #16]

	*RCC_IOPENR  |= 1<<0;
 80044d4:	697b      	ldr	r3, [r7, #20]
 80044d6:	681b      	ldr	r3, [r3, #0]
 80044d8:	2201      	movs	r2, #1
 80044da:	431a      	orrs	r2, r3
 80044dc:	697b      	ldr	r3, [r7, #20]
 80044de:	601a      	str	r2, [r3, #0]
	*RCC_APBENR2 |= 1<<14;
 80044e0:	693b      	ldr	r3, [r7, #16]
 80044e2:	681b      	ldr	r3, [r3, #0]
 80044e4:	2280      	movs	r2, #128	; 0x80
 80044e6:	01d2      	lsls	r2, r2, #7
 80044e8:	431a      	orrs	r2, r3
 80044ea:	693b      	ldr	r3, [r7, #16]
 80044ec:	601a      	str	r2, [r3, #0]
	//////////////////////////////////////
	// uart1 configure alternate
    // PA10     ------> USART1_RX
    // PA9      ------> USART1_TX

	uint8_t PINx = 2;
 80044ee:	200f      	movs	r0, #15
 80044f0:	183b      	adds	r3, r7, r0
 80044f2:	2202      	movs	r2, #2
 80044f4:	701a      	strb	r2, [r3, #0]
	uint8_t AF_PINx = 4;
 80044f6:	240e      	movs	r4, #14
 80044f8:	193b      	adds	r3, r7, r4
 80044fa:	2204      	movs	r2, #4
 80044fc:	701a      	strb	r2, [r3, #0]

	// PA9 TX
	REGISTER_GPIOA->MODER &= ~(0b11<<(9*PINx));
 80044fe:	23a0      	movs	r3, #160	; 0xa0
 8004500:	05db      	lsls	r3, r3, #23
 8004502:	6819      	ldr	r1, [r3, #0]
 8004504:	183b      	adds	r3, r7, r0
 8004506:	781a      	ldrb	r2, [r3, #0]
 8004508:	0013      	movs	r3, r2
 800450a:	00db      	lsls	r3, r3, #3
 800450c:	189b      	adds	r3, r3, r2
 800450e:	2203      	movs	r2, #3
 8004510:	409a      	lsls	r2, r3
 8004512:	0013      	movs	r3, r2
 8004514:	43db      	mvns	r3, r3
 8004516:	001a      	movs	r2, r3
 8004518:	23a0      	movs	r3, #160	; 0xa0
 800451a:	05db      	lsls	r3, r3, #23
 800451c:	400a      	ands	r2, r1
 800451e:	601a      	str	r2, [r3, #0]
	REGISTER_GPIOA->MODER |= 0b10<<(9*PINx);			// alternate moder
 8004520:	23a0      	movs	r3, #160	; 0xa0
 8004522:	05db      	lsls	r3, r3, #23
 8004524:	6819      	ldr	r1, [r3, #0]
 8004526:	183b      	adds	r3, r7, r0
 8004528:	781a      	ldrb	r2, [r3, #0]
 800452a:	0013      	movs	r3, r2
 800452c:	00db      	lsls	r3, r3, #3
 800452e:	189b      	adds	r3, r3, r2
 8004530:	2202      	movs	r2, #2
 8004532:	409a      	lsls	r2, r3
 8004534:	0013      	movs	r3, r2
 8004536:	001a      	movs	r2, r3
 8004538:	23a0      	movs	r3, #160	; 0xa0
 800453a:	05db      	lsls	r3, r3, #23
 800453c:	430a      	orrs	r2, r1
 800453e:	601a      	str	r2, [r3, #0]

	REGISTER_GPIOA->PUPDR   &= ~(0b11<<(9*PINx));		// no full
 8004540:	23a0      	movs	r3, #160	; 0xa0
 8004542:	05db      	lsls	r3, r3, #23
 8004544:	68d9      	ldr	r1, [r3, #12]
 8004546:	183b      	adds	r3, r7, r0
 8004548:	781a      	ldrb	r2, [r3, #0]
 800454a:	0013      	movs	r3, r2
 800454c:	00db      	lsls	r3, r3, #3
 800454e:	189b      	adds	r3, r3, r2
 8004550:	2203      	movs	r2, #3
 8004552:	409a      	lsls	r2, r3
 8004554:	0013      	movs	r3, r2
 8004556:	43db      	mvns	r3, r3
 8004558:	001a      	movs	r2, r3
 800455a:	23a0      	movs	r3, #160	; 0xa0
 800455c:	05db      	lsls	r3, r3, #23
 800455e:	400a      	ands	r2, r1
 8004560:	60da      	str	r2, [r3, #12]
	REGISTER_GPIOA->OSPEEDR &= ~(0b11<<(9*PINx));		// Very low speed
 8004562:	23a0      	movs	r3, #160	; 0xa0
 8004564:	05db      	lsls	r3, r3, #23
 8004566:	6899      	ldr	r1, [r3, #8]
 8004568:	183b      	adds	r3, r7, r0
 800456a:	781a      	ldrb	r2, [r3, #0]
 800456c:	0013      	movs	r3, r2
 800456e:	00db      	lsls	r3, r3, #3
 8004570:	189b      	adds	r3, r3, r2
 8004572:	2203      	movs	r2, #3
 8004574:	409a      	lsls	r2, r3
 8004576:	0013      	movs	r3, r2
 8004578:	43db      	mvns	r3, r3
 800457a:	001a      	movs	r2, r3
 800457c:	23a0      	movs	r3, #160	; 0xa0
 800457e:	05db      	lsls	r3, r3, #23
 8004580:	400a      	ands	r2, r1
 8004582:	609a      	str	r2, [r3, #8]
	REGISTER_GPIOA->AFRH    &= ~(0b1111<<(1*AF_PINx));	// AF1
 8004584:	23a0      	movs	r3, #160	; 0xa0
 8004586:	05db      	lsls	r3, r3, #23
 8004588:	6a5a      	ldr	r2, [r3, #36]	; 0x24
 800458a:	193b      	adds	r3, r7, r4
 800458c:	781b      	ldrb	r3, [r3, #0]
 800458e:	210f      	movs	r1, #15
 8004590:	4099      	lsls	r1, r3
 8004592:	000b      	movs	r3, r1
 8004594:	43db      	mvns	r3, r3
 8004596:	0019      	movs	r1, r3
 8004598:	23a0      	movs	r3, #160	; 0xa0
 800459a:	05db      	lsls	r3, r3, #23
 800459c:	400a      	ands	r2, r1
 800459e:	625a      	str	r2, [r3, #36]	; 0x24
	REGISTER_GPIOA->AFRH    |= 0b0001<<(1*AF_PINx);	// AF1
 80045a0:	23a0      	movs	r3, #160	; 0xa0
 80045a2:	05db      	lsls	r3, r3, #23
 80045a4:	6a5a      	ldr	r2, [r3, #36]	; 0x24
 80045a6:	193b      	adds	r3, r7, r4
 80045a8:	781b      	ldrb	r3, [r3, #0]
 80045aa:	2101      	movs	r1, #1
 80045ac:	4099      	lsls	r1, r3
 80045ae:	000b      	movs	r3, r1
 80045b0:	0019      	movs	r1, r3
 80045b2:	23a0      	movs	r3, #160	; 0xa0
 80045b4:	05db      	lsls	r3, r3, #23
 80045b6:	430a      	orrs	r2, r1
 80045b8:	625a      	str	r2, [r3, #36]	; 0x24

	// PA10 RX
	REGISTER_GPIOA->MODER &= ~(0b11<<(10*PINx));
 80045ba:	23a0      	movs	r3, #160	; 0xa0
 80045bc:	05db      	lsls	r3, r3, #23
 80045be:	6819      	ldr	r1, [r3, #0]
 80045c0:	183b      	adds	r3, r7, r0
 80045c2:	781a      	ldrb	r2, [r3, #0]
 80045c4:	0013      	movs	r3, r2
 80045c6:	009b      	lsls	r3, r3, #2
 80045c8:	189b      	adds	r3, r3, r2
 80045ca:	005b      	lsls	r3, r3, #1
 80045cc:	001a      	movs	r2, r3
 80045ce:	2303      	movs	r3, #3
 80045d0:	4093      	lsls	r3, r2
 80045d2:	43db      	mvns	r3, r3
 80045d4:	001a      	movs	r2, r3
 80045d6:	23a0      	movs	r3, #160	; 0xa0
 80045d8:	05db      	lsls	r3, r3, #23
 80045da:	400a      	ands	r2, r1
 80045dc:	601a      	str	r2, [r3, #0]
	REGISTER_GPIOA->MODER |=   0b10<<(10*PINx);			// alternate moder
 80045de:	23a0      	movs	r3, #160	; 0xa0
 80045e0:	05db      	lsls	r3, r3, #23
 80045e2:	6819      	ldr	r1, [r3, #0]
 80045e4:	183b      	adds	r3, r7, r0
 80045e6:	781a      	ldrb	r2, [r3, #0]
 80045e8:	0013      	movs	r3, r2
 80045ea:	009b      	lsls	r3, r3, #2
 80045ec:	189b      	adds	r3, r3, r2
 80045ee:	005b      	lsls	r3, r3, #1
 80045f0:	001a      	movs	r2, r3
 80045f2:	2302      	movs	r3, #2
 80045f4:	4093      	lsls	r3, r2
 80045f6:	001a      	movs	r2, r3
 80045f8:	23a0      	movs	r3, #160	; 0xa0
 80045fa:	05db      	lsls	r3, r3, #23
 80045fc:	430a      	orrs	r2, r1
 80045fe:	601a      	str	r2, [r3, #0]

	REGISTER_GPIOA->PUPDR   &= ~(0b11<<(10*PINx));		// no full
 8004600:	23a0      	movs	r3, #160	; 0xa0
 8004602:	05db      	lsls	r3, r3, #23
 8004604:	68d9      	ldr	r1, [r3, #12]
 8004606:	183b      	adds	r3, r7, r0
 8004608:	781a      	ldrb	r2, [r3, #0]
 800460a:	0013      	movs	r3, r2
 800460c:	009b      	lsls	r3, r3, #2
 800460e:	189b      	adds	r3, r3, r2
 8004610:	005b      	lsls	r3, r3, #1
 8004612:	001a      	movs	r2, r3
 8004614:	2303      	movs	r3, #3
 8004616:	4093      	lsls	r3, r2
 8004618:	43db      	mvns	r3, r3
 800461a:	001a      	movs	r2, r3
 800461c:	23a0      	movs	r3, #160	; 0xa0
 800461e:	05db      	lsls	r3, r3, #23
 8004620:	400a      	ands	r2, r1
 8004622:	60da      	str	r2, [r3, #12]
	REGISTER_GPIOA->OSPEEDR &= ~(0b11<<(10*PINx));		// Very low speed
 8004624:	23a0      	movs	r3, #160	; 0xa0
 8004626:	05db      	lsls	r3, r3, #23
 8004628:	6899      	ldr	r1, [r3, #8]
 800462a:	183b      	adds	r3, r7, r0
 800462c:	781a      	ldrb	r2, [r3, #0]
 800462e:	0013      	movs	r3, r2
 8004630:	009b      	lsls	r3, r3, #2
 8004632:	189b      	adds	r3, r3, r2
 8004634:	005b      	lsls	r3, r3, #1
 8004636:	001a      	movs	r2, r3
 8004638:	2303      	movs	r3, #3
 800463a:	4093      	lsls	r3, r2
 800463c:	43db      	mvns	r3, r3
 800463e:	001a      	movs	r2, r3
 8004640:	23a0      	movs	r3, #160	; 0xa0
 8004642:	05db      	lsls	r3, r3, #23
 8004644:	400a      	ands	r2, r1
 8004646:	609a      	str	r2, [r3, #8]
	REGISTER_GPIOA->AFRH    &= ~(0b1111<<(2*AF_PINx));	// AF1
 8004648:	23a0      	movs	r3, #160	; 0xa0
 800464a:	05db      	lsls	r3, r3, #23
 800464c:	6a5a      	ldr	r2, [r3, #36]	; 0x24
 800464e:	193b      	adds	r3, r7, r4
 8004650:	781b      	ldrb	r3, [r3, #0]
 8004652:	005b      	lsls	r3, r3, #1
 8004654:	210f      	movs	r1, #15
 8004656:	4099      	lsls	r1, r3
 8004658:	000b      	movs	r3, r1
 800465a:	43db      	mvns	r3, r3
 800465c:	0019      	movs	r1, r3
 800465e:	23a0      	movs	r3, #160	; 0xa0
 8004660:	05db      	lsls	r3, r3, #23
 8004662:	400a      	ands	r2, r1
 8004664:	625a      	str	r2, [r3, #36]	; 0x24
	REGISTER_GPIOA->AFRH    |= 0b0001<<(2*AF_PINx);	// AF1
 8004666:	23a0      	movs	r3, #160	; 0xa0
 8004668:	05db      	lsls	r3, r3, #23
 800466a:	6a5a      	ldr	r2, [r3, #36]	; 0x24
 800466c:	193b      	adds	r3, r7, r4
 800466e:	781b      	ldrb	r3, [r3, #0]
 8004670:	005b      	lsls	r3, r3, #1
 8004672:	2101      	movs	r1, #1
 8004674:	4099      	lsls	r1, r3
 8004676:	000b      	movs	r3, r1
 8004678:	0019      	movs	r1, r3
 800467a:	23a0      	movs	r3, #160	; 0xa0
 800467c:	05db      	lsls	r3, r3, #23
 800467e:	430a      	orrs	r2, r1
 8004680:	625a      	str	r2, [r3, #36]	; 0x24

///////////////////////////////////////////////////////////////////////////////

	REGISTER_UART1->CR1 &= ~1<<0;		// UE: disable
 8004682:	4b26      	ldr	r3, [pc, #152]	; (800471c <uart1_Int+0x268>)
 8004684:	681a      	ldr	r2, [r3, #0]
 8004686:	4b25      	ldr	r3, [pc, #148]	; (800471c <uart1_Int+0x268>)
 8004688:	2101      	movs	r1, #1
 800468a:	438a      	bics	r2, r1
 800468c:	601a      	str	r2, [r3, #0]
	REGISTER_UART1->CR1 &= ~1<<10;		// PCE: parity disable
 800468e:	4b23      	ldr	r3, [pc, #140]	; (800471c <uart1_Int+0x268>)
 8004690:	681a      	ldr	r2, [r3, #0]
 8004692:	4b22      	ldr	r3, [pc, #136]	; (800471c <uart1_Int+0x268>)
 8004694:	0ad2      	lsrs	r2, r2, #11
 8004696:	02d2      	lsls	r2, r2, #11
 8004698:	601a      	str	r2, [r3, #0]
	REGISTER_UART1->CR1 &= ~1<<15;		// OVER8: OverSampling 16bit
 800469a:	4b20      	ldr	r3, [pc, #128]	; (800471c <uart1_Int+0x268>)
 800469c:	681a      	ldr	r2, [r3, #0]
 800469e:	4b1f      	ldr	r3, [pc, #124]	; (800471c <uart1_Int+0x268>)
 80046a0:	0c12      	lsrs	r2, r2, #16
 80046a2:	0412      	lsls	r2, r2, #16
 80046a4:	601a      	str	r2, [r3, #0]
	REGISTER_UART1->CR1 &= ~1<<28;		// M1: Word length 8n1
 80046a6:	4b1d      	ldr	r3, [pc, #116]	; (800471c <uart1_Int+0x268>)
 80046a8:	681a      	ldr	r2, [r3, #0]
 80046aa:	4b1c      	ldr	r3, [pc, #112]	; (800471c <uart1_Int+0x268>)
 80046ac:	0f52      	lsrs	r2, r2, #29
 80046ae:	0752      	lsls	r2, r2, #29
 80046b0:	601a      	str	r2, [r3, #0]

	REGISTER_UART1->CR1 |= 1<<3;		// TE: enable
 80046b2:	4b1a      	ldr	r3, [pc, #104]	; (800471c <uart1_Int+0x268>)
 80046b4:	681a      	ldr	r2, [r3, #0]
 80046b6:	4b19      	ldr	r3, [pc, #100]	; (800471c <uart1_Int+0x268>)
 80046b8:	2108      	movs	r1, #8
 80046ba:	430a      	orrs	r2, r1
 80046bc:	601a      	str	r2, [r3, #0]
	REGISTER_UART1->CR1 |= 1<<2;		// RE: enable
 80046be:	4b17      	ldr	r3, [pc, #92]	; (800471c <uart1_Int+0x268>)
 80046c0:	681a      	ldr	r2, [r3, #0]
 80046c2:	4b16      	ldr	r3, [pc, #88]	; (800471c <uart1_Int+0x268>)
 80046c4:	2104      	movs	r1, #4
 80046c6:	430a      	orrs	r2, r1
 80046c8:	601a      	str	r2, [r3, #0]
	REGISTER_UART1->CR1 |= 1<<5;		// RXNEIE: RX interrupt
 80046ca:	4b14      	ldr	r3, [pc, #80]	; (800471c <uart1_Int+0x268>)
 80046cc:	681a      	ldr	r2, [r3, #0]
 80046ce:	4b13      	ldr	r3, [pc, #76]	; (800471c <uart1_Int+0x268>)
 80046d0:	2120      	movs	r1, #32
 80046d2:	430a      	orrs	r2, r1
 80046d4:	601a      	str	r2, [r3, #0]

	REGISTER_UART1->PRESC &= ~(0b1111<<0);	//ClockPrescaler no div
 80046d6:	4b11      	ldr	r3, [pc, #68]	; (800471c <uart1_Int+0x268>)
 80046d8:	6ada      	ldr	r2, [r3, #44]	; 0x2c
 80046da:	4b10      	ldr	r3, [pc, #64]	; (800471c <uart1_Int+0x268>)
 80046dc:	210f      	movs	r1, #15
 80046de:	438a      	bics	r2, r1
 80046e0:	62da      	str	r2, [r3, #44]	; 0x2c

	//set baud rate 115200
	REGISTER_UART1->BRR = BRR_value+1;		// BRR = 0x22C;
 80046e2:	4b0e      	ldr	r3, [pc, #56]	; (800471c <uart1_Int+0x268>)
 80046e4:	69fa      	ldr	r2, [r7, #28]
 80046e6:	3201      	adds	r2, #1
 80046e8:	60da      	str	r2, [r3, #12]
	*NVIC_ISER0 |= 1<<27;					// uart1 interrupt
 80046ea:	69bb      	ldr	r3, [r7, #24]
 80046ec:	681b      	ldr	r3, [r3, #0]
 80046ee:	2280      	movs	r2, #128	; 0x80
 80046f0:	0512      	lsls	r2, r2, #20
 80046f2:	431a      	orrs	r2, r3
 80046f4:	69bb      	ldr	r3, [r7, #24]
 80046f6:	601a      	str	r2, [r3, #0]
	REGISTER_UART1->CR1 |= 1<<0;			// UE: enable
 80046f8:	4b08      	ldr	r3, [pc, #32]	; (800471c <uart1_Int+0x268>)
 80046fa:	681a      	ldr	r2, [r3, #0]
 80046fc:	4b07      	ldr	r3, [pc, #28]	; (800471c <uart1_Int+0x268>)
 80046fe:	2101      	movs	r1, #1
 8004700:	430a      	orrs	r2, r1
 8004702:	601a      	str	r2, [r3, #0]

}
 8004704:	46c0      	nop			; (mov r8, r8)
 8004706:	46bd      	mov	sp, r7
 8004708:	b009      	add	sp, #36	; 0x24
 800470a:	bd90      	pop	{r4, r7, pc}
 800470c:	03d09000 	.word	0x03d09000
 8004710:	e000e100 	.word	0xe000e100
 8004714:	40021034 	.word	0x40021034
 8004718:	40021040 	.word	0x40021040
 800471c:	40013800 	.word	0x40013800

08004720 <uart1_PutChar>:

static void uart1_PutChar(uint8_t ch) {
 8004720:	b580      	push	{r7, lr}
 8004722:	b084      	sub	sp, #16
 8004724:	af00      	add	r7, sp, #0
 8004726:	0002      	movs	r2, r0
 8004728:	1dfb      	adds	r3, r7, #7
 800472a:	701a      	strb	r2, [r3, #0]
	uint32_t* uart1_ISR = (uint32_t*)0x4001381c;
 800472c:	4b09      	ldr	r3, [pc, #36]	; (8004754 <uart1_PutChar+0x34>)
 800472e:	60fb      	str	r3, [r7, #12]
	uint32_t* uart1_TDR = (uint32_t*)0x40013828;
 8004730:	4b09      	ldr	r3, [pc, #36]	; (8004758 <uart1_PutChar+0x38>)
 8004732:	60bb      	str	r3, [r7, #8]

	while (((REGISTER_UART1->ISR >> 7) & 1) != 1) {}
 8004734:	46c0      	nop			; (mov r8, r8)
 8004736:	4b09      	ldr	r3, [pc, #36]	; (800475c <uart1_PutChar+0x3c>)
 8004738:	69db      	ldr	r3, [r3, #28]
 800473a:	09db      	lsrs	r3, r3, #7
 800473c:	2201      	movs	r2, #1
 800473e:	4013      	ands	r3, r2
 8004740:	2b01      	cmp	r3, #1
 8004742:	d1f8      	bne.n	8004736 <uart1_PutChar+0x16>
	REGISTER_UART1->TDR = ch;
 8004744:	4b05      	ldr	r3, [pc, #20]	; (800475c <uart1_PutChar+0x3c>)
 8004746:	1dfa      	adds	r2, r7, #7
 8004748:	7812      	ldrb	r2, [r2, #0]
 800474a:	629a      	str	r2, [r3, #40]	; 0x28
}
 800474c:	46c0      	nop			; (mov r8, r8)
 800474e:	46bd      	mov	sp, r7
 8004750:	b004      	add	sp, #16
 8004752:	bd80      	pop	{r7, pc}
 8004754:	4001381c 	.word	0x4001381c
 8004758:	40013828 	.word	0x40013828
 800475c:	40013800 	.word	0x40013800

08004760 <uart1_putArray>:
		register_uart1_PutChar(*str);
		str++;
	}
}

static void uart1_putArray(uint8_t* str, int len) {
 8004760:	b580      	push	{r7, lr}
 8004762:	b082      	sub	sp, #8
 8004764:	af00      	add	r7, sp, #0
 8004766:	6078      	str	r0, [r7, #4]
 8004768:	6039      	str	r1, [r7, #0]
	while (len) {
 800476a:	e00a      	b.n	8004782 <uart1_putArray+0x22>
		uart1_PutChar(*str);
 800476c:	687b      	ldr	r3, [r7, #4]
 800476e:	781b      	ldrb	r3, [r3, #0]
 8004770:	0018      	movs	r0, r3
 8004772:	f7ff ffd5 	bl	8004720 <uart1_PutChar>
		str++;
 8004776:	687b      	ldr	r3, [r7, #4]
 8004778:	3301      	adds	r3, #1
 800477a:	607b      	str	r3, [r7, #4]
		len--;
 800477c:	683b      	ldr	r3, [r7, #0]
 800477e:	3b01      	subs	r3, #1
 8004780:	603b      	str	r3, [r7, #0]
	while (len) {
 8004782:	683b      	ldr	r3, [r7, #0]
 8004784:	2b00      	cmp	r3, #0
 8004786:	d1f1      	bne.n	800476c <uart1_putArray+0xc>
	}
}
 8004788:	46c0      	nop			; (mov r8, r8)
 800478a:	46c0      	nop			; (mov r8, r8)
 800478c:	46bd      	mov	sp, r7
 800478e:	b002      	add	sp, #8
 8004790:	bd80      	pop	{r7, pc}
	...

08004794 <HAL_MspInit>:
/* USER CODE END 0 */
/**
  * Initializes the Global MSP.
  */
void HAL_MspInit(void)
{
 8004794:	b580      	push	{r7, lr}
 8004796:	b082      	sub	sp, #8
 8004798:	af00      	add	r7, sp, #0
  /* USER CODE BEGIN MspInit 0 */

  /* USER CODE END MspInit 0 */

  __HAL_RCC_SYSCFG_CLK_ENABLE();
 800479a:	4b0f      	ldr	r3, [pc, #60]	; (80047d8 <HAL_MspInit+0x44>)
 800479c:	6c1a      	ldr	r2, [r3, #64]	; 0x40
 800479e:	4b0e      	ldr	r3, [pc, #56]	; (80047d8 <HAL_MspInit+0x44>)
 80047a0:	2101      	movs	r1, #1
 80047a2:	430a      	orrs	r2, r1
 80047a4:	641a      	str	r2, [r3, #64]	; 0x40
 80047a6:	4b0c      	ldr	r3, [pc, #48]	; (80047d8 <HAL_MspInit+0x44>)
 80047a8:	6c1b      	ldr	r3, [r3, #64]	; 0x40
 80047aa:	2201      	movs	r2, #1
 80047ac:	4013      	ands	r3, r2
 80047ae:	607b      	str	r3, [r7, #4]
 80047b0:	687b      	ldr	r3, [r7, #4]
  __HAL_RCC_PWR_CLK_ENABLE();
 80047b2:	4b09      	ldr	r3, [pc, #36]	; (80047d8 <HAL_MspInit+0x44>)
 80047b4:	6bda      	ldr	r2, [r3, #60]	; 0x3c
 80047b6:	4b08      	ldr	r3, [pc, #32]	; (80047d8 <HAL_MspInit+0x44>)
 80047b8:	2180      	movs	r1, #128	; 0x80
 80047ba:	0549      	lsls	r1, r1, #21
 80047bc:	430a      	orrs	r2, r1
 80047be:	63da      	str	r2, [r3, #60]	; 0x3c
 80047c0:	4b05      	ldr	r3, [pc, #20]	; (80047d8 <HAL_MspInit+0x44>)
 80047c2:	6bda      	ldr	r2, [r3, #60]	; 0x3c
 80047c4:	2380      	movs	r3, #128	; 0x80
 80047c6:	055b      	lsls	r3, r3, #21
 80047c8:	4013      	ands	r3, r2
 80047ca:	603b      	str	r3, [r7, #0]
 80047cc:	683b      	ldr	r3, [r7, #0]
  /* System interrupt init*/

  /* USER CODE BEGIN MspInit 1 */

  /* USER CODE END MspInit 1 */
}
 80047ce:	46c0      	nop			; (mov r8, r8)
 80047d0:	46bd      	mov	sp, r7
 80047d2:	b002      	add	sp, #8
 80047d4:	bd80      	pop	{r7, pc}
 80047d6:	46c0      	nop			; (mov r8, r8)
 80047d8:	40021000 	.word	0x40021000

080047dc <NMI_Handler>:
/******************************************************************************/
/**
  * @brief This function handles Non maskable interrupt.
  */
void NMI_Handler(void)
{
 80047dc:	b580      	push	{r7, lr}
 80047de:	af00      	add	r7, sp, #0
  /* USER CODE BEGIN NonMaskableInt_IRQn 0 */

  /* USER CODE END NonMaskableInt_IRQn 0 */
  /* USER CODE BEGIN NonMaskableInt_IRQn 1 */
  while (1)
 80047e0:	e7fe      	b.n	80047e0 <NMI_Handler+0x4>

080047e2 <HardFault_Handler>:

/**
  * @brief This function handles Hard fault interrupt.
  */
void HardFault_Handler(void)
{
 80047e2:	b580      	push	{r7, lr}
 80047e4:	af00      	add	r7, sp, #0
  /* USER CODE BEGIN HardFault_IRQn 0 */

  /* USER CODE END HardFault_IRQn 0 */
  while (1)
 80047e6:	e7fe      	b.n	80047e6 <HardFault_Handler+0x4>

080047e8 <SVC_Handler>:

/**
  * @brief This function handles System service call via SWI instruction.
  */
void SVC_Handler(void)
{
 80047e8:	b580      	push	{r7, lr}
 80047ea:	af00      	add	r7, sp, #0

  /* USER CODE END SVC_IRQn 0 */
  /* USER CODE BEGIN SVC_IRQn 1 */

  /* USER CODE END SVC_IRQn 1 */
}
 80047ec:	46c0      	nop			; (mov r8, r8)
 80047ee:	46bd      	mov	sp, r7
 80047f0:	bd80      	pop	{r7, pc}

080047f2 <PendSV_Handler>:

/**
  * @brief This function handles Pendable request for system service.
  */
void PendSV_Handler(void)
{
 80047f2:	b580      	push	{r7, lr}
 80047f4:	af00      	add	r7, sp, #0

  /* USER CODE END PendSV_IRQn 0 */
  /* USER CODE BEGIN PendSV_IRQn 1 */

  /* USER CODE END PendSV_IRQn 1 */
}
 80047f6:	46c0      	nop			; (mov r8, r8)
 80047f8:	46bd      	mov	sp, r7
 80047fa:	bd80      	pop	{r7, pc}

080047fc <SysTick_Handler>:

/**
  * @brief This function handles System tick timer.
  */
void SysTick_Handler(void)
{
 80047fc:	b580      	push	{r7, lr}
 80047fe:	af00      	add	r7, sp, #0
  /* USER CODE BEGIN SysTick_IRQn 0 */

  /* USER CODE END SysTick_IRQn 0 */
  HAL_IncTick();
 8004800:	f000 f95a 	bl	8004ab8 <HAL_IncTick>
  /* USER CODE BEGIN SysTick_IRQn 1 */

  /* USER CODE END SysTick_IRQn 1 */
}
 8004804:	46c0      	nop			; (mov r8, r8)
 8004806:	46bd      	mov	sp, r7
 8004808:	bd80      	pop	{r7, pc}

0800480a <_getpid>:
void initialise_monitor_handles()
{
}

int _getpid(void)
{
 800480a:	b580      	push	{r7, lr}
 800480c:	af00      	add	r7, sp, #0
  return 1;
 800480e:	2301      	movs	r3, #1
}
 8004810:	0018      	movs	r0, r3
 8004812:	46bd      	mov	sp, r7
 8004814:	bd80      	pop	{r7, pc}

08004816 <_kill>:

int _kill(int pid, int sig)
{
 8004816:	b580      	push	{r7, lr}
 8004818:	b082      	sub	sp, #8
 800481a:	af00      	add	r7, sp, #0
 800481c:	6078      	str	r0, [r7, #4]
 800481e:	6039      	str	r1, [r7, #0]
  (void)pid;
  (void)sig;
  errno = EINVAL;
 8004820:	f001 f8a4 	bl	800596c <__errno>
 8004824:	0003      	movs	r3, r0
 8004826:	2216      	movs	r2, #22
 8004828:	601a      	str	r2, [r3, #0]
  return -1;
 800482a:	2301      	movs	r3, #1
 800482c:	425b      	negs	r3, r3
}
 800482e:	0018      	movs	r0, r3
 8004830:	46bd      	mov	sp, r7
 8004832:	b002      	add	sp, #8
 8004834:	bd80      	pop	{r7, pc}

08004836 <_exit>:

void _exit (int status)
{
 8004836:	b580      	push	{r7, lr}
 8004838:	b082      	sub	sp, #8
 800483a:	af00      	add	r7, sp, #0
 800483c:	6078      	str	r0, [r7, #4]
  _kill(status, -1);
 800483e:	2301      	movs	r3, #1
 8004840:	425a      	negs	r2, r3
 8004842:	687b      	ldr	r3, [r7, #4]
 8004844:	0011      	movs	r1, r2
 8004846:	0018      	movs	r0, r3
 8004848:	f7ff ffe5 	bl	8004816 <_kill>
  while (1) {}    /* Make sure we hang here */
 800484c:	e7fe      	b.n	800484c <_exit+0x16>

0800484e <_read>:
}

__attribute__((weak)) int _read(int file, char *ptr, int len)
{
 800484e:	b580      	push	{r7, lr}
 8004850:	b086      	sub	sp, #24
 8004852:	af00      	add	r7, sp, #0
 8004854:	60f8      	str	r0, [r7, #12]
 8004856:	60b9      	str	r1, [r7, #8]
 8004858:	607a      	str	r2, [r7, #4]
  (void)file;
  int DataIdx;

  for (DataIdx = 0; DataIdx < len; DataIdx++)
 800485a:	2300      	movs	r3, #0
 800485c:	617b      	str	r3, [r7, #20]
 800485e:	e00a      	b.n	8004876 <_read+0x28>
  {
    *ptr++ = __io_getchar();
 8004860:	e000      	b.n	8004864 <_read+0x16>
 8004862:	bf00      	nop
 8004864:	0001      	movs	r1, r0
 8004866:	68bb      	ldr	r3, [r7, #8]
 8004868:	1c5a      	adds	r2, r3, #1
 800486a:	60ba      	str	r2, [r7, #8]
 800486c:	b2ca      	uxtb	r2, r1
 800486e:	701a      	strb	r2, [r3, #0]
  for (DataIdx = 0; DataIdx < len; DataIdx++)
 8004870:	697b      	ldr	r3, [r7, #20]
 8004872:	3301      	adds	r3, #1
 8004874:	617b      	str	r3, [r7, #20]
 8004876:	697a      	ldr	r2, [r7, #20]
 8004878:	687b      	ldr	r3, [r7, #4]
 800487a:	429a      	cmp	r2, r3
 800487c:	dbf0      	blt.n	8004860 <_read+0x12>
  }

  return len;
 800487e:	687b      	ldr	r3, [r7, #4]
}
 8004880:	0018      	movs	r0, r3
 8004882:	46bd      	mov	sp, r7
 8004884:	b006      	add	sp, #24
 8004886:	bd80      	pop	{r7, pc}

08004888 <_write>:

__attribute__((weak)) int _write(int file, char *ptr, int len)
{
 8004888:	b580      	push	{r7, lr}
 800488a:	b086      	sub	sp, #24
 800488c:	af00      	add	r7, sp, #0
 800488e:	60f8      	str	r0, [r7, #12]
 8004890:	60b9      	str	r1, [r7, #8]
 8004892:	607a      	str	r2, [r7, #4]
  (void)file;
  int DataIdx;

  for (DataIdx = 0; DataIdx < len; DataIdx++)
 8004894:	2300      	movs	r3, #0
 8004896:	617b      	str	r3, [r7, #20]
 8004898:	e009      	b.n	80048ae <_write+0x26>
  {
    __io_putchar(*ptr++);
 800489a:	68bb      	ldr	r3, [r7, #8]
 800489c:	1c5a      	adds	r2, r3, #1
 800489e:	60ba      	str	r2, [r7, #8]
 80048a0:	781b      	ldrb	r3, [r3, #0]
 80048a2:	0018      	movs	r0, r3
 80048a4:	e000      	b.n	80048a8 <_write+0x20>
 80048a6:	bf00      	nop
  for (DataIdx = 0; DataIdx < len; DataIdx++)
 80048a8:	697b      	ldr	r3, [r7, #20]
 80048aa:	3301      	adds	r3, #1
 80048ac:	617b      	str	r3, [r7, #20]
 80048ae:	697a      	ldr	r2, [r7, #20]
 80048b0:	687b      	ldr	r3, [r7, #4]
 80048b2:	429a      	cmp	r2, r3
 80048b4:	dbf1      	blt.n	800489a <_write+0x12>
  }
  return len;
 80048b6:	687b      	ldr	r3, [r7, #4]
}
 80048b8:	0018      	movs	r0, r3
 80048ba:	46bd      	mov	sp, r7
 80048bc:	b006      	add	sp, #24
 80048be:	bd80      	pop	{r7, pc}

080048c0 <_close>:

int _close(int file)
{
 80048c0:	b580      	push	{r7, lr}
 80048c2:	b082      	sub	sp, #8
 80048c4:	af00      	add	r7, sp, #0
 80048c6:	6078      	str	r0, [r7, #4]
  (void)file;
  return -1;
 80048c8:	2301      	movs	r3, #1
 80048ca:	425b      	negs	r3, r3
}
 80048cc:	0018      	movs	r0, r3
 80048ce:	46bd      	mov	sp, r7
 80048d0:	b002      	add	sp, #8
 80048d2:	bd80      	pop	{r7, pc}

080048d4 <_fstat>:


int _fstat(int file, struct stat *st)
{
 80048d4:	b580      	push	{r7, lr}
 80048d6:	b082      	sub	sp, #8
 80048d8:	af00      	add	r7, sp, #0
 80048da:	6078      	str	r0, [r7, #4]
 80048dc:	6039      	str	r1, [r7, #0]
  (void)file;
  st->st_mode = S_IFCHR;
 80048de:	683b      	ldr	r3, [r7, #0]
 80048e0:	2280      	movs	r2, #128	; 0x80
 80048e2:	0192      	lsls	r2, r2, #6
 80048e4:	605a      	str	r2, [r3, #4]
  return 0;
 80048e6:	2300      	movs	r3, #0
}
 80048e8:	0018      	movs	r0, r3
 80048ea:	46bd      	mov	sp, r7
 80048ec:	b002      	add	sp, #8
 80048ee:	bd80      	pop	{r7, pc}

080048f0 <_isatty>:

int _isatty(int file)
{
 80048f0:	b580      	push	{r7, lr}
 80048f2:	b082      	sub	sp, #8
 80048f4:	af00      	add	r7, sp, #0
 80048f6:	6078      	str	r0, [r7, #4]
  (void)file;
  return 1;
 80048f8:	2301      	movs	r3, #1
}
 80048fa:	0018      	movs	r0, r3
 80048fc:	46bd      	mov	sp, r7
 80048fe:	b002      	add	sp, #8
 8004900:	bd80      	pop	{r7, pc}

08004902 <_lseek>:

int _lseek(int file, int ptr, int dir)
{
 8004902:	b580      	push	{r7, lr}
 8004904:	b084      	sub	sp, #16
 8004906:	af00      	add	r7, sp, #0
 8004908:	60f8      	str	r0, [r7, #12]
 800490a:	60b9      	str	r1, [r7, #8]
 800490c:	607a      	str	r2, [r7, #4]
  (void)file;
  (void)ptr;
  (void)dir;
  return 0;
 800490e:	2300      	movs	r3, #0
}
 8004910:	0018      	movs	r0, r3
 8004912:	46bd      	mov	sp, r7
 8004914:	b004      	add	sp, #16
 8004916:	bd80      	pop	{r7, pc}

08004918 <_sbrk>:
 *
 * @param incr Memory size
 * @return Pointer to allocated memory
 */
void *_sbrk(ptrdiff_t incr)
{
 8004918:	b580      	push	{r7, lr}
 800491a:	b086      	sub	sp, #24
 800491c:	af00      	add	r7, sp, #0
 800491e:	6078      	str	r0, [r7, #4]
  extern uint8_t _end; /* Symbol defined in the linker script */
  extern uint8_t _estack; /* Symbol defined in the linker script */
  extern uint32_t _Min_Stack_Size; /* Symbol defined in the linker script */
  const uint32_t stack_limit = (uint32_t)&_estack - (uint32_t)&_Min_Stack_Size;
 8004920:	4a14      	ldr	r2, [pc, #80]	; (8004974 <_sbrk+0x5c>)
 8004922:	4b15      	ldr	r3, [pc, #84]	; (8004978 <_sbrk+0x60>)
 8004924:	1ad3      	subs	r3, r2, r3
 8004926:	617b      	str	r3, [r7, #20]
  const uint8_t *max_heap = (uint8_t *)stack_limit;
 8004928:	697b      	ldr	r3, [r7, #20]
 800492a:	613b      	str	r3, [r7, #16]
  uint8_t *prev_heap_end;

  /* Initialize heap end at first call */
  if (NULL == __sbrk_heap_end)
 800492c:	4b13      	ldr	r3, [pc, #76]	; (800497c <_sbrk+0x64>)
 800492e:	681b      	ldr	r3, [r3, #0]
 8004930:	2b00      	cmp	r3, #0
 8004932:	d102      	bne.n	800493a <_sbrk+0x22>
  {
    __sbrk_heap_end = &_end;
 8004934:	4b11      	ldr	r3, [pc, #68]	; (800497c <_sbrk+0x64>)
 8004936:	4a12      	ldr	r2, [pc, #72]	; (8004980 <_sbrk+0x68>)
 8004938:	601a      	str	r2, [r3, #0]
  }

  /* Protect heap from growing into the reserved MSP stack */
  if (__sbrk_heap_end + incr > max_heap)
 800493a:	4b10      	ldr	r3, [pc, #64]	; (800497c <_sbrk+0x64>)
 800493c:	681a      	ldr	r2, [r3, #0]
 800493e:	687b      	ldr	r3, [r7, #4]
 8004940:	18d3      	adds	r3, r2, r3
 8004942:	693a      	ldr	r2, [r7, #16]
 8004944:	429a      	cmp	r2, r3
 8004946:	d207      	bcs.n	8004958 <_sbrk+0x40>
  {
    errno = ENOMEM;
 8004948:	f001 f810 	bl	800596c <__errno>
 800494c:	0003      	movs	r3, r0
 800494e:	220c      	movs	r2, #12
 8004950:	601a      	str	r2, [r3, #0]
    return (void *)-1;
 8004952:	2301      	movs	r3, #1
 8004954:	425b      	negs	r3, r3
 8004956:	e009      	b.n	800496c <_sbrk+0x54>
  }

  prev_heap_end = __sbrk_heap_end;
 8004958:	4b08      	ldr	r3, [pc, #32]	; (800497c <_sbrk+0x64>)
 800495a:	681b      	ldr	r3, [r3, #0]
 800495c:	60fb      	str	r3, [r7, #12]
  __sbrk_heap_end += incr;
 800495e:	4b07      	ldr	r3, [pc, #28]	; (800497c <_sbrk+0x64>)
 8004960:	681a      	ldr	r2, [r3, #0]
 8004962:	687b      	ldr	r3, [r7, #4]
 8004964:	18d2      	adds	r2, r2, r3
 8004966:	4b05      	ldr	r3, [pc, #20]	; (800497c <_sbrk+0x64>)
 8004968:	601a      	str	r2, [r3, #0]

  return (void *)prev_heap_end;
 800496a:	68fb      	ldr	r3, [r7, #12]
}
 800496c:	0018      	movs	r0, r3
 800496e:	46bd      	mov	sp, r7
 8004970:	b006      	add	sp, #24
 8004972:	bd80      	pop	{r7, pc}
 8004974:	20002000 	.word	0x20002000
 8004978:	00000400 	.word	0x00000400
 800497c:	20000298 	.word	0x20000298
 8004980:	200002b0 	.word	0x200002b0

08004984 <SystemInit>:
  * @brief  Setup the microcontroller system.
  * @param  None
  * @retval None
  */
void SystemInit(void)
{
 8004984:	b580      	push	{r7, lr}
 8004986:	af00      	add	r7, sp, #0
  /* Configure the Vector Table location -------------------------------------*/
#if defined(USER_VECT_TAB_ADDRESS)
  SCB->VTOR = VECT_TAB_BASE_ADDRESS | VECT_TAB_OFFSET; /* Vector Table Relocation */
#endif /* USER_VECT_TAB_ADDRESS */
}
 8004988:	46c0      	nop			; (mov r8, r8)
 800498a:	46bd      	mov	sp, r7
 800498c:	bd80      	pop	{r7, pc}
	...

08004990 <Reset_Handler>:

  .section .text.Reset_Handler
  .weak Reset_Handler
  .type Reset_Handler, %function
Reset_Handler:
  ldr   r0, =_estack
 8004990:	480d      	ldr	r0, [pc, #52]	; (80049c8 <LoopForever+0x2>)
  mov   sp, r0          /* set stack pointer */
 8004992:	4685      	mov	sp, r0

/* Call the clock system initialization function.*/
  bl  SystemInit
 8004994:	f7ff fff6 	bl	8004984 <SystemInit>

/* Copy the data segment initializers from flash to SRAM */
  ldr r0, =_sdata
 8004998:	480c      	ldr	r0, [pc, #48]	; (80049cc <LoopForever+0x6>)
  ldr r1, =_edata
 800499a:	490d      	ldr	r1, [pc, #52]	; (80049d0 <LoopForever+0xa>)
  ldr r2, =_sidata
 800499c:	4a0d      	ldr	r2, [pc, #52]	; (80049d4 <LoopForever+0xe>)
  movs r3, #0
 800499e:	2300      	movs	r3, #0
  b LoopCopyDataInit
 80049a0:	e002      	b.n	80049a8 <LoopCopyDataInit>

080049a2 <CopyDataInit>:

CopyDataInit:
  ldr r4, [r2, r3]
 80049a2:	58d4      	ldr	r4, [r2, r3]
  str r4, [r0, r3]
 80049a4:	50c4      	str	r4, [r0, r3]
  adds r3, r3, #4
 80049a6:	3304      	adds	r3, #4

080049a8 <LoopCopyDataInit>:

LoopCopyDataInit:
  adds r4, r0, r3
 80049a8:	18c4      	adds	r4, r0, r3
  cmp r4, r1
 80049aa:	428c      	cmp	r4, r1
  bcc CopyDataInit
 80049ac:	d3f9      	bcc.n	80049a2 <CopyDataInit>

/* Zero fill the bss segment. */
  ldr r2, =_sbss
 80049ae:	4a0a      	ldr	r2, [pc, #40]	; (80049d8 <LoopForever+0x12>)
  ldr r4, =_ebss
 80049b0:	4c0a      	ldr	r4, [pc, #40]	; (80049dc <LoopForever+0x16>)
  movs r3, #0
 80049b2:	2300      	movs	r3, #0
  b LoopFillZerobss
 80049b4:	e001      	b.n	80049ba <LoopFillZerobss>

080049b6 <FillZerobss>:

FillZerobss:
  str  r3, [r2]
 80049b6:	6013      	str	r3, [r2, #0]
  adds r2, r2, #4
 80049b8:	3204      	adds	r2, #4

080049ba <LoopFillZerobss>:

LoopFillZerobss:
  cmp r2, r4
 80049ba:	42a2      	cmp	r2, r4
  bcc FillZerobss
 80049bc:	d3fb      	bcc.n	80049b6 <FillZerobss>

/* Call static constructors */
  bl __libc_init_array
 80049be:	f000 ffdb 	bl	8005978 <__libc_init_array>
/* Call the application s entry point.*/
  bl main
 80049c2:	f7ff fc55 	bl	8004270 <main>

080049c6 <LoopForever>:

LoopForever:
  b LoopForever
 80049c6:	e7fe      	b.n	80049c6 <LoopForever>
  ldr   r0, =_estack
 80049c8:	20002000 	.word	0x20002000
  ldr r0, =_sdata
 80049cc:	20000000 	.word	0x20000000
  ldr r1, =_edata
 80049d0:	200001dc 	.word	0x200001dc
  ldr r2, =_sidata
 80049d4:	08009634 	.word	0x08009634
  ldr r2, =_sbss
 80049d8:	200001dc 	.word	0x200001dc
  ldr r4, =_ebss
 80049dc:	200002b0 	.word	0x200002b0

080049e0 <ADC1_IRQHandler>:
 * @retval None
*/
  .section .text.Default_Handler,"ax",%progbits
Default_Handler:
Infinite_Loop:
  b Infinite_Loop
 80049e0:	e7fe      	b.n	80049e0 <ADC1_IRQHandler>
	...

080049e4 <HAL_Init>:
  *         each 1ms in the SysTick_Handler() interrupt handler.
  *
  * @retval HAL status
  */
HAL_StatusTypeDef HAL_Init(void)
{
 80049e4:	b580      	push	{r7, lr}
 80049e6:	b082      	sub	sp, #8
 80049e8:	af00      	add	r7, sp, #0
  HAL_StatusTypeDef  status = HAL_OK;
 80049ea:	1dfb      	adds	r3, r7, #7
 80049ec:	2200      	movs	r2, #0
 80049ee:	701a      	strb	r2, [r3, #0]
#if (INSTRUCTION_CACHE_ENABLE == 0U)
  __HAL_FLASH_INSTRUCTION_CACHE_DISABLE();
#endif /* INSTRUCTION_CACHE_ENABLE */

#if (PREFETCH_ENABLE != 0U)
  __HAL_FLASH_PREFETCH_BUFFER_ENABLE();
 80049f0:	4b0b      	ldr	r3, [pc, #44]	; (8004a20 <HAL_Init+0x3c>)
 80049f2:	681a      	ldr	r2, [r3, #0]
 80049f4:	4b0a      	ldr	r3, [pc, #40]	; (8004a20 <HAL_Init+0x3c>)
 80049f6:	2180      	movs	r1, #128	; 0x80
 80049f8:	0049      	lsls	r1, r1, #1
 80049fa:	430a      	orrs	r2, r1
 80049fc:	601a      	str	r2, [r3, #0]
#endif /* PREFETCH_ENABLE */

  /* Use SysTick as time base source and configure 1ms tick (default clock after Reset is HSI) */
  if (HAL_InitTick(TICK_INT_PRIORITY) != HAL_OK)
 80049fe:	2003      	movs	r0, #3
 8004a00:	f000 f810 	bl	8004a24 <HAL_InitTick>
 8004a04:	1e03      	subs	r3, r0, #0
 8004a06:	d003      	beq.n	8004a10 <HAL_Init+0x2c>
  {
    status = HAL_ERROR;
 8004a08:	1dfb      	adds	r3, r7, #7
 8004a0a:	2201      	movs	r2, #1
 8004a0c:	701a      	strb	r2, [r3, #0]
 8004a0e:	e001      	b.n	8004a14 <HAL_Init+0x30>
  }
  else
  {
  /* Init the low level hardware */
  HAL_MspInit();
 8004a10:	f7ff fec0 	bl	8004794 <HAL_MspInit>
  }

  /* Return function status */
  return status;
 8004a14:	1dfb      	adds	r3, r7, #7
 8004a16:	781b      	ldrb	r3, [r3, #0]
}
 8004a18:	0018      	movs	r0, r3
 8004a1a:	46bd      	mov	sp, r7
 8004a1c:	b002      	add	sp, #8
 8004a1e:	bd80      	pop	{r7, pc}
 8004a20:	40022000 	.word	0x40022000

08004a24 <HAL_InitTick>:
  *       implementation  in user file.
  * @param TickPriority Tick interrupt priority.
  * @retval HAL status
  */
__weak HAL_StatusTypeDef HAL_InitTick(uint32_t TickPriority)
{
 8004a24:	b590      	push	{r4, r7, lr}
 8004a26:	b085      	sub	sp, #20
 8004a28:	af00      	add	r7, sp, #0
 8004a2a:	6078      	str	r0, [r7, #4]
  HAL_StatusTypeDef  status = HAL_OK;
 8004a2c:	230f      	movs	r3, #15
 8004a2e:	18fb      	adds	r3, r7, r3
 8004a30:	2200      	movs	r2, #0
 8004a32:	701a      	strb	r2, [r3, #0]

  /* Check uwTickFreq for MisraC 2012 (even if uwTickFreq is a enum type that doesn't take the value zero)*/ 
  if ((uint32_t)uwTickFreq != 0U)
 8004a34:	4b1d      	ldr	r3, [pc, #116]	; (8004aac <HAL_InitTick+0x88>)
 8004a36:	781b      	ldrb	r3, [r3, #0]
 8004a38:	2b00      	cmp	r3, #0
 8004a3a:	d02b      	beq.n	8004a94 <HAL_InitTick+0x70>
  {
    /*Configure the SysTick to have interrupt in 1ms time basis*/
    if (HAL_SYSTICK_Config(SystemCoreClock / (1000U /(uint32_t)uwTickFreq)) == 0U)
 8004a3c:	4b1c      	ldr	r3, [pc, #112]	; (8004ab0 <HAL_InitTick+0x8c>)
 8004a3e:	681c      	ldr	r4, [r3, #0]
 8004a40:	4b1a      	ldr	r3, [pc, #104]	; (8004aac <HAL_InitTick+0x88>)
 8004a42:	781b      	ldrb	r3, [r3, #0]
 8004a44:	0019      	movs	r1, r3
 8004a46:	23fa      	movs	r3, #250	; 0xfa
 8004a48:	0098      	lsls	r0, r3, #2
 8004a4a:	f7fb fb77 	bl	800013c <__udivsi3>
 8004a4e:	0003      	movs	r3, r0
 8004a50:	0019      	movs	r1, r3
 8004a52:	0020      	movs	r0, r4
 8004a54:	f7fb fb72 	bl	800013c <__udivsi3>
 8004a58:	0003      	movs	r3, r0
 8004a5a:	0018      	movs	r0, r3
 8004a5c:	f000 f913 	bl	8004c86 <HAL_SYSTICK_Config>
 8004a60:	1e03      	subs	r3, r0, #0
 8004a62:	d112      	bne.n	8004a8a <HAL_InitTick+0x66>
    {
      /* Configure the SysTick IRQ priority */
      if (TickPriority < (1UL << __NVIC_PRIO_BITS))
 8004a64:	687b      	ldr	r3, [r7, #4]
 8004a66:	2b03      	cmp	r3, #3
 8004a68:	d80a      	bhi.n	8004a80 <HAL_InitTick+0x5c>
      {
        HAL_NVIC_SetPriority(SysTick_IRQn, TickPriority, 0U);
 8004a6a:	6879      	ldr	r1, [r7, #4]
 8004a6c:	2301      	movs	r3, #1
 8004a6e:	425b      	negs	r3, r3
 8004a70:	2200      	movs	r2, #0
 8004a72:	0018      	movs	r0, r3
 8004a74:	f000 f8f2 	bl	8004c5c <HAL_NVIC_SetPriority>
        uwTickPrio = TickPriority;
 8004a78:	4b0e      	ldr	r3, [pc, #56]	; (8004ab4 <HAL_InitTick+0x90>)
 8004a7a:	687a      	ldr	r2, [r7, #4]
 8004a7c:	601a      	str	r2, [r3, #0]
 8004a7e:	e00d      	b.n	8004a9c <HAL_InitTick+0x78>
      }
      else
      {
        status = HAL_ERROR;
 8004a80:	230f      	movs	r3, #15
 8004a82:	18fb      	adds	r3, r7, r3
 8004a84:	2201      	movs	r2, #1
 8004a86:	701a      	strb	r2, [r3, #0]
 8004a88:	e008      	b.n	8004a9c <HAL_InitTick+0x78>
      }
    }
    else
    {
      status = HAL_ERROR;
 8004a8a:	230f      	movs	r3, #15
 8004a8c:	18fb      	adds	r3, r7, r3
 8004a8e:	2201      	movs	r2, #1
 8004a90:	701a      	strb	r2, [r3, #0]
 8004a92:	e003      	b.n	8004a9c <HAL_InitTick+0x78>
    }
  }
  else
  {
    status = HAL_ERROR;
 8004a94:	230f      	movs	r3, #15
 8004a96:	18fb      	adds	r3, r7, r3
 8004a98:	2201      	movs	r2, #1
 8004a9a:	701a      	strb	r2, [r3, #0]
  }

  /* Return function status */
  return status;
 8004a9c:	230f      	movs	r3, #15
 8004a9e:	18fb      	adds	r3, r7, r3
 8004aa0:	781b      	ldrb	r3, [r3, #0]
}
 8004aa2:	0018      	movs	r0, r3
 8004aa4:	46bd      	mov	sp, r7
 8004aa6:	b005      	add	sp, #20
 8004aa8:	bd90      	pop	{r4, r7, pc}
 8004aaa:	46c0      	nop			; (mov r8, r8)
 8004aac:	20000008 	.word	0x20000008
 8004ab0:	20000000 	.word	0x20000000
 8004ab4:	20000004 	.word	0x20000004

08004ab8 <HAL_IncTick>:
  * @note This function is declared as __weak to be overwritten in case of other
  *      implementations in user file.
  * @retval None
  */
__weak void HAL_IncTick(void)
{
 8004ab8:	b580      	push	{r7, lr}
 8004aba:	af00      	add	r7, sp, #0
  uwTick += (uint32_t)uwTickFreq;
 8004abc:	4b05      	ldr	r3, [pc, #20]	; (8004ad4 <HAL_IncTick+0x1c>)
 8004abe:	781b      	ldrb	r3, [r3, #0]
 8004ac0:	001a      	movs	r2, r3
 8004ac2:	4b05      	ldr	r3, [pc, #20]	; (8004ad8 <HAL_IncTick+0x20>)
 8004ac4:	681b      	ldr	r3, [r3, #0]
 8004ac6:	18d2      	adds	r2, r2, r3
 8004ac8:	4b03      	ldr	r3, [pc, #12]	; (8004ad8 <HAL_IncTick+0x20>)
 8004aca:	601a      	str	r2, [r3, #0]
}
 8004acc:	46c0      	nop			; (mov r8, r8)
 8004ace:	46bd      	mov	sp, r7
 8004ad0:	bd80      	pop	{r7, pc}
 8004ad2:	46c0      	nop			; (mov r8, r8)
 8004ad4:	20000008 	.word	0x20000008
 8004ad8:	2000029c 	.word	0x2000029c

08004adc <HAL_GetTick>:
  * @note This function is declared as __weak to be overwritten in case of other
  *       implementations in user file.
  * @retval tick value
  */
__weak uint32_t HAL_GetTick(void)
{
 8004adc:	b580      	push	{r7, lr}
 8004ade:	af00      	add	r7, sp, #0
  return uwTick;
 8004ae0:	4b02      	ldr	r3, [pc, #8]	; (8004aec <HAL_GetTick+0x10>)
 8004ae2:	681b      	ldr	r3, [r3, #0]
}
 8004ae4:	0018      	movs	r0, r3
 8004ae6:	46bd      	mov	sp, r7
 8004ae8:	bd80      	pop	{r7, pc}
 8004aea:	46c0      	nop			; (mov r8, r8)
 8004aec:	2000029c 	.word	0x2000029c

08004af0 <HAL_Delay>:
  *       implementations in user file.
  * @param Delay  specifies the delay time length, in milliseconds.
  * @retval None
  */
__weak void HAL_Delay(uint32_t Delay)
{
 8004af0:	b580      	push	{r7, lr}
 8004af2:	b084      	sub	sp, #16
 8004af4:	af00      	add	r7, sp, #0
 8004af6:	6078      	str	r0, [r7, #4]
  uint32_t tickstart = HAL_GetTick();
 8004af8:	f7ff fff0 	bl	8004adc <HAL_GetTick>
 8004afc:	0003      	movs	r3, r0
 8004afe:	60bb      	str	r3, [r7, #8]
  uint32_t wait = Delay;
 8004b00:	687b      	ldr	r3, [r7, #4]
 8004b02:	60fb      	str	r3, [r7, #12]

  /* Add a freq to guarantee minimum wait */
  if (wait < HAL_MAX_DELAY)
 8004b04:	68fb      	ldr	r3, [r7, #12]
 8004b06:	3301      	adds	r3, #1
 8004b08:	d005      	beq.n	8004b16 <HAL_Delay+0x26>
  {
    wait += (uint32_t)(uwTickFreq);
 8004b0a:	4b0a      	ldr	r3, [pc, #40]	; (8004b34 <HAL_Delay+0x44>)
 8004b0c:	781b      	ldrb	r3, [r3, #0]
 8004b0e:	001a      	movs	r2, r3
 8004b10:	68fb      	ldr	r3, [r7, #12]
 8004b12:	189b      	adds	r3, r3, r2
 8004b14:	60fb      	str	r3, [r7, #12]
  }

  while ((HAL_GetTick() - tickstart) < wait)
 8004b16:	46c0      	nop			; (mov r8, r8)
 8004b18:	f7ff ffe0 	bl	8004adc <HAL_GetTick>
 8004b1c:	0002      	movs	r2, r0
 8004b1e:	68bb      	ldr	r3, [r7, #8]
 8004b20:	1ad3      	subs	r3, r2, r3
 8004b22:	68fa      	ldr	r2, [r7, #12]
 8004b24:	429a      	cmp	r2, r3
 8004b26:	d8f7      	bhi.n	8004b18 <HAL_Delay+0x28>
  {
  }
}
 8004b28:	46c0      	nop			; (mov r8, r8)
 8004b2a:	46c0      	nop			; (mov r8, r8)
 8004b2c:	46bd      	mov	sp, r7
 8004b2e:	b004      	add	sp, #16
 8004b30:	bd80      	pop	{r7, pc}
 8004b32:	46c0      	nop			; (mov r8, r8)
 8004b34:	20000008 	.word	0x20000008

08004b38 <__NVIC_SetPriority>:
  \param [in]      IRQn  Interrupt number.
  \param [in]  priority  Priority to set.
  \note    The priority cannot be set for every processor exception.
 */
__STATIC_INLINE void __NVIC_SetPriority(IRQn_Type IRQn, uint32_t priority)
{
 8004b38:	b590      	push	{r4, r7, lr}
 8004b3a:	b083      	sub	sp, #12
 8004b3c:	af00      	add	r7, sp, #0
 8004b3e:	0002      	movs	r2, r0
 8004b40:	6039      	str	r1, [r7, #0]
 8004b42:	1dfb      	adds	r3, r7, #7
 8004b44:	701a      	strb	r2, [r3, #0]
  if ((int32_t)(IRQn) >= 0)
 8004b46:	1dfb      	adds	r3, r7, #7
 8004b48:	781b      	ldrb	r3, [r3, #0]
 8004b4a:	2b7f      	cmp	r3, #127	; 0x7f
 8004b4c:	d828      	bhi.n	8004ba0 <__NVIC_SetPriority+0x68>
  {
    NVIC->IP[_IP_IDX(IRQn)]  = ((uint32_t)(NVIC->IP[_IP_IDX(IRQn)]  & ~(0xFFUL << _BIT_SHIFT(IRQn))) |
 8004b4e:	4a2f      	ldr	r2, [pc, #188]	; (8004c0c <__NVIC_SetPriority+0xd4>)
 8004b50:	1dfb      	adds	r3, r7, #7
 8004b52:	781b      	ldrb	r3, [r3, #0]
 8004b54:	b25b      	sxtb	r3, r3
 8004b56:	089b      	lsrs	r3, r3, #2
 8004b58:	33c0      	adds	r3, #192	; 0xc0
 8004b5a:	009b      	lsls	r3, r3, #2
 8004b5c:	589b      	ldr	r3, [r3, r2]
 8004b5e:	1dfa      	adds	r2, r7, #7
 8004b60:	7812      	ldrb	r2, [r2, #0]
 8004b62:	0011      	movs	r1, r2
 8004b64:	2203      	movs	r2, #3
 8004b66:	400a      	ands	r2, r1
 8004b68:	00d2      	lsls	r2, r2, #3
 8004b6a:	21ff      	movs	r1, #255	; 0xff
 8004b6c:	4091      	lsls	r1, r2
 8004b6e:	000a      	movs	r2, r1
 8004b70:	43d2      	mvns	r2, r2
 8004b72:	401a      	ands	r2, r3
 8004b74:	0011      	movs	r1, r2
       (((priority << (8U - __NVIC_PRIO_BITS)) & (uint32_t)0xFFUL) << _BIT_SHIFT(IRQn)));
 8004b76:	683b      	ldr	r3, [r7, #0]
 8004b78:	019b      	lsls	r3, r3, #6
 8004b7a:	22ff      	movs	r2, #255	; 0xff
 8004b7c:	401a      	ands	r2, r3
 8004b7e:	1dfb      	adds	r3, r7, #7
 8004b80:	781b      	ldrb	r3, [r3, #0]
 8004b82:	0018      	movs	r0, r3
 8004b84:	2303      	movs	r3, #3
 8004b86:	4003      	ands	r3, r0
 8004b88:	00db      	lsls	r3, r3, #3
 8004b8a:	409a      	lsls	r2, r3
    NVIC->IP[_IP_IDX(IRQn)]  = ((uint32_t)(NVIC->IP[_IP_IDX(IRQn)]  & ~(0xFFUL << _BIT_SHIFT(IRQn))) |
 8004b8c:	481f      	ldr	r0, [pc, #124]	; (8004c0c <__NVIC_SetPriority+0xd4>)
 8004b8e:	1dfb      	adds	r3, r7, #7
 8004b90:	781b      	ldrb	r3, [r3, #0]
 8004b92:	b25b      	sxtb	r3, r3
 8004b94:	089b      	lsrs	r3, r3, #2
 8004b96:	430a      	orrs	r2, r1
 8004b98:	33c0      	adds	r3, #192	; 0xc0
 8004b9a:	009b      	lsls	r3, r3, #2
 8004b9c:	501a      	str	r2, [r3, r0]
  else
  {
    SCB->SHP[_SHP_IDX(IRQn)] = ((uint32_t)(SCB->SHP[_SHP_IDX(IRQn)] & ~(0xFFUL << _BIT_SHIFT(IRQn))) |
       (((priority << (8U - __NVIC_PRIO_BITS)) & (uint32_t)0xFFUL) << _BIT_SHIFT(IRQn)));
  }
}
 8004b9e:	e031      	b.n	8004c04 <__NVIC_SetPriority+0xcc>
    SCB->SHP[_SHP_IDX(IRQn)] = ((uint32_t)(SCB->SHP[_SHP_IDX(IRQn)] & ~(0xFFUL << _BIT_SHIFT(IRQn))) |
 8004ba0:	4a1b      	ldr	r2, [pc, #108]	; (8004c10 <__NVIC_SetPriority+0xd8>)
 8004ba2:	1dfb      	adds	r3, r7, #7
 8004ba4:	781b      	ldrb	r3, [r3, #0]
 8004ba6:	0019      	movs	r1, r3
 8004ba8:	230f      	movs	r3, #15
 8004baa:	400b      	ands	r3, r1
 8004bac:	3b08      	subs	r3, #8
 8004bae:	089b      	lsrs	r3, r3, #2
 8004bb0:	3306      	adds	r3, #6
 8004bb2:	009b      	lsls	r3, r3, #2
 8004bb4:	18d3      	adds	r3, r2, r3
 8004bb6:	3304      	adds	r3, #4
 8004bb8:	681b      	ldr	r3, [r3, #0]
 8004bba:	1dfa      	adds	r2, r7, #7
 8004bbc:	7812      	ldrb	r2, [r2, #0]
 8004bbe:	0011      	movs	r1, r2
 8004bc0:	2203      	movs	r2, #3
 8004bc2:	400a      	ands	r2, r1
 8004bc4:	00d2      	lsls	r2, r2, #3
 8004bc6:	21ff      	movs	r1, #255	; 0xff
 8004bc8:	4091      	lsls	r1, r2
 8004bca:	000a      	movs	r2, r1
 8004bcc:	43d2      	mvns	r2, r2
 8004bce:	401a      	ands	r2, r3
 8004bd0:	0011      	movs	r1, r2
       (((priority << (8U - __NVIC_PRIO_BITS)) & (uint32_t)0xFFUL) << _BIT_SHIFT(IRQn)));
 8004bd2:	683b      	ldr	r3, [r7, #0]
 8004bd4:	019b      	lsls	r3, r3, #6
 8004bd6:	22ff      	movs	r2, #255	; 0xff
 8004bd8:	401a      	ands	r2, r3
 8004bda:	1dfb      	adds	r3, r7, #7
 8004bdc:	781b      	ldrb	r3, [r3, #0]
 8004bde:	0018      	movs	r0, r3
 8004be0:	2303      	movs	r3, #3
 8004be2:	4003      	ands	r3, r0
 8004be4:	00db      	lsls	r3, r3, #3
 8004be6:	409a      	lsls	r2, r3
    SCB->SHP[_SHP_IDX(IRQn)] = ((uint32_t)(SCB->SHP[_SHP_IDX(IRQn)] & ~(0xFFUL << _BIT_SHIFT(IRQn))) |
 8004be8:	4809      	ldr	r0, [pc, #36]	; (8004c10 <__NVIC_SetPriority+0xd8>)
 8004bea:	1dfb      	adds	r3, r7, #7
 8004bec:	781b      	ldrb	r3, [r3, #0]
 8004bee:	001c      	movs	r4, r3
 8004bf0:	230f      	movs	r3, #15
 8004bf2:	4023      	ands	r3, r4
 8004bf4:	3b08      	subs	r3, #8
 8004bf6:	089b      	lsrs	r3, r3, #2
 8004bf8:	430a      	orrs	r2, r1
 8004bfa:	3306      	adds	r3, #6
 8004bfc:	009b      	lsls	r3, r3, #2
 8004bfe:	18c3      	adds	r3, r0, r3
 8004c00:	3304      	adds	r3, #4
 8004c02:	601a      	str	r2, [r3, #0]
}
 8004c04:	46c0      	nop			; (mov r8, r8)
 8004c06:	46bd      	mov	sp, r7
 8004c08:	b003      	add	sp, #12
 8004c0a:	bd90      	pop	{r4, r7, pc}
 8004c0c:	e000e100 	.word	0xe000e100
 8004c10:	e000ed00 	.word	0xe000ed00

08004c14 <SysTick_Config>:
  \note    When the variable <b>__Vendor_SysTickConfig</b> is set to 1, then the
           function <b>SysTick_Config</b> is not included. In this case, the file <b><i>device</i>.h</b>
           must contain a vendor-specific implementation of this function.
 */
__STATIC_INLINE uint32_t SysTick_Config(uint32_t ticks)
{
 8004c14:	b580      	push	{r7, lr}
 8004c16:	b082      	sub	sp, #8
 8004c18:	af00      	add	r7, sp, #0
 8004c1a:	6078      	str	r0, [r7, #4]
  if ((ticks - 1UL) > SysTick_LOAD_RELOAD_Msk)
 8004c1c:	687b      	ldr	r3, [r7, #4]
 8004c1e:	1e5a      	subs	r2, r3, #1
 8004c20:	2380      	movs	r3, #128	; 0x80
 8004c22:	045b      	lsls	r3, r3, #17
 8004c24:	429a      	cmp	r2, r3
 8004c26:	d301      	bcc.n	8004c2c <SysTick_Config+0x18>
  {
    return (1UL);                                                   /* Reload value impossible */
 8004c28:	2301      	movs	r3, #1
 8004c2a:	e010      	b.n	8004c4e <SysTick_Config+0x3a>
  }

  SysTick->LOAD  = (uint32_t)(ticks - 1UL);                         /* set reload register */
 8004c2c:	4b0a      	ldr	r3, [pc, #40]	; (8004c58 <SysTick_Config+0x44>)
 8004c2e:	687a      	ldr	r2, [r7, #4]
 8004c30:	3a01      	subs	r2, #1
 8004c32:	605a      	str	r2, [r3, #4]
  NVIC_SetPriority (SysTick_IRQn, (1UL << __NVIC_PRIO_BITS) - 1UL); /* set Priority for Systick Interrupt */
 8004c34:	2301      	movs	r3, #1
 8004c36:	425b      	negs	r3, r3
 8004c38:	2103      	movs	r1, #3
 8004c3a:	0018      	movs	r0, r3
 8004c3c:	f7ff ff7c 	bl	8004b38 <__NVIC_SetPriority>
  SysTick->VAL   = 0UL;                                             /* Load the SysTick Counter Value */
 8004c40:	4b05      	ldr	r3, [pc, #20]	; (8004c58 <SysTick_Config+0x44>)
 8004c42:	2200      	movs	r2, #0
 8004c44:	609a      	str	r2, [r3, #8]
  SysTick->CTRL  = SysTick_CTRL_CLKSOURCE_Msk |
 8004c46:	4b04      	ldr	r3, [pc, #16]	; (8004c58 <SysTick_Config+0x44>)
 8004c48:	2207      	movs	r2, #7
 8004c4a:	601a      	str	r2, [r3, #0]
                   SysTick_CTRL_TICKINT_Msk   |
                   SysTick_CTRL_ENABLE_Msk;                         /* Enable SysTick IRQ and SysTick Timer */
  return (0UL);                                                     /* Function successful */
 8004c4c:	2300      	movs	r3, #0
}
 8004c4e:	0018      	movs	r0, r3
 8004c50:	46bd      	mov	sp, r7
 8004c52:	b002      	add	sp, #8
 8004c54:	bd80      	pop	{r7, pc}
 8004c56:	46c0      	nop			; (mov r8, r8)
 8004c58:	e000e010 	.word	0xe000e010

08004c5c <HAL_NVIC_SetPriority>:
  *         with stm32g0xx devices, this parameter is a dummy value and it is ignored, because
  *         no subpriority supported in Cortex M0+ based products.
  * @retval None
  */
void HAL_NVIC_SetPriority(IRQn_Type IRQn, uint32_t PreemptPriority, uint32_t SubPriority)
{
 8004c5c:	b580      	push	{r7, lr}
 8004c5e:	b084      	sub	sp, #16
 8004c60:	af00      	add	r7, sp, #0
 8004c62:	60b9      	str	r1, [r7, #8]
 8004c64:	607a      	str	r2, [r7, #4]
 8004c66:	210f      	movs	r1, #15
 8004c68:	187b      	adds	r3, r7, r1
 8004c6a:	1c02      	adds	r2, r0, #0
 8004c6c:	701a      	strb	r2, [r3, #0]
  /* Prevent unused argument(s) compilation warning */
  UNUSED(SubPriority);

  /* Check the parameters */
  assert_param(IS_NVIC_PREEMPTION_PRIORITY(PreemptPriority));
  NVIC_SetPriority(IRQn, PreemptPriority);
 8004c6e:	68ba      	ldr	r2, [r7, #8]
 8004c70:	187b      	adds	r3, r7, r1
 8004c72:	781b      	ldrb	r3, [r3, #0]
 8004c74:	b25b      	sxtb	r3, r3
 8004c76:	0011      	movs	r1, r2
 8004c78:	0018      	movs	r0, r3
 8004c7a:	f7ff ff5d 	bl	8004b38 <__NVIC_SetPriority>
}
 8004c7e:	46c0      	nop			; (mov r8, r8)
 8004c80:	46bd      	mov	sp, r7
 8004c82:	b004      	add	sp, #16
 8004c84:	bd80      	pop	{r7, pc}

08004c86 <HAL_SYSTICK_Config>:
  * @param  TicksNumb Specifies the ticks Number of ticks between two interrupts.
  * @retval status:  - 0  Function succeeded.
  *                  - 1  Function failed.
  */
uint32_t HAL_SYSTICK_Config(uint32_t TicksNumb)
{
 8004c86:	b580      	push	{r7, lr}
 8004c88:	b082      	sub	sp, #8
 8004c8a:	af00      	add	r7, sp, #0
 8004c8c:	6078      	str	r0, [r7, #4]
  return SysTick_Config(TicksNumb);
 8004c8e:	687b      	ldr	r3, [r7, #4]
 8004c90:	0018      	movs	r0, r3
 8004c92:	f7ff ffbf 	bl	8004c14 <SysTick_Config>
 8004c96:	0003      	movs	r3, r0
}
 8004c98:	0018      	movs	r0, r3
 8004c9a:	46bd      	mov	sp, r7
 8004c9c:	b002      	add	sp, #8
 8004c9e:	bd80      	pop	{r7, pc}

08004ca0 <HAL_GPIO_Init>:
  * @param  GPIO_Init pointer to a GPIO_InitTypeDef structure that contains
  *         the configuration information for the specified GPIO peripheral.
  * @retval None
  */
void HAL_GPIO_Init(GPIO_TypeDef  *GPIOx, GPIO_InitTypeDef *GPIO_Init)
{
 8004ca0:	b580      	push	{r7, lr}
 8004ca2:	b086      	sub	sp, #24
 8004ca4:	af00      	add	r7, sp, #0
 8004ca6:	6078      	str	r0, [r7, #4]
 8004ca8:	6039      	str	r1, [r7, #0]
  uint32_t position = 0x00u;
 8004caa:	2300      	movs	r3, #0
 8004cac:	617b      	str	r3, [r7, #20]
  assert_param(IS_GPIO_ALL_INSTANCE(GPIOx));
  assert_param(IS_GPIO_PIN(GPIO_Init->Pin));
  assert_param(IS_GPIO_MODE(GPIO_Init->Mode));

  /* Configure the port pins */
  while (((GPIO_Init->Pin) >> position) != 0x00u)
 8004cae:	e147      	b.n	8004f40 <HAL_GPIO_Init+0x2a0>
  {
    /* Get current io position */
    iocurrent = (GPIO_Init->Pin) & (1uL << position);
 8004cb0:	683b      	ldr	r3, [r7, #0]
 8004cb2:	681b      	ldr	r3, [r3, #0]
 8004cb4:	2101      	movs	r1, #1
 8004cb6:	697a      	ldr	r2, [r7, #20]
 8004cb8:	4091      	lsls	r1, r2
 8004cba:	000a      	movs	r2, r1
 8004cbc:	4013      	ands	r3, r2
 8004cbe:	60fb      	str	r3, [r7, #12]

    if (iocurrent != 0x00u)
 8004cc0:	68fb      	ldr	r3, [r7, #12]
 8004cc2:	2b00      	cmp	r3, #0
 8004cc4:	d100      	bne.n	8004cc8 <HAL_GPIO_Init+0x28>
 8004cc6:	e138      	b.n	8004f3a <HAL_GPIO_Init+0x29a>
    {
      /*--------------------- GPIO Mode Configuration ------------------------*/
      /* In case of Output or Alternate function mode selection */
      if (((GPIO_Init->Mode & GPIO_MODE) == MODE_OUTPUT) || ((GPIO_Init->Mode & GPIO_MODE) == MODE_AF))
 8004cc8:	683b      	ldr	r3, [r7, #0]
 8004cca:	685b      	ldr	r3, [r3, #4]
 8004ccc:	2203      	movs	r2, #3
 8004cce:	4013      	ands	r3, r2
 8004cd0:	2b01      	cmp	r3, #1
 8004cd2:	d005      	beq.n	8004ce0 <HAL_GPIO_Init+0x40>
 8004cd4:	683b      	ldr	r3, [r7, #0]
 8004cd6:	685b      	ldr	r3, [r3, #4]
 8004cd8:	2203      	movs	r2, #3
 8004cda:	4013      	ands	r3, r2
 8004cdc:	2b02      	cmp	r3, #2
 8004cde:	d130      	bne.n	8004d42 <HAL_GPIO_Init+0xa2>
      {
        /* Check the Speed parameter */
        assert_param(IS_GPIO_SPEED(GPIO_Init->Speed));

        /* Configure the IO Speed */
        temp = GPIOx->OSPEEDR;
 8004ce0:	687b      	ldr	r3, [r7, #4]
 8004ce2:	689b      	ldr	r3, [r3, #8]
 8004ce4:	613b      	str	r3, [r7, #16]
        temp &= ~(GPIO_OSPEEDR_OSPEED0 << (position * 2u));
 8004ce6:	697b      	ldr	r3, [r7, #20]
 8004ce8:	005b      	lsls	r3, r3, #1
 8004cea:	2203      	movs	r2, #3
 8004cec:	409a      	lsls	r2, r3
 8004cee:	0013      	movs	r3, r2
 8004cf0:	43da      	mvns	r2, r3
 8004cf2:	693b      	ldr	r3, [r7, #16]
 8004cf4:	4013      	ands	r3, r2
 8004cf6:	613b      	str	r3, [r7, #16]
        temp |= (GPIO_Init->Speed << (position * 2u));
 8004cf8:	683b      	ldr	r3, [r7, #0]
 8004cfa:	68da      	ldr	r2, [r3, #12]
 8004cfc:	697b      	ldr	r3, [r7, #20]
 8004cfe:	005b      	lsls	r3, r3, #1
 8004d00:	409a      	lsls	r2, r3
 8004d02:	0013      	movs	r3, r2
 8004d04:	693a      	ldr	r2, [r7, #16]
 8004d06:	4313      	orrs	r3, r2
 8004d08:	613b      	str	r3, [r7, #16]
        GPIOx->OSPEEDR = temp;
 8004d0a:	687b      	ldr	r3, [r7, #4]
 8004d0c:	693a      	ldr	r2, [r7, #16]
 8004d0e:	609a      	str	r2, [r3, #8]

        /* Configure the IO Output Type */
        temp = GPIOx->OTYPER;
 8004d10:	687b      	ldr	r3, [r7, #4]
 8004d12:	685b      	ldr	r3, [r3, #4]
 8004d14:	613b      	str	r3, [r7, #16]
        temp &= ~(GPIO_OTYPER_OT0 << position) ;
 8004d16:	2201      	movs	r2, #1
 8004d18:	697b      	ldr	r3, [r7, #20]
 8004d1a:	409a      	lsls	r2, r3
 8004d1c:	0013      	movs	r3, r2
 8004d1e:	43da      	mvns	r2, r3
 8004d20:	693b      	ldr	r3, [r7, #16]
 8004d22:	4013      	ands	r3, r2
 8004d24:	613b      	str	r3, [r7, #16]
        temp |= (((GPIO_Init->Mode & OUTPUT_TYPE) >> OUTPUT_TYPE_Pos) << position);
 8004d26:	683b      	ldr	r3, [r7, #0]
 8004d28:	685b      	ldr	r3, [r3, #4]
 8004d2a:	091b      	lsrs	r3, r3, #4
 8004d2c:	2201      	movs	r2, #1
 8004d2e:	401a      	ands	r2, r3
 8004d30:	697b      	ldr	r3, [r7, #20]
 8004d32:	409a      	lsls	r2, r3
 8004d34:	0013      	movs	r3, r2
 8004d36:	693a      	ldr	r2, [r7, #16]
 8004d38:	4313      	orrs	r3, r2
 8004d3a:	613b      	str	r3, [r7, #16]
        GPIOx->OTYPER = temp;
 8004d3c:	687b      	ldr	r3, [r7, #4]
 8004d3e:	693a      	ldr	r2, [r7, #16]
 8004d40:	605a      	str	r2, [r3, #4]
      }

      if ((GPIO_Init->Mode & GPIO_MODE) != MODE_ANALOG)
 8004d42:	683b      	ldr	r3, [r7, #0]
 8004d44:	685b      	ldr	r3, [r3, #4]
 8004d46:	2203      	movs	r2, #3
 8004d48:	4013      	ands	r3, r2
 8004d4a:	2b03      	cmp	r3, #3
 8004d4c:	d017      	beq.n	8004d7e <HAL_GPIO_Init+0xde>
      {
        /* Check the Pull parameter */
        assert_param(IS_GPIO_PULL(GPIO_Init->Pull));

        /* Activate the Pull-up or Pull down resistor for the current IO */
        temp = GPIOx->PUPDR;
 8004d4e:	687b      	ldr	r3, [r7, #4]
 8004d50:	68db      	ldr	r3, [r3, #12]
 8004d52:	613b      	str	r3, [r7, #16]
        temp &= ~(GPIO_PUPDR_PUPD0 << (position * 2u));
 8004d54:	697b      	ldr	r3, [r7, #20]
 8004d56:	005b      	lsls	r3, r3, #1
 8004d58:	2203      	movs	r2, #3
 8004d5a:	409a      	lsls	r2, r3
 8004d5c:	0013      	movs	r3, r2
 8004d5e:	43da      	mvns	r2, r3
 8004d60:	693b      	ldr	r3, [r7, #16]
 8004d62:	4013      	ands	r3, r2
 8004d64:	613b      	str	r3, [r7, #16]
        temp |= ((GPIO_Init->Pull) << (position * 2u));
 8004d66:	683b      	ldr	r3, [r7, #0]
 8004d68:	689a      	ldr	r2, [r3, #8]
 8004d6a:	697b      	ldr	r3, [r7, #20]
 8004d6c:	005b      	lsls	r3, r3, #1
 8004d6e:	409a      	lsls	r2, r3
 8004d70:	0013      	movs	r3, r2
 8004d72:	693a      	ldr	r2, [r7, #16]
 8004d74:	4313      	orrs	r3, r2
 8004d76:	613b      	str	r3, [r7, #16]
        GPIOx->PUPDR = temp;
 8004d78:	687b      	ldr	r3, [r7, #4]
 8004d7a:	693a      	ldr	r2, [r7, #16]
 8004d7c:	60da      	str	r2, [r3, #12]
      }

      /* In case of Alternate function mode selection */
      if ((GPIO_Init->Mode & GPIO_MODE) == MODE_AF)
 8004d7e:	683b      	ldr	r3, [r7, #0]
 8004d80:	685b      	ldr	r3, [r3, #4]
 8004d82:	2203      	movs	r2, #3
 8004d84:	4013      	ands	r3, r2
 8004d86:	2b02      	cmp	r3, #2
 8004d88:	d123      	bne.n	8004dd2 <HAL_GPIO_Init+0x132>
        /* Check the Alternate function parameters */
        assert_param(IS_GPIO_AF_INSTANCE(GPIOx));
        assert_param(IS_GPIO_AF(GPIO_Init->Alternate));

        /* Configure Alternate function mapped with the current IO */
        temp = GPIOx->AFR[position >> 3u];
 8004d8a:	697b      	ldr	r3, [r7, #20]
 8004d8c:	08da      	lsrs	r2, r3, #3
 8004d8e:	687b      	ldr	r3, [r7, #4]
 8004d90:	3208      	adds	r2, #8
 8004d92:	0092      	lsls	r2, r2, #2
 8004d94:	58d3      	ldr	r3, [r2, r3]
 8004d96:	613b      	str	r3, [r7, #16]
        temp &= ~(0xFu << ((position & 0x07u) * 4u));
 8004d98:	697b      	ldr	r3, [r7, #20]
 8004d9a:	2207      	movs	r2, #7
 8004d9c:	4013      	ands	r3, r2
 8004d9e:	009b      	lsls	r3, r3, #2
 8004da0:	220f      	movs	r2, #15
 8004da2:	409a      	lsls	r2, r3
 8004da4:	0013      	movs	r3, r2
 8004da6:	43da      	mvns	r2, r3
 8004da8:	693b      	ldr	r3, [r7, #16]
 8004daa:	4013      	ands	r3, r2
 8004dac:	613b      	str	r3, [r7, #16]
        temp |= ((GPIO_Init->Alternate) << ((position & 0x07u) * 4u));
 8004dae:	683b      	ldr	r3, [r7, #0]
 8004db0:	691a      	ldr	r2, [r3, #16]
 8004db2:	697b      	ldr	r3, [r7, #20]
 8004db4:	2107      	movs	r1, #7
 8004db6:	400b      	ands	r3, r1
 8004db8:	009b      	lsls	r3, r3, #2
 8004dba:	409a      	lsls	r2, r3
 8004dbc:	0013      	movs	r3, r2
 8004dbe:	693a      	ldr	r2, [r7, #16]
 8004dc0:	4313      	orrs	r3, r2
 8004dc2:	613b      	str	r3, [r7, #16]
        GPIOx->AFR[position >> 3u] = temp;
 8004dc4:	697b      	ldr	r3, [r7, #20]
 8004dc6:	08da      	lsrs	r2, r3, #3
 8004dc8:	687b      	ldr	r3, [r7, #4]
 8004dca:	3208      	adds	r2, #8
 8004dcc:	0092      	lsls	r2, r2, #2
 8004dce:	6939      	ldr	r1, [r7, #16]
 8004dd0:	50d1      	str	r1, [r2, r3]
      }

      /* Configure IO Direction mode (Input, Output, Alternate or Analog) */
      temp = GPIOx->MODER;
 8004dd2:	687b      	ldr	r3, [r7, #4]
 8004dd4:	681b      	ldr	r3, [r3, #0]
 8004dd6:	613b      	str	r3, [r7, #16]
      temp &= ~(GPIO_MODER_MODE0 << (position * 2u));
 8004dd8:	697b      	ldr	r3, [r7, #20]
 8004dda:	005b      	lsls	r3, r3, #1
 8004ddc:	2203      	movs	r2, #3
 8004dde:	409a      	lsls	r2, r3
 8004de0:	0013      	movs	r3, r2
 8004de2:	43da      	mvns	r2, r3
 8004de4:	693b      	ldr	r3, [r7, #16]
 8004de6:	4013      	ands	r3, r2
 8004de8:	613b      	str	r3, [r7, #16]
      temp |= ((GPIO_Init->Mode & GPIO_MODE) << (position * 2u));
 8004dea:	683b      	ldr	r3, [r7, #0]
 8004dec:	685b      	ldr	r3, [r3, #4]
 8004dee:	2203      	movs	r2, #3
 8004df0:	401a      	ands	r2, r3
 8004df2:	697b      	ldr	r3, [r7, #20]
 8004df4:	005b      	lsls	r3, r3, #1
 8004df6:	409a      	lsls	r2, r3
 8004df8:	0013      	movs	r3, r2
 8004dfa:	693a      	ldr	r2, [r7, #16]
 8004dfc:	4313      	orrs	r3, r2
 8004dfe:	613b      	str	r3, [r7, #16]
      GPIOx->MODER = temp;
 8004e00:	687b      	ldr	r3, [r7, #4]
 8004e02:	693a      	ldr	r2, [r7, #16]
 8004e04:	601a      	str	r2, [r3, #0]

      /*--------------------- EXTI Mode Configuration ------------------------*/
      /* Configure the External Interrupt or event for the current IO */
      if ((GPIO_Init->Mode & EXTI_MODE) != 0x00u)
 8004e06:	683b      	ldr	r3, [r7, #0]
 8004e08:	685a      	ldr	r2, [r3, #4]
 8004e0a:	23c0      	movs	r3, #192	; 0xc0
 8004e0c:	029b      	lsls	r3, r3, #10
 8004e0e:	4013      	ands	r3, r2
 8004e10:	d100      	bne.n	8004e14 <HAL_GPIO_Init+0x174>
 8004e12:	e092      	b.n	8004f3a <HAL_GPIO_Init+0x29a>
      {
        temp = EXTI->EXTICR[position >> 2u];
 8004e14:	4a50      	ldr	r2, [pc, #320]	; (8004f58 <HAL_GPIO_Init+0x2b8>)
 8004e16:	697b      	ldr	r3, [r7, #20]
 8004e18:	089b      	lsrs	r3, r3, #2
 8004e1a:	3318      	adds	r3, #24
 8004e1c:	009b      	lsls	r3, r3, #2
 8004e1e:	589b      	ldr	r3, [r3, r2]
 8004e20:	613b      	str	r3, [r7, #16]
        temp &= ~(0x0FuL << (8u * (position & 0x03u)));
 8004e22:	697b      	ldr	r3, [r7, #20]
 8004e24:	2203      	movs	r2, #3
 8004e26:	4013      	ands	r3, r2
 8004e28:	00db      	lsls	r3, r3, #3
 8004e2a:	220f      	movs	r2, #15
 8004e2c:	409a      	lsls	r2, r3
 8004e2e:	0013      	movs	r3, r2
 8004e30:	43da      	mvns	r2, r3
 8004e32:	693b      	ldr	r3, [r7, #16]
 8004e34:	4013      	ands	r3, r2
 8004e36:	613b      	str	r3, [r7, #16]
        temp |= (GPIO_GET_INDEX(GPIOx) << (8u * (position & 0x03u)));
 8004e38:	687a      	ldr	r2, [r7, #4]
 8004e3a:	23a0      	movs	r3, #160	; 0xa0
 8004e3c:	05db      	lsls	r3, r3, #23
 8004e3e:	429a      	cmp	r2, r3
 8004e40:	d013      	beq.n	8004e6a <HAL_GPIO_Init+0x1ca>
 8004e42:	687b      	ldr	r3, [r7, #4]
 8004e44:	4a45      	ldr	r2, [pc, #276]	; (8004f5c <HAL_GPIO_Init+0x2bc>)
 8004e46:	4293      	cmp	r3, r2
 8004e48:	d00d      	beq.n	8004e66 <HAL_GPIO_Init+0x1c6>
 8004e4a:	687b      	ldr	r3, [r7, #4]
 8004e4c:	4a44      	ldr	r2, [pc, #272]	; (8004f60 <HAL_GPIO_Init+0x2c0>)
 8004e4e:	4293      	cmp	r3, r2
 8004e50:	d007      	beq.n	8004e62 <HAL_GPIO_Init+0x1c2>
 8004e52:	687b      	ldr	r3, [r7, #4]
 8004e54:	4a43      	ldr	r2, [pc, #268]	; (8004f64 <HAL_GPIO_Init+0x2c4>)
 8004e56:	4293      	cmp	r3, r2
 8004e58:	d101      	bne.n	8004e5e <HAL_GPIO_Init+0x1be>
 8004e5a:	2303      	movs	r3, #3
 8004e5c:	e006      	b.n	8004e6c <HAL_GPIO_Init+0x1cc>
 8004e5e:	2305      	movs	r3, #5
 8004e60:	e004      	b.n	8004e6c <HAL_GPIO_Init+0x1cc>
 8004e62:	2302      	movs	r3, #2
 8004e64:	e002      	b.n	8004e6c <HAL_GPIO_Init+0x1cc>
 8004e66:	2301      	movs	r3, #1
 8004e68:	e000      	b.n	8004e6c <HAL_GPIO_Init+0x1cc>
 8004e6a:	2300      	movs	r3, #0
 8004e6c:	697a      	ldr	r2, [r7, #20]
 8004e6e:	2103      	movs	r1, #3
 8004e70:	400a      	ands	r2, r1
 8004e72:	00d2      	lsls	r2, r2, #3
 8004e74:	4093      	lsls	r3, r2
 8004e76:	693a      	ldr	r2, [r7, #16]
 8004e78:	4313      	orrs	r3, r2
 8004e7a:	613b      	str	r3, [r7, #16]
        EXTI->EXTICR[position >> 2u] = temp;
 8004e7c:	4936      	ldr	r1, [pc, #216]	; (8004f58 <HAL_GPIO_Init+0x2b8>)
 8004e7e:	697b      	ldr	r3, [r7, #20]
 8004e80:	089b      	lsrs	r3, r3, #2
 8004e82:	3318      	adds	r3, #24
 8004e84:	009b      	lsls	r3, r3, #2
 8004e86:	693a      	ldr	r2, [r7, #16]
 8004e88:	505a      	str	r2, [r3, r1]

        /* Clear Rising Falling edge configuration */
        temp = EXTI->RTSR1;
 8004e8a:	4b33      	ldr	r3, [pc, #204]	; (8004f58 <HAL_GPIO_Init+0x2b8>)
 8004e8c:	681b      	ldr	r3, [r3, #0]
 8004e8e:	613b      	str	r3, [r7, #16]
        temp &= ~(iocurrent);
 8004e90:	68fb      	ldr	r3, [r7, #12]
 8004e92:	43da      	mvns	r2, r3
 8004e94:	693b      	ldr	r3, [r7, #16]
 8004e96:	4013      	ands	r3, r2
 8004e98:	613b      	str	r3, [r7, #16]
        if ((GPIO_Init->Mode & TRIGGER_RISING) != 0x00u)
 8004e9a:	683b      	ldr	r3, [r7, #0]
 8004e9c:	685a      	ldr	r2, [r3, #4]
 8004e9e:	2380      	movs	r3, #128	; 0x80
 8004ea0:	035b      	lsls	r3, r3, #13
 8004ea2:	4013      	ands	r3, r2
 8004ea4:	d003      	beq.n	8004eae <HAL_GPIO_Init+0x20e>
        {
          temp |= iocurrent;
 8004ea6:	693a      	ldr	r2, [r7, #16]
 8004ea8:	68fb      	ldr	r3, [r7, #12]
 8004eaa:	4313      	orrs	r3, r2
 8004eac:	613b      	str	r3, [r7, #16]
        }
        EXTI->RTSR1 = temp;
 8004eae:	4b2a      	ldr	r3, [pc, #168]	; (8004f58 <HAL_GPIO_Init+0x2b8>)
 8004eb0:	693a      	ldr	r2, [r7, #16]
 8004eb2:	601a      	str	r2, [r3, #0]

        temp = EXTI->FTSR1;
 8004eb4:	4b28      	ldr	r3, [pc, #160]	; (8004f58 <HAL_GPIO_Init+0x2b8>)
 8004eb6:	685b      	ldr	r3, [r3, #4]
 8004eb8:	613b      	str	r3, [r7, #16]
        temp &= ~(iocurrent);
 8004eba:	68fb      	ldr	r3, [r7, #12]
 8004ebc:	43da      	mvns	r2, r3
 8004ebe:	693b      	ldr	r3, [r7, #16]
 8004ec0:	4013      	ands	r3, r2
 8004ec2:	613b      	str	r3, [r7, #16]
        if ((GPIO_Init->Mode & TRIGGER_FALLING) != 0x00u)
 8004ec4:	683b      	ldr	r3, [r7, #0]
 8004ec6:	685a      	ldr	r2, [r3, #4]
 8004ec8:	2380      	movs	r3, #128	; 0x80
 8004eca:	039b      	lsls	r3, r3, #14
 8004ecc:	4013      	ands	r3, r2
 8004ece:	d003      	beq.n	8004ed8 <HAL_GPIO_Init+0x238>
        {
          temp |= iocurrent;
 8004ed0:	693a      	ldr	r2, [r7, #16]
 8004ed2:	68fb      	ldr	r3, [r7, #12]
 8004ed4:	4313      	orrs	r3, r2
 8004ed6:	613b      	str	r3, [r7, #16]
        }
        EXTI->FTSR1 = temp;
 8004ed8:	4b1f      	ldr	r3, [pc, #124]	; (8004f58 <HAL_GPIO_Init+0x2b8>)
 8004eda:	693a      	ldr	r2, [r7, #16]
 8004edc:	605a      	str	r2, [r3, #4]

        /* Clear EXTI line configuration */
        temp = EXTI->EMR1;
 8004ede:	4a1e      	ldr	r2, [pc, #120]	; (8004f58 <HAL_GPIO_Init+0x2b8>)
 8004ee0:	2384      	movs	r3, #132	; 0x84
 8004ee2:	58d3      	ldr	r3, [r2, r3]
 8004ee4:	613b      	str	r3, [r7, #16]
        temp &= ~(iocurrent);
 8004ee6:	68fb      	ldr	r3, [r7, #12]
 8004ee8:	43da      	mvns	r2, r3
 8004eea:	693b      	ldr	r3, [r7, #16]
 8004eec:	4013      	ands	r3, r2
 8004eee:	613b      	str	r3, [r7, #16]
        if ((GPIO_Init->Mode & EXTI_EVT) != 0x00u)
 8004ef0:	683b      	ldr	r3, [r7, #0]
 8004ef2:	685a      	ldr	r2, [r3, #4]
 8004ef4:	2380      	movs	r3, #128	; 0x80
 8004ef6:	029b      	lsls	r3, r3, #10
 8004ef8:	4013      	ands	r3, r2
 8004efa:	d003      	beq.n	8004f04 <HAL_GPIO_Init+0x264>
        {
          temp |= iocurrent;
 8004efc:	693a      	ldr	r2, [r7, #16]
 8004efe:	68fb      	ldr	r3, [r7, #12]
 8004f00:	4313      	orrs	r3, r2
 8004f02:	613b      	str	r3, [r7, #16]
        }
        EXTI->EMR1 = temp;
 8004f04:	4914      	ldr	r1, [pc, #80]	; (8004f58 <HAL_GPIO_Init+0x2b8>)
 8004f06:	2284      	movs	r2, #132	; 0x84
 8004f08:	693b      	ldr	r3, [r7, #16]
 8004f0a:	508b      	str	r3, [r1, r2]

        temp = EXTI->IMR1;
 8004f0c:	4a12      	ldr	r2, [pc, #72]	; (8004f58 <HAL_GPIO_Init+0x2b8>)
 8004f0e:	2380      	movs	r3, #128	; 0x80
 8004f10:	58d3      	ldr	r3, [r2, r3]
 8004f12:	613b      	str	r3, [r7, #16]
        temp &= ~(iocurrent);
 8004f14:	68fb      	ldr	r3, [r7, #12]
 8004f16:	43da      	mvns	r2, r3
 8004f18:	693b      	ldr	r3, [r7, #16]
 8004f1a:	4013      	ands	r3, r2
 8004f1c:	613b      	str	r3, [r7, #16]
        if ((GPIO_Init->Mode & EXTI_IT) != 0x00u)
 8004f1e:	683b      	ldr	r3, [r7, #0]
 8004f20:	685a      	ldr	r2, [r3, #4]
 8004f22:	2380      	movs	r3, #128	; 0x80
 8004f24:	025b      	lsls	r3, r3, #9
 8004f26:	4013      	ands	r3, r2
 8004f28:	d003      	beq.n	8004f32 <HAL_GPIO_Init+0x292>
        {
          temp |= iocurrent;
 8004f2a:	693a      	ldr	r2, [r7, #16]
 8004f2c:	68fb      	ldr	r3, [r7, #12]
 8004f2e:	4313      	orrs	r3, r2
 8004f30:	613b      	str	r3, [r7, #16]
        }
        EXTI->IMR1 = temp;
 8004f32:	4909      	ldr	r1, [pc, #36]	; (8004f58 <HAL_GPIO_Init+0x2b8>)
 8004f34:	2280      	movs	r2, #128	; 0x80
 8004f36:	693b      	ldr	r3, [r7, #16]
 8004f38:	508b      	str	r3, [r1, r2]
      }
    }

    position++;
 8004f3a:	697b      	ldr	r3, [r7, #20]
 8004f3c:	3301      	adds	r3, #1
 8004f3e:	617b      	str	r3, [r7, #20]
  while (((GPIO_Init->Pin) >> position) != 0x00u)
 8004f40:	683b      	ldr	r3, [r7, #0]
 8004f42:	681a      	ldr	r2, [r3, #0]
 8004f44:	697b      	ldr	r3, [r7, #20]
 8004f46:	40da      	lsrs	r2, r3
 8004f48:	1e13      	subs	r3, r2, #0
 8004f4a:	d000      	beq.n	8004f4e <HAL_GPIO_Init+0x2ae>
 8004f4c:	e6b0      	b.n	8004cb0 <HAL_GPIO_Init+0x10>
  }
}
 8004f4e:	46c0      	nop			; (mov r8, r8)
 8004f50:	46c0      	nop			; (mov r8, r8)
 8004f52:	46bd      	mov	sp, r7
 8004f54:	b006      	add	sp, #24
 8004f56:	bd80      	pop	{r7, pc}
 8004f58:	40021800 	.word	0x40021800
 8004f5c:	50000400 	.word	0x50000400
 8004f60:	50000800 	.word	0x50000800
 8004f64:	50000c00 	.word	0x50000c00

08004f68 <HAL_GPIO_WritePin>:
  *            @arg GPIO_PIN_RESET: to clear the port pin
  *            @arg GPIO_PIN_SET: to set the port pin
  * @retval None
  */
void HAL_GPIO_WritePin(GPIO_TypeDef *GPIOx, uint16_t GPIO_Pin, GPIO_PinState PinState)
{
 8004f68:	b580      	push	{r7, lr}
 8004f6a:	b082      	sub	sp, #8
 8004f6c:	af00      	add	r7, sp, #0
 8004f6e:	6078      	str	r0, [r7, #4]
 8004f70:	0008      	movs	r0, r1
 8004f72:	0011      	movs	r1, r2
 8004f74:	1cbb      	adds	r3, r7, #2
 8004f76:	1c02      	adds	r2, r0, #0
 8004f78:	801a      	strh	r2, [r3, #0]
 8004f7a:	1c7b      	adds	r3, r7, #1
 8004f7c:	1c0a      	adds	r2, r1, #0
 8004f7e:	701a      	strb	r2, [r3, #0]
  /* Check the parameters */
  assert_param(IS_GPIO_PIN(GPIO_Pin));
  assert_param(IS_GPIO_PIN_ACTION(PinState));

  if (PinState != GPIO_PIN_RESET)
 8004f80:	1c7b      	adds	r3, r7, #1
 8004f82:	781b      	ldrb	r3, [r3, #0]
 8004f84:	2b00      	cmp	r3, #0
 8004f86:	d004      	beq.n	8004f92 <HAL_GPIO_WritePin+0x2a>
  {
    GPIOx->BSRR = (uint32_t)GPIO_Pin;
 8004f88:	1cbb      	adds	r3, r7, #2
 8004f8a:	881a      	ldrh	r2, [r3, #0]
 8004f8c:	687b      	ldr	r3, [r7, #4]
 8004f8e:	619a      	str	r2, [r3, #24]
  }
  else
  {
    GPIOx->BRR = (uint32_t)GPIO_Pin;
  }
}
 8004f90:	e003      	b.n	8004f9a <HAL_GPIO_WritePin+0x32>
    GPIOx->BRR = (uint32_t)GPIO_Pin;
 8004f92:	1cbb      	adds	r3, r7, #2
 8004f94:	881a      	ldrh	r2, [r3, #0]
 8004f96:	687b      	ldr	r3, [r7, #4]
 8004f98:	629a      	str	r2, [r3, #40]	; 0x28
}
 8004f9a:	46c0      	nop			; (mov r8, r8)
 8004f9c:	46bd      	mov	sp, r7
 8004f9e:	b002      	add	sp, #8
 8004fa0:	bd80      	pop	{r7, pc}
	...

08004fa4 <HAL_PWREx_ControlVoltageScaling>:
  *        cleared before returning the status. If the flag is not cleared within
  *        6 microseconds, HAL_TIMEOUT status is reported.
  * @retval HAL Status
  */
HAL_StatusTypeDef HAL_PWREx_ControlVoltageScaling(uint32_t VoltageScaling)
{
 8004fa4:	b580      	push	{r7, lr}
 8004fa6:	b084      	sub	sp, #16
 8004fa8:	af00      	add	r7, sp, #0
 8004faa:	6078      	str	r0, [r7, #4]
  uint32_t wait_loop_index;

  assert_param(IS_PWR_VOLTAGE_SCALING_RANGE(VoltageScaling));

  /* Modify voltage scaling range */
  MODIFY_REG(PWR->CR1, PWR_CR1_VOS, VoltageScaling);
 8004fac:	4b19      	ldr	r3, [pc, #100]	; (8005014 <HAL_PWREx_ControlVoltageScaling+0x70>)
 8004fae:	681b      	ldr	r3, [r3, #0]
 8004fb0:	4a19      	ldr	r2, [pc, #100]	; (8005018 <HAL_PWREx_ControlVoltageScaling+0x74>)
 8004fb2:	4013      	ands	r3, r2
 8004fb4:	0019      	movs	r1, r3
 8004fb6:	4b17      	ldr	r3, [pc, #92]	; (8005014 <HAL_PWREx_ControlVoltageScaling+0x70>)
 8004fb8:	687a      	ldr	r2, [r7, #4]
 8004fba:	430a      	orrs	r2, r1
 8004fbc:	601a      	str	r2, [r3, #0]

  /* In case of Range 1 selected, we need to ensure that main regulator reaches new value */
  if (VoltageScaling == PWR_REGULATOR_VOLTAGE_SCALE1)
 8004fbe:	687a      	ldr	r2, [r7, #4]
 8004fc0:	2380      	movs	r3, #128	; 0x80
 8004fc2:	009b      	lsls	r3, r3, #2
 8004fc4:	429a      	cmp	r2, r3
 8004fc6:	d11f      	bne.n	8005008 <HAL_PWREx_ControlVoltageScaling+0x64>
  {
    /* Set timeout value */
    wait_loop_index = ((PWR_VOSF_SETTING_DELAY_6_US * SystemCoreClock) / 1000000U) + 1U;
 8004fc8:	4b14      	ldr	r3, [pc, #80]	; (800501c <HAL_PWREx_ControlVoltageScaling+0x78>)
 8004fca:	681a      	ldr	r2, [r3, #0]
 8004fcc:	0013      	movs	r3, r2
 8004fce:	005b      	lsls	r3, r3, #1
 8004fd0:	189b      	adds	r3, r3, r2
 8004fd2:	005b      	lsls	r3, r3, #1
 8004fd4:	4912      	ldr	r1, [pc, #72]	; (8005020 <HAL_PWREx_ControlVoltageScaling+0x7c>)
 8004fd6:	0018      	movs	r0, r3
 8004fd8:	f7fb f8b0 	bl	800013c <__udivsi3>
 8004fdc:	0003      	movs	r3, r0
 8004fde:	3301      	adds	r3, #1
 8004fe0:	60fb      	str	r3, [r7, #12]

    /* Wait until VOSF is reset */
    while (HAL_IS_BIT_SET(PWR->SR2, PWR_SR2_VOSF))
 8004fe2:	e008      	b.n	8004ff6 <HAL_PWREx_ControlVoltageScaling+0x52>
    {
      if (wait_loop_index != 0U)
 8004fe4:	68fb      	ldr	r3, [r7, #12]
 8004fe6:	2b00      	cmp	r3, #0
 8004fe8:	d003      	beq.n	8004ff2 <HAL_PWREx_ControlVoltageScaling+0x4e>
      {
        wait_loop_index--;
 8004fea:	68fb      	ldr	r3, [r7, #12]
 8004fec:	3b01      	subs	r3, #1
 8004fee:	60fb      	str	r3, [r7, #12]
 8004ff0:	e001      	b.n	8004ff6 <HAL_PWREx_ControlVoltageScaling+0x52>
      }
      else
      {
        return HAL_TIMEOUT;
 8004ff2:	2303      	movs	r3, #3
 8004ff4:	e009      	b.n	800500a <HAL_PWREx_ControlVoltageScaling+0x66>
    while (HAL_IS_BIT_SET(PWR->SR2, PWR_SR2_VOSF))
 8004ff6:	4b07      	ldr	r3, [pc, #28]	; (8005014 <HAL_PWREx_ControlVoltageScaling+0x70>)
 8004ff8:	695a      	ldr	r2, [r3, #20]
 8004ffa:	2380      	movs	r3, #128	; 0x80
 8004ffc:	00db      	lsls	r3, r3, #3
 8004ffe:	401a      	ands	r2, r3
 8005000:	2380      	movs	r3, #128	; 0x80
 8005002:	00db      	lsls	r3, r3, #3
 8005004:	429a      	cmp	r2, r3
 8005006:	d0ed      	beq.n	8004fe4 <HAL_PWREx_ControlVoltageScaling+0x40>
      }
    }
  }

  return HAL_OK;
 8005008:	2300      	movs	r3, #0
}
 800500a:	0018      	movs	r0, r3
 800500c:	46bd      	mov	sp, r7
 800500e:	b004      	add	sp, #16
 8005010:	bd80      	pop	{r7, pc}
 8005012:	46c0      	nop			; (mov r8, r8)
 8005014:	40007000 	.word	0x40007000
 8005018:	fffff9ff 	.word	0xfffff9ff
 800501c:	20000000 	.word	0x20000000
 8005020:	000f4240 	.word	0x000f4240

08005024 <HAL_RCC_OscConfig>:
  *         supported by this function. User should request a transition to LSE Off
  *         first and then to LSE On or LSE Bypass.
  * @retval HAL status
  */
HAL_StatusTypeDef HAL_RCC_OscConfig(RCC_OscInitTypeDef  *RCC_OscInitStruct)
{
 8005024:	b580      	push	{r7, lr}
 8005026:	b088      	sub	sp, #32
 8005028:	af00      	add	r7, sp, #0
 800502a:	6078      	str	r0, [r7, #4]
  uint32_t tickstart;
  uint32_t temp_sysclksrc;
  uint32_t temp_pllckcfg;

  /* Check Null pointer */
  if (RCC_OscInitStruct == NULL)
 800502c:	687b      	ldr	r3, [r7, #4]
 800502e:	2b00      	cmp	r3, #0
 8005030:	d101      	bne.n	8005036 <HAL_RCC_OscConfig+0x12>
  {
    return HAL_ERROR;
 8005032:	2301      	movs	r3, #1
 8005034:	e2fe      	b.n	8005634 <HAL_RCC_OscConfig+0x610>

  /* Check the parameters */
  assert_param(IS_RCC_OSCILLATORTYPE(RCC_OscInitStruct->OscillatorType));

  /*------------------------------- HSE Configuration ------------------------*/
  if (((RCC_OscInitStruct->OscillatorType) & RCC_OSCILLATORTYPE_HSE) == RCC_OSCILLATORTYPE_HSE)
 8005036:	687b      	ldr	r3, [r7, #4]
 8005038:	681b      	ldr	r3, [r3, #0]
 800503a:	2201      	movs	r2, #1
 800503c:	4013      	ands	r3, r2
 800503e:	d100      	bne.n	8005042 <HAL_RCC_OscConfig+0x1e>
 8005040:	e07c      	b.n	800513c <HAL_RCC_OscConfig+0x118>
  {
    /* Check the parameters */
    assert_param(IS_RCC_HSE(RCC_OscInitStruct->HSEState));

    temp_sysclksrc = __HAL_RCC_GET_SYSCLK_SOURCE();
 8005042:	4bc3      	ldr	r3, [pc, #780]	; (8005350 <HAL_RCC_OscConfig+0x32c>)
 8005044:	689b      	ldr	r3, [r3, #8]
 8005046:	2238      	movs	r2, #56	; 0x38
 8005048:	4013      	ands	r3, r2
 800504a:	61bb      	str	r3, [r7, #24]
    temp_pllckcfg = __HAL_RCC_GET_PLL_OSCSOURCE();
 800504c:	4bc0      	ldr	r3, [pc, #768]	; (8005350 <HAL_RCC_OscConfig+0x32c>)
 800504e:	68db      	ldr	r3, [r3, #12]
 8005050:	2203      	movs	r2, #3
 8005052:	4013      	ands	r3, r2
 8005054:	617b      	str	r3, [r7, #20]

    /* When the HSE is used as system clock or clock source for PLL in these cases it is not allowed to be disabled */
    if (((temp_sysclksrc == RCC_SYSCLKSOURCE_STATUS_PLLCLK) && (temp_pllckcfg == RCC_PLLSOURCE_HSE))
 8005056:	69bb      	ldr	r3, [r7, #24]
 8005058:	2b10      	cmp	r3, #16
 800505a:	d102      	bne.n	8005062 <HAL_RCC_OscConfig+0x3e>
 800505c:	697b      	ldr	r3, [r7, #20]
 800505e:	2b03      	cmp	r3, #3
 8005060:	d002      	beq.n	8005068 <HAL_RCC_OscConfig+0x44>
        || (temp_sysclksrc == RCC_SYSCLKSOURCE_STATUS_HSE))
 8005062:	69bb      	ldr	r3, [r7, #24]
 8005064:	2b08      	cmp	r3, #8
 8005066:	d10b      	bne.n	8005080 <HAL_RCC_OscConfig+0x5c>
    {
      if ((READ_BIT(RCC->CR, RCC_CR_HSERDY) != 0U) && (RCC_OscInitStruct->HSEState == RCC_HSE_OFF))
 8005068:	4bb9      	ldr	r3, [pc, #740]	; (8005350 <HAL_RCC_OscConfig+0x32c>)
 800506a:	681a      	ldr	r2, [r3, #0]
 800506c:	2380      	movs	r3, #128	; 0x80
 800506e:	029b      	lsls	r3, r3, #10
 8005070:	4013      	ands	r3, r2
 8005072:	d062      	beq.n	800513a <HAL_RCC_OscConfig+0x116>
 8005074:	687b      	ldr	r3, [r7, #4]
 8005076:	685b      	ldr	r3, [r3, #4]
 8005078:	2b00      	cmp	r3, #0
 800507a:	d15e      	bne.n	800513a <HAL_RCC_OscConfig+0x116>
      {
        return HAL_ERROR;
 800507c:	2301      	movs	r3, #1
 800507e:	e2d9      	b.n	8005634 <HAL_RCC_OscConfig+0x610>
      }
    }
    else
    {
      /* Set the new HSE configuration ---------------------------------------*/
      __HAL_RCC_HSE_CONFIG(RCC_OscInitStruct->HSEState);
 8005080:	687b      	ldr	r3, [r7, #4]
 8005082:	685a      	ldr	r2, [r3, #4]
 8005084:	2380      	movs	r3, #128	; 0x80
 8005086:	025b      	lsls	r3, r3, #9
 8005088:	429a      	cmp	r2, r3
 800508a:	d107      	bne.n	800509c <HAL_RCC_OscConfig+0x78>
 800508c:	4bb0      	ldr	r3, [pc, #704]	; (8005350 <HAL_RCC_OscConfig+0x32c>)
 800508e:	681a      	ldr	r2, [r3, #0]
 8005090:	4baf      	ldr	r3, [pc, #700]	; (8005350 <HAL_RCC_OscConfig+0x32c>)
 8005092:	2180      	movs	r1, #128	; 0x80
 8005094:	0249      	lsls	r1, r1, #9
 8005096:	430a      	orrs	r2, r1
 8005098:	601a      	str	r2, [r3, #0]
 800509a:	e020      	b.n	80050de <HAL_RCC_OscConfig+0xba>
 800509c:	687b      	ldr	r3, [r7, #4]
 800509e:	685a      	ldr	r2, [r3, #4]
 80050a0:	23a0      	movs	r3, #160	; 0xa0
 80050a2:	02db      	lsls	r3, r3, #11
 80050a4:	429a      	cmp	r2, r3
 80050a6:	d10e      	bne.n	80050c6 <HAL_RCC_OscConfig+0xa2>
 80050a8:	4ba9      	ldr	r3, [pc, #676]	; (8005350 <HAL_RCC_OscConfig+0x32c>)
 80050aa:	681a      	ldr	r2, [r3, #0]
 80050ac:	4ba8      	ldr	r3, [pc, #672]	; (8005350 <HAL_RCC_OscConfig+0x32c>)
 80050ae:	2180      	movs	r1, #128	; 0x80
 80050b0:	02c9      	lsls	r1, r1, #11
 80050b2:	430a      	orrs	r2, r1
 80050b4:	601a      	str	r2, [r3, #0]
 80050b6:	4ba6      	ldr	r3, [pc, #664]	; (8005350 <HAL_RCC_OscConfig+0x32c>)
 80050b8:	681a      	ldr	r2, [r3, #0]
 80050ba:	4ba5      	ldr	r3, [pc, #660]	; (8005350 <HAL_RCC_OscConfig+0x32c>)
 80050bc:	2180      	movs	r1, #128	; 0x80
 80050be:	0249      	lsls	r1, r1, #9
 80050c0:	430a      	orrs	r2, r1
 80050c2:	601a      	str	r2, [r3, #0]
 80050c4:	e00b      	b.n	80050de <HAL_RCC_OscConfig+0xba>
 80050c6:	4ba2      	ldr	r3, [pc, #648]	; (8005350 <HAL_RCC_OscConfig+0x32c>)
 80050c8:	681a      	ldr	r2, [r3, #0]
 80050ca:	4ba1      	ldr	r3, [pc, #644]	; (8005350 <HAL_RCC_OscConfig+0x32c>)
 80050cc:	49a1      	ldr	r1, [pc, #644]	; (8005354 <HAL_RCC_OscConfig+0x330>)
 80050ce:	400a      	ands	r2, r1
 80050d0:	601a      	str	r2, [r3, #0]
 80050d2:	4b9f      	ldr	r3, [pc, #636]	; (8005350 <HAL_RCC_OscConfig+0x32c>)
 80050d4:	681a      	ldr	r2, [r3, #0]
 80050d6:	4b9e      	ldr	r3, [pc, #632]	; (8005350 <HAL_RCC_OscConfig+0x32c>)
 80050d8:	499f      	ldr	r1, [pc, #636]	; (8005358 <HAL_RCC_OscConfig+0x334>)
 80050da:	400a      	ands	r2, r1
 80050dc:	601a      	str	r2, [r3, #0]

      /* Check the HSE State */
      if (RCC_OscInitStruct->HSEState != RCC_HSE_OFF)
 80050de:	687b      	ldr	r3, [r7, #4]
 80050e0:	685b      	ldr	r3, [r3, #4]
 80050e2:	2b00      	cmp	r3, #0
 80050e4:	d014      	beq.n	8005110 <HAL_RCC_OscConfig+0xec>
      {
        /* Get Start Tick*/
        tickstart = HAL_GetTick();
 80050e6:	f7ff fcf9 	bl	8004adc <HAL_GetTick>
 80050ea:	0003      	movs	r3, r0
 80050ec:	613b      	str	r3, [r7, #16]

        /* Wait till HSE is ready */
        while (READ_BIT(RCC->CR, RCC_CR_HSERDY) == 0U)
 80050ee:	e008      	b.n	8005102 <HAL_RCC_OscConfig+0xde>
        {
          if ((HAL_GetTick() - tickstart) > HSE_TIMEOUT_VALUE)
 80050f0:	f7ff fcf4 	bl	8004adc <HAL_GetTick>
 80050f4:	0002      	movs	r2, r0
 80050f6:	693b      	ldr	r3, [r7, #16]
 80050f8:	1ad3      	subs	r3, r2, r3
 80050fa:	2b64      	cmp	r3, #100	; 0x64
 80050fc:	d901      	bls.n	8005102 <HAL_RCC_OscConfig+0xde>
          {
            return HAL_TIMEOUT;
 80050fe:	2303      	movs	r3, #3
 8005100:	e298      	b.n	8005634 <HAL_RCC_OscConfig+0x610>
        while (READ_BIT(RCC->CR, RCC_CR_HSERDY) == 0U)
 8005102:	4b93      	ldr	r3, [pc, #588]	; (8005350 <HAL_RCC_OscConfig+0x32c>)
 8005104:	681a      	ldr	r2, [r3, #0]
 8005106:	2380      	movs	r3, #128	; 0x80
 8005108:	029b      	lsls	r3, r3, #10
 800510a:	4013      	ands	r3, r2
 800510c:	d0f0      	beq.n	80050f0 <HAL_RCC_OscConfig+0xcc>
 800510e:	e015      	b.n	800513c <HAL_RCC_OscConfig+0x118>
        }
      }
      else
      {
        /* Get Start Tick*/
        tickstart = HAL_GetTick();
 8005110:	f7ff fce4 	bl	8004adc <HAL_GetTick>
 8005114:	0003      	movs	r3, r0
 8005116:	613b      	str	r3, [r7, #16]

        /* Wait till HSE is disabled */
        while (READ_BIT(RCC->CR, RCC_CR_HSERDY) != 0U)
 8005118:	e008      	b.n	800512c <HAL_RCC_OscConfig+0x108>
        {
          if ((HAL_GetTick() - tickstart) > HSE_TIMEOUT_VALUE)
 800511a:	f7ff fcdf 	bl	8004adc <HAL_GetTick>
 800511e:	0002      	movs	r2, r0
 8005120:	693b      	ldr	r3, [r7, #16]
 8005122:	1ad3      	subs	r3, r2, r3
 8005124:	2b64      	cmp	r3, #100	; 0x64
 8005126:	d901      	bls.n	800512c <HAL_RCC_OscConfig+0x108>
          {
            return HAL_TIMEOUT;
 8005128:	2303      	movs	r3, #3
 800512a:	e283      	b.n	8005634 <HAL_RCC_OscConfig+0x610>
        while (READ_BIT(RCC->CR, RCC_CR_HSERDY) != 0U)
 800512c:	4b88      	ldr	r3, [pc, #544]	; (8005350 <HAL_RCC_OscConfig+0x32c>)
 800512e:	681a      	ldr	r2, [r3, #0]
 8005130:	2380      	movs	r3, #128	; 0x80
 8005132:	029b      	lsls	r3, r3, #10
 8005134:	4013      	ands	r3, r2
 8005136:	d1f0      	bne.n	800511a <HAL_RCC_OscConfig+0xf6>
 8005138:	e000      	b.n	800513c <HAL_RCC_OscConfig+0x118>
      if ((READ_BIT(RCC->CR, RCC_CR_HSERDY) != 0U) && (RCC_OscInitStruct->HSEState == RCC_HSE_OFF))
 800513a:	46c0      	nop			; (mov r8, r8)
        }
      }
    }
  }
  /*----------------------------- HSI Configuration --------------------------*/
  if (((RCC_OscInitStruct->OscillatorType) & RCC_OSCILLATORTYPE_HSI) == RCC_OSCILLATORTYPE_HSI)
 800513c:	687b      	ldr	r3, [r7, #4]
 800513e:	681b      	ldr	r3, [r3, #0]
 8005140:	2202      	movs	r2, #2
 8005142:	4013      	ands	r3, r2
 8005144:	d100      	bne.n	8005148 <HAL_RCC_OscConfig+0x124>
 8005146:	e099      	b.n	800527c <HAL_RCC_OscConfig+0x258>
    assert_param(IS_RCC_HSI(RCC_OscInitStruct->HSIState));
    assert_param(IS_RCC_HSI_CALIBRATION_VALUE(RCC_OscInitStruct->HSICalibrationValue));
    assert_param(IS_RCC_HSIDIV(RCC_OscInitStruct->HSIDiv));

    /* Check if HSI16 is used as system clock or as PLL source when PLL is selected as system clock */
    temp_sysclksrc = __HAL_RCC_GET_SYSCLK_SOURCE();
 8005148:	4b81      	ldr	r3, [pc, #516]	; (8005350 <HAL_RCC_OscConfig+0x32c>)
 800514a:	689b      	ldr	r3, [r3, #8]
 800514c:	2238      	movs	r2, #56	; 0x38
 800514e:	4013      	ands	r3, r2
 8005150:	61bb      	str	r3, [r7, #24]
    temp_pllckcfg = __HAL_RCC_GET_PLL_OSCSOURCE();
 8005152:	4b7f      	ldr	r3, [pc, #508]	; (8005350 <HAL_RCC_OscConfig+0x32c>)
 8005154:	68db      	ldr	r3, [r3, #12]
 8005156:	2203      	movs	r2, #3
 8005158:	4013      	ands	r3, r2
 800515a:	617b      	str	r3, [r7, #20]
    if (((temp_sysclksrc == RCC_SYSCLKSOURCE_STATUS_PLLCLK) && (temp_pllckcfg == RCC_PLLSOURCE_HSI))
 800515c:	69bb      	ldr	r3, [r7, #24]
 800515e:	2b10      	cmp	r3, #16
 8005160:	d102      	bne.n	8005168 <HAL_RCC_OscConfig+0x144>
 8005162:	697b      	ldr	r3, [r7, #20]
 8005164:	2b02      	cmp	r3, #2
 8005166:	d002      	beq.n	800516e <HAL_RCC_OscConfig+0x14a>
        || (temp_sysclksrc == RCC_SYSCLKSOURCE_STATUS_HSI))
 8005168:	69bb      	ldr	r3, [r7, #24]
 800516a:	2b00      	cmp	r3, #0
 800516c:	d135      	bne.n	80051da <HAL_RCC_OscConfig+0x1b6>
    {
      /* When HSI is used as system clock or as PLL input clock it can not be disabled */
      if ((READ_BIT(RCC->CR, RCC_CR_HSIRDY) != 0U) && (RCC_OscInitStruct->HSIState == RCC_HSI_OFF))
 800516e:	4b78      	ldr	r3, [pc, #480]	; (8005350 <HAL_RCC_OscConfig+0x32c>)
 8005170:	681a      	ldr	r2, [r3, #0]
 8005172:	2380      	movs	r3, #128	; 0x80
 8005174:	00db      	lsls	r3, r3, #3
 8005176:	4013      	ands	r3, r2
 8005178:	d005      	beq.n	8005186 <HAL_RCC_OscConfig+0x162>
 800517a:	687b      	ldr	r3, [r7, #4]
 800517c:	68db      	ldr	r3, [r3, #12]
 800517e:	2b00      	cmp	r3, #0
 8005180:	d101      	bne.n	8005186 <HAL_RCC_OscConfig+0x162>
      {
        return HAL_ERROR;
 8005182:	2301      	movs	r3, #1
 8005184:	e256      	b.n	8005634 <HAL_RCC_OscConfig+0x610>
      }
      /* Otherwise, just the calibration is allowed */
      else
      {
        /* Adjusts the Internal High Speed oscillator (HSI) calibration value.*/
        __HAL_RCC_HSI_CALIBRATIONVALUE_ADJUST(RCC_OscInitStruct->HSICalibrationValue);
 8005186:	4b72      	ldr	r3, [pc, #456]	; (8005350 <HAL_RCC_OscConfig+0x32c>)
 8005188:	685b      	ldr	r3, [r3, #4]
 800518a:	4a74      	ldr	r2, [pc, #464]	; (800535c <HAL_RCC_OscConfig+0x338>)
 800518c:	4013      	ands	r3, r2
 800518e:	0019      	movs	r1, r3
 8005190:	687b      	ldr	r3, [r7, #4]
 8005192:	695b      	ldr	r3, [r3, #20]
 8005194:	021a      	lsls	r2, r3, #8
 8005196:	4b6e      	ldr	r3, [pc, #440]	; (8005350 <HAL_RCC_OscConfig+0x32c>)
 8005198:	430a      	orrs	r2, r1
 800519a:	605a      	str	r2, [r3, #4]

        if (temp_sysclksrc == RCC_SYSCLKSOURCE_STATUS_HSI)
 800519c:	69bb      	ldr	r3, [r7, #24]
 800519e:	2b00      	cmp	r3, #0
 80051a0:	d112      	bne.n	80051c8 <HAL_RCC_OscConfig+0x1a4>
        {
          /* Adjust the HSI16 division factor */
          __HAL_RCC_HSI_CONFIG(RCC_OscInitStruct->HSIDiv);
 80051a2:	4b6b      	ldr	r3, [pc, #428]	; (8005350 <HAL_RCC_OscConfig+0x32c>)
 80051a4:	681b      	ldr	r3, [r3, #0]
 80051a6:	4a6e      	ldr	r2, [pc, #440]	; (8005360 <HAL_RCC_OscConfig+0x33c>)
 80051a8:	4013      	ands	r3, r2
 80051aa:	0019      	movs	r1, r3
 80051ac:	687b      	ldr	r3, [r7, #4]
 80051ae:	691a      	ldr	r2, [r3, #16]
 80051b0:	4b67      	ldr	r3, [pc, #412]	; (8005350 <HAL_RCC_OscConfig+0x32c>)
 80051b2:	430a      	orrs	r2, r1
 80051b4:	601a      	str	r2, [r3, #0]

          /* Update the SystemCoreClock global variable with HSISYS value  */
          SystemCoreClock = (HSI_VALUE / (1UL << ((READ_BIT(RCC->CR, RCC_CR_HSIDIV)) >> RCC_CR_HSIDIV_Pos)));
 80051b6:	4b66      	ldr	r3, [pc, #408]	; (8005350 <HAL_RCC_OscConfig+0x32c>)
 80051b8:	681b      	ldr	r3, [r3, #0]
 80051ba:	0adb      	lsrs	r3, r3, #11
 80051bc:	2207      	movs	r2, #7
 80051be:	4013      	ands	r3, r2
 80051c0:	4a68      	ldr	r2, [pc, #416]	; (8005364 <HAL_RCC_OscConfig+0x340>)
 80051c2:	40da      	lsrs	r2, r3
 80051c4:	4b68      	ldr	r3, [pc, #416]	; (8005368 <HAL_RCC_OscConfig+0x344>)
 80051c6:	601a      	str	r2, [r3, #0]
        }

        /* Adapt Systick interrupt period */
        if (HAL_InitTick(uwTickPrio) != HAL_OK)
 80051c8:	4b68      	ldr	r3, [pc, #416]	; (800536c <HAL_RCC_OscConfig+0x348>)
 80051ca:	681b      	ldr	r3, [r3, #0]
 80051cc:	0018      	movs	r0, r3
 80051ce:	f7ff fc29 	bl	8004a24 <HAL_InitTick>
 80051d2:	1e03      	subs	r3, r0, #0
 80051d4:	d051      	beq.n	800527a <HAL_RCC_OscConfig+0x256>
        {
          return HAL_ERROR;
 80051d6:	2301      	movs	r3, #1
 80051d8:	e22c      	b.n	8005634 <HAL_RCC_OscConfig+0x610>
      }
    }
    else
    {
      /* Check the HSI State */
      if (RCC_OscInitStruct->HSIState != RCC_HSI_OFF)
 80051da:	687b      	ldr	r3, [r7, #4]
 80051dc:	68db      	ldr	r3, [r3, #12]
 80051de:	2b00      	cmp	r3, #0
 80051e0:	d030      	beq.n	8005244 <HAL_RCC_OscConfig+0x220>
      {
        /* Configure the HSI16 division factor */
        __HAL_RCC_HSI_CONFIG(RCC_OscInitStruct->HSIDiv);
 80051e2:	4b5b      	ldr	r3, [pc, #364]	; (8005350 <HAL_RCC_OscConfig+0x32c>)
 80051e4:	681b      	ldr	r3, [r3, #0]
 80051e6:	4a5e      	ldr	r2, [pc, #376]	; (8005360 <HAL_RCC_OscConfig+0x33c>)
 80051e8:	4013      	ands	r3, r2
 80051ea:	0019      	movs	r1, r3
 80051ec:	687b      	ldr	r3, [r7, #4]
 80051ee:	691a      	ldr	r2, [r3, #16]
 80051f0:	4b57      	ldr	r3, [pc, #348]	; (8005350 <HAL_RCC_OscConfig+0x32c>)
 80051f2:	430a      	orrs	r2, r1
 80051f4:	601a      	str	r2, [r3, #0]

        /* Enable the Internal High Speed oscillator (HSI16). */
        __HAL_RCC_HSI_ENABLE();
 80051f6:	4b56      	ldr	r3, [pc, #344]	; (8005350 <HAL_RCC_OscConfig+0x32c>)
 80051f8:	681a      	ldr	r2, [r3, #0]
 80051fa:	4b55      	ldr	r3, [pc, #340]	; (8005350 <HAL_RCC_OscConfig+0x32c>)
 80051fc:	2180      	movs	r1, #128	; 0x80
 80051fe:	0049      	lsls	r1, r1, #1
 8005200:	430a      	orrs	r2, r1
 8005202:	601a      	str	r2, [r3, #0]

        /* Get Start Tick*/
        tickstart = HAL_GetTick();
 8005204:	f7ff fc6a 	bl	8004adc <HAL_GetTick>
 8005208:	0003      	movs	r3, r0
 800520a:	613b      	str	r3, [r7, #16]

        /* Wait till HSI is ready */
        while (READ_BIT(RCC->CR, RCC_CR_HSIRDY) == 0U)
 800520c:	e008      	b.n	8005220 <HAL_RCC_OscConfig+0x1fc>
        {
          if ((HAL_GetTick() - tickstart) > HSI_TIMEOUT_VALUE)
 800520e:	f7ff fc65 	bl	8004adc <HAL_GetTick>
 8005212:	0002      	movs	r2, r0
 8005214:	693b      	ldr	r3, [r7, #16]
 8005216:	1ad3      	subs	r3, r2, r3
 8005218:	2b02      	cmp	r3, #2
 800521a:	d901      	bls.n	8005220 <HAL_RCC_OscConfig+0x1fc>
          {
            return HAL_TIMEOUT;
 800521c:	2303      	movs	r3, #3
 800521e:	e209      	b.n	8005634 <HAL_RCC_OscConfig+0x610>
        while (READ_BIT(RCC->CR, RCC_CR_HSIRDY) == 0U)
 8005220:	4b4b      	ldr	r3, [pc, #300]	; (8005350 <HAL_RCC_OscConfig+0x32c>)
 8005222:	681a      	ldr	r2, [r3, #0]
 8005224:	2380      	movs	r3, #128	; 0x80
 8005226:	00db      	lsls	r3, r3, #3
 8005228:	4013      	ands	r3, r2
 800522a:	d0f0      	beq.n	800520e <HAL_RCC_OscConfig+0x1ea>
          }
        }

        /* Adjusts the Internal High Speed oscillator (HSI) calibration value.*/
        __HAL_RCC_HSI_CALIBRATIONVALUE_ADJUST(RCC_OscInitStruct->HSICalibrationValue);
 800522c:	4b48      	ldr	r3, [pc, #288]	; (8005350 <HAL_RCC_OscConfig+0x32c>)
 800522e:	685b      	ldr	r3, [r3, #4]
 8005230:	4a4a      	ldr	r2, [pc, #296]	; (800535c <HAL_RCC_OscConfig+0x338>)
 8005232:	4013      	ands	r3, r2
 8005234:	0019      	movs	r1, r3
 8005236:	687b      	ldr	r3, [r7, #4]
 8005238:	695b      	ldr	r3, [r3, #20]
 800523a:	021a      	lsls	r2, r3, #8
 800523c:	4b44      	ldr	r3, [pc, #272]	; (8005350 <HAL_RCC_OscConfig+0x32c>)
 800523e:	430a      	orrs	r2, r1
 8005240:	605a      	str	r2, [r3, #4]
 8005242:	e01b      	b.n	800527c <HAL_RCC_OscConfig+0x258>
      }
      else
      {
        /* Disable the Internal High Speed oscillator (HSI16). */
        __HAL_RCC_HSI_DISABLE();
 8005244:	4b42      	ldr	r3, [pc, #264]	; (8005350 <HAL_RCC_OscConfig+0x32c>)
 8005246:	681a      	ldr	r2, [r3, #0]
 8005248:	4b41      	ldr	r3, [pc, #260]	; (8005350 <HAL_RCC_OscConfig+0x32c>)
 800524a:	4949      	ldr	r1, [pc, #292]	; (8005370 <HAL_RCC_OscConfig+0x34c>)
 800524c:	400a      	ands	r2, r1
 800524e:	601a      	str	r2, [r3, #0]

        /* Get Start Tick*/
        tickstart = HAL_GetTick();
 8005250:	f7ff fc44 	bl	8004adc <HAL_GetTick>
 8005254:	0003      	movs	r3, r0
 8005256:	613b      	str	r3, [r7, #16]

        /* Wait till HSI is disabled */
        while (READ_BIT(RCC->CR, RCC_CR_HSIRDY) != 0U)
 8005258:	e008      	b.n	800526c <HAL_RCC_OscConfig+0x248>
        {
          if ((HAL_GetTick() - tickstart) > HSI_TIMEOUT_VALUE)
 800525a:	f7ff fc3f 	bl	8004adc <HAL_GetTick>
 800525e:	0002      	movs	r2, r0
 8005260:	693b      	ldr	r3, [r7, #16]
 8005262:	1ad3      	subs	r3, r2, r3
 8005264:	2b02      	cmp	r3, #2
 8005266:	d901      	bls.n	800526c <HAL_RCC_OscConfig+0x248>
          {
            return HAL_TIMEOUT;
 8005268:	2303      	movs	r3, #3
 800526a:	e1e3      	b.n	8005634 <HAL_RCC_OscConfig+0x610>
        while (READ_BIT(RCC->CR, RCC_CR_HSIRDY) != 0U)
 800526c:	4b38      	ldr	r3, [pc, #224]	; (8005350 <HAL_RCC_OscConfig+0x32c>)
 800526e:	681a      	ldr	r2, [r3, #0]
 8005270:	2380      	movs	r3, #128	; 0x80
 8005272:	00db      	lsls	r3, r3, #3
 8005274:	4013      	ands	r3, r2
 8005276:	d1f0      	bne.n	800525a <HAL_RCC_OscConfig+0x236>
 8005278:	e000      	b.n	800527c <HAL_RCC_OscConfig+0x258>
      if ((READ_BIT(RCC->CR, RCC_CR_HSIRDY) != 0U) && (RCC_OscInitStruct->HSIState == RCC_HSI_OFF))
 800527a:	46c0      	nop			; (mov r8, r8)
        }
      }
    }
  }
  /*------------------------------ LSI Configuration -------------------------*/
  if (((RCC_OscInitStruct->OscillatorType) & RCC_OSCILLATORTYPE_LSI) == RCC_OSCILLATORTYPE_LSI)
 800527c:	687b      	ldr	r3, [r7, #4]
 800527e:	681b      	ldr	r3, [r3, #0]
 8005280:	2208      	movs	r2, #8
 8005282:	4013      	ands	r3, r2
 8005284:	d047      	beq.n	8005316 <HAL_RCC_OscConfig+0x2f2>
  {
    /* Check the parameters */
    assert_param(IS_RCC_LSI(RCC_OscInitStruct->LSIState));

    /* Check if LSI is used as system clock */
    if (__HAL_RCC_GET_SYSCLK_SOURCE() == RCC_SYSCLKSOURCE_STATUS_LSI)
 8005286:	4b32      	ldr	r3, [pc, #200]	; (8005350 <HAL_RCC_OscConfig+0x32c>)
 8005288:	689b      	ldr	r3, [r3, #8]
 800528a:	2238      	movs	r2, #56	; 0x38
 800528c:	4013      	ands	r3, r2
 800528e:	2b18      	cmp	r3, #24
 8005290:	d10a      	bne.n	80052a8 <HAL_RCC_OscConfig+0x284>
    {
      /* When LSI is used as system clock it will not be disabled */
      if ((((RCC->CSR) & RCC_CSR_LSIRDY) != 0U) && (RCC_OscInitStruct->LSIState == RCC_LSI_OFF))
 8005292:	4b2f      	ldr	r3, [pc, #188]	; (8005350 <HAL_RCC_OscConfig+0x32c>)
 8005294:	6e1b      	ldr	r3, [r3, #96]	; 0x60
 8005296:	2202      	movs	r2, #2
 8005298:	4013      	ands	r3, r2
 800529a:	d03c      	beq.n	8005316 <HAL_RCC_OscConfig+0x2f2>
 800529c:	687b      	ldr	r3, [r7, #4]
 800529e:	699b      	ldr	r3, [r3, #24]
 80052a0:	2b00      	cmp	r3, #0
 80052a2:	d138      	bne.n	8005316 <HAL_RCC_OscConfig+0x2f2>
      {
        return HAL_ERROR;
 80052a4:	2301      	movs	r3, #1
 80052a6:	e1c5      	b.n	8005634 <HAL_RCC_OscConfig+0x610>
      }
    }
    else
    {
      /* Check the LSI State */
      if (RCC_OscInitStruct->LSIState != RCC_LSI_OFF)
 80052a8:	687b      	ldr	r3, [r7, #4]
 80052aa:	699b      	ldr	r3, [r3, #24]
 80052ac:	2b00      	cmp	r3, #0
 80052ae:	d019      	beq.n	80052e4 <HAL_RCC_OscConfig+0x2c0>
      {
        /* Enable the Internal Low Speed oscillator (LSI). */
        __HAL_RCC_LSI_ENABLE();
 80052b0:	4b27      	ldr	r3, [pc, #156]	; (8005350 <HAL_RCC_OscConfig+0x32c>)
 80052b2:	6e1a      	ldr	r2, [r3, #96]	; 0x60
 80052b4:	4b26      	ldr	r3, [pc, #152]	; (8005350 <HAL_RCC_OscConfig+0x32c>)
 80052b6:	2101      	movs	r1, #1
 80052b8:	430a      	orrs	r2, r1
 80052ba:	661a      	str	r2, [r3, #96]	; 0x60

        /* Get Start Tick*/
        tickstart = HAL_GetTick();
 80052bc:	f7ff fc0e 	bl	8004adc <HAL_GetTick>
 80052c0:	0003      	movs	r3, r0
 80052c2:	613b      	str	r3, [r7, #16]

        /* Wait till LSI is ready */
        while (READ_BIT(RCC->CSR, RCC_CSR_LSIRDY) == 0U)
 80052c4:	e008      	b.n	80052d8 <HAL_RCC_OscConfig+0x2b4>
        {
          if ((HAL_GetTick() - tickstart) > LSI_TIMEOUT_VALUE)
 80052c6:	f7ff fc09 	bl	8004adc <HAL_GetTick>
 80052ca:	0002      	movs	r2, r0
 80052cc:	693b      	ldr	r3, [r7, #16]
 80052ce:	1ad3      	subs	r3, r2, r3
 80052d0:	2b02      	cmp	r3, #2
 80052d2:	d901      	bls.n	80052d8 <HAL_RCC_OscConfig+0x2b4>
          {
            return HAL_TIMEOUT;
 80052d4:	2303      	movs	r3, #3
 80052d6:	e1ad      	b.n	8005634 <HAL_RCC_OscConfig+0x610>
        while (READ_BIT(RCC->CSR, RCC_CSR_LSIRDY) == 0U)
 80052d8:	4b1d      	ldr	r3, [pc, #116]	; (8005350 <HAL_RCC_OscConfig+0x32c>)
 80052da:	6e1b      	ldr	r3, [r3, #96]	; 0x60
 80052dc:	2202      	movs	r2, #2
 80052de:	4013      	ands	r3, r2
 80052e0:	d0f1      	beq.n	80052c6 <HAL_RCC_OscConfig+0x2a2>
 80052e2:	e018      	b.n	8005316 <HAL_RCC_OscConfig+0x2f2>
        }
      }
      else
      {
        /* Disable the Internal Low Speed oscillator (LSI). */
        __HAL_RCC_LSI_DISABLE();
 80052e4:	4b1a      	ldr	r3, [pc, #104]	; (8005350 <HAL_RCC_OscConfig+0x32c>)
 80052e6:	6e1a      	ldr	r2, [r3, #96]	; 0x60
 80052e8:	4b19      	ldr	r3, [pc, #100]	; (8005350 <HAL_RCC_OscConfig+0x32c>)
 80052ea:	2101      	movs	r1, #1
 80052ec:	438a      	bics	r2, r1
 80052ee:	661a      	str	r2, [r3, #96]	; 0x60

        /* Get Start Tick*/
        tickstart = HAL_GetTick();
 80052f0:	f7ff fbf4 	bl	8004adc <HAL_GetTick>
 80052f4:	0003      	movs	r3, r0
 80052f6:	613b      	str	r3, [r7, #16]

        /* Wait till LSI is disabled */
        while (READ_BIT(RCC->CSR, RCC_CSR_LSIRDY) != 0U)
 80052f8:	e008      	b.n	800530c <HAL_RCC_OscConfig+0x2e8>
        {
          if ((HAL_GetTick() - tickstart) > LSI_TIMEOUT_VALUE)
 80052fa:	f7ff fbef 	bl	8004adc <HAL_GetTick>
 80052fe:	0002      	movs	r2, r0
 8005300:	693b      	ldr	r3, [r7, #16]
 8005302:	1ad3      	subs	r3, r2, r3
 8005304:	2b02      	cmp	r3, #2
 8005306:	d901      	bls.n	800530c <HAL_RCC_OscConfig+0x2e8>
          {
            return HAL_TIMEOUT;
 8005308:	2303      	movs	r3, #3
 800530a:	e193      	b.n	8005634 <HAL_RCC_OscConfig+0x610>
        while (READ_BIT(RCC->CSR, RCC_CSR_LSIRDY) != 0U)
 800530c:	4b10      	ldr	r3, [pc, #64]	; (8005350 <HAL_RCC_OscConfig+0x32c>)
 800530e:	6e1b      	ldr	r3, [r3, #96]	; 0x60
 8005310:	2202      	movs	r2, #2
 8005312:	4013      	ands	r3, r2
 8005314:	d1f1      	bne.n	80052fa <HAL_RCC_OscConfig+0x2d6>
        }
      }
    }
  }
  /*------------------------------ LSE Configuration -------------------------*/
  if (((RCC_OscInitStruct->OscillatorType) & RCC_OSCILLATORTYPE_LSE) == RCC_OSCILLATORTYPE_LSE)
 8005316:	687b      	ldr	r3, [r7, #4]
 8005318:	681b      	ldr	r3, [r3, #0]
 800531a:	2204      	movs	r2, #4
 800531c:	4013      	ands	r3, r2
 800531e:	d100      	bne.n	8005322 <HAL_RCC_OscConfig+0x2fe>
 8005320:	e0c6      	b.n	80054b0 <HAL_RCC_OscConfig+0x48c>
  {
    FlagStatus       pwrclkchanged = RESET;
 8005322:	231f      	movs	r3, #31
 8005324:	18fb      	adds	r3, r7, r3
 8005326:	2200      	movs	r2, #0
 8005328:	701a      	strb	r2, [r3, #0]

    /* Check the parameters */
    assert_param(IS_RCC_LSE(RCC_OscInitStruct->LSEState));

    /* When the LSE is used as system clock, it is not allowed disable it */
    if (__HAL_RCC_GET_SYSCLK_SOURCE() == RCC_SYSCLKSOURCE_STATUS_LSE)
 800532a:	4b09      	ldr	r3, [pc, #36]	; (8005350 <HAL_RCC_OscConfig+0x32c>)
 800532c:	689b      	ldr	r3, [r3, #8]
 800532e:	2238      	movs	r2, #56	; 0x38
 8005330:	4013      	ands	r3, r2
 8005332:	2b20      	cmp	r3, #32
 8005334:	d11e      	bne.n	8005374 <HAL_RCC_OscConfig+0x350>
    {
      if ((((RCC->BDCR) & RCC_BDCR_LSERDY) != 0U) && (RCC_OscInitStruct->LSEState == RCC_LSE_OFF))
 8005336:	4b06      	ldr	r3, [pc, #24]	; (8005350 <HAL_RCC_OscConfig+0x32c>)
 8005338:	6ddb      	ldr	r3, [r3, #92]	; 0x5c
 800533a:	2202      	movs	r2, #2
 800533c:	4013      	ands	r3, r2
 800533e:	d100      	bne.n	8005342 <HAL_RCC_OscConfig+0x31e>
 8005340:	e0b6      	b.n	80054b0 <HAL_RCC_OscConfig+0x48c>
 8005342:	687b      	ldr	r3, [r7, #4]
 8005344:	689b      	ldr	r3, [r3, #8]
 8005346:	2b00      	cmp	r3, #0
 8005348:	d000      	beq.n	800534c <HAL_RCC_OscConfig+0x328>
 800534a:	e0b1      	b.n	80054b0 <HAL_RCC_OscConfig+0x48c>
      {
        return HAL_ERROR;
 800534c:	2301      	movs	r3, #1
 800534e:	e171      	b.n	8005634 <HAL_RCC_OscConfig+0x610>
 8005350:	40021000 	.word	0x40021000
 8005354:	fffeffff 	.word	0xfffeffff
 8005358:	fffbffff 	.word	0xfffbffff
 800535c:	ffff80ff 	.word	0xffff80ff
 8005360:	ffffc7ff 	.word	0xffffc7ff
 8005364:	00f42400 	.word	0x00f42400
 8005368:	20000000 	.word	0x20000000
 800536c:	20000004 	.word	0x20000004
 8005370:	fffffeff 	.word	0xfffffeff
    }
    else
    {
      /* Update LSE configuration in Backup Domain control register    */
      /* Requires to enable write access to Backup Domain of necessary */
      if (__HAL_RCC_PWR_IS_CLK_DISABLED() != 0U)
 8005374:	4bb1      	ldr	r3, [pc, #708]	; (800563c <HAL_RCC_OscConfig+0x618>)
 8005376:	6bda      	ldr	r2, [r3, #60]	; 0x3c
 8005378:	2380      	movs	r3, #128	; 0x80
 800537a:	055b      	lsls	r3, r3, #21
 800537c:	4013      	ands	r3, r2
 800537e:	d101      	bne.n	8005384 <HAL_RCC_OscConfig+0x360>
 8005380:	2301      	movs	r3, #1
 8005382:	e000      	b.n	8005386 <HAL_RCC_OscConfig+0x362>
 8005384:	2300      	movs	r3, #0
 8005386:	2b00      	cmp	r3, #0
 8005388:	d011      	beq.n	80053ae <HAL_RCC_OscConfig+0x38a>
      {
        __HAL_RCC_PWR_CLK_ENABLE();
 800538a:	4bac      	ldr	r3, [pc, #688]	; (800563c <HAL_RCC_OscConfig+0x618>)
 800538c:	6bda      	ldr	r2, [r3, #60]	; 0x3c
 800538e:	4bab      	ldr	r3, [pc, #684]	; (800563c <HAL_RCC_OscConfig+0x618>)
 8005390:	2180      	movs	r1, #128	; 0x80
 8005392:	0549      	lsls	r1, r1, #21
 8005394:	430a      	orrs	r2, r1
 8005396:	63da      	str	r2, [r3, #60]	; 0x3c
 8005398:	4ba8      	ldr	r3, [pc, #672]	; (800563c <HAL_RCC_OscConfig+0x618>)
 800539a:	6bda      	ldr	r2, [r3, #60]	; 0x3c
 800539c:	2380      	movs	r3, #128	; 0x80
 800539e:	055b      	lsls	r3, r3, #21
 80053a0:	4013      	ands	r3, r2
 80053a2:	60fb      	str	r3, [r7, #12]
 80053a4:	68fb      	ldr	r3, [r7, #12]
        pwrclkchanged = SET;
 80053a6:	231f      	movs	r3, #31
 80053a8:	18fb      	adds	r3, r7, r3
 80053aa:	2201      	movs	r2, #1
 80053ac:	701a      	strb	r2, [r3, #0]
      }

      if (HAL_IS_BIT_CLR(PWR->CR1, PWR_CR1_DBP))
 80053ae:	4ba4      	ldr	r3, [pc, #656]	; (8005640 <HAL_RCC_OscConfig+0x61c>)
 80053b0:	681a      	ldr	r2, [r3, #0]
 80053b2:	2380      	movs	r3, #128	; 0x80
 80053b4:	005b      	lsls	r3, r3, #1
 80053b6:	4013      	ands	r3, r2
 80053b8:	d11a      	bne.n	80053f0 <HAL_RCC_OscConfig+0x3cc>
      {
        /* Enable write access to Backup domain */
        SET_BIT(PWR->CR1, PWR_CR1_DBP);
 80053ba:	4ba1      	ldr	r3, [pc, #644]	; (8005640 <HAL_RCC_OscConfig+0x61c>)
 80053bc:	681a      	ldr	r2, [r3, #0]
 80053be:	4ba0      	ldr	r3, [pc, #640]	; (8005640 <HAL_RCC_OscConfig+0x61c>)
 80053c0:	2180      	movs	r1, #128	; 0x80
 80053c2:	0049      	lsls	r1, r1, #1
 80053c4:	430a      	orrs	r2, r1
 80053c6:	601a      	str	r2, [r3, #0]

        /* Wait for Backup domain Write protection disable */
        tickstart = HAL_GetTick();
 80053c8:	f7ff fb88 	bl	8004adc <HAL_GetTick>
 80053cc:	0003      	movs	r3, r0
 80053ce:	613b      	str	r3, [r7, #16]

        while (HAL_IS_BIT_CLR(PWR->CR1, PWR_CR1_DBP))
 80053d0:	e008      	b.n	80053e4 <HAL_RCC_OscConfig+0x3c0>
        {
          if ((HAL_GetTick() - tickstart) > RCC_DBP_TIMEOUT_VALUE)
 80053d2:	f7ff fb83 	bl	8004adc <HAL_GetTick>
 80053d6:	0002      	movs	r2, r0
 80053d8:	693b      	ldr	r3, [r7, #16]
 80053da:	1ad3      	subs	r3, r2, r3
 80053dc:	2b02      	cmp	r3, #2
 80053de:	d901      	bls.n	80053e4 <HAL_RCC_OscConfig+0x3c0>
          {
            return HAL_TIMEOUT;
 80053e0:	2303      	movs	r3, #3
 80053e2:	e127      	b.n	8005634 <HAL_RCC_OscConfig+0x610>
        while (HAL_IS_BIT_CLR(PWR->CR1, PWR_CR1_DBP))
 80053e4:	4b96      	ldr	r3, [pc, #600]	; (8005640 <HAL_RCC_OscConfig+0x61c>)
 80053e6:	681a      	ldr	r2, [r3, #0]
 80053e8:	2380      	movs	r3, #128	; 0x80
 80053ea:	005b      	lsls	r3, r3, #1
 80053ec:	4013      	ands	r3, r2
 80053ee:	d0f0      	beq.n	80053d2 <HAL_RCC_OscConfig+0x3ae>
          }
        }
      }

      /* Set the new LSE configuration -----------------------------------------*/
      __HAL_RCC_LSE_CONFIG(RCC_OscInitStruct->LSEState);
 80053f0:	687b      	ldr	r3, [r7, #4]
 80053f2:	689b      	ldr	r3, [r3, #8]
 80053f4:	2b01      	cmp	r3, #1
 80053f6:	d106      	bne.n	8005406 <HAL_RCC_OscConfig+0x3e2>
 80053f8:	4b90      	ldr	r3, [pc, #576]	; (800563c <HAL_RCC_OscConfig+0x618>)
 80053fa:	6dda      	ldr	r2, [r3, #92]	; 0x5c
 80053fc:	4b8f      	ldr	r3, [pc, #572]	; (800563c <HAL_RCC_OscConfig+0x618>)
 80053fe:	2101      	movs	r1, #1
 8005400:	430a      	orrs	r2, r1
 8005402:	65da      	str	r2, [r3, #92]	; 0x5c
 8005404:	e01c      	b.n	8005440 <HAL_RCC_OscConfig+0x41c>
 8005406:	687b      	ldr	r3, [r7, #4]
 8005408:	689b      	ldr	r3, [r3, #8]
 800540a:	2b05      	cmp	r3, #5
 800540c:	d10c      	bne.n	8005428 <HAL_RCC_OscConfig+0x404>
 800540e:	4b8b      	ldr	r3, [pc, #556]	; (800563c <HAL_RCC_OscConfig+0x618>)
 8005410:	6dda      	ldr	r2, [r3, #92]	; 0x5c
 8005412:	4b8a      	ldr	r3, [pc, #552]	; (800563c <HAL_RCC_OscConfig+0x618>)
 8005414:	2104      	movs	r1, #4
 8005416:	430a      	orrs	r2, r1
 8005418:	65da      	str	r2, [r3, #92]	; 0x5c
 800541a:	4b88      	ldr	r3, [pc, #544]	; (800563c <HAL_RCC_OscConfig+0x618>)
 800541c:	6dda      	ldr	r2, [r3, #92]	; 0x5c
 800541e:	4b87      	ldr	r3, [pc, #540]	; (800563c <HAL_RCC_OscConfig+0x618>)
 8005420:	2101      	movs	r1, #1
 8005422:	430a      	orrs	r2, r1
 8005424:	65da      	str	r2, [r3, #92]	; 0x5c
 8005426:	e00b      	b.n	8005440 <HAL_RCC_OscConfig+0x41c>
 8005428:	4b84      	ldr	r3, [pc, #528]	; (800563c <HAL_RCC_OscConfig+0x618>)
 800542a:	6dda      	ldr	r2, [r3, #92]	; 0x5c
 800542c:	4b83      	ldr	r3, [pc, #524]	; (800563c <HAL_RCC_OscConfig+0x618>)
 800542e:	2101      	movs	r1, #1
 8005430:	438a      	bics	r2, r1
 8005432:	65da      	str	r2, [r3, #92]	; 0x5c
 8005434:	4b81      	ldr	r3, [pc, #516]	; (800563c <HAL_RCC_OscConfig+0x618>)
 8005436:	6dda      	ldr	r2, [r3, #92]	; 0x5c
 8005438:	4b80      	ldr	r3, [pc, #512]	; (800563c <HAL_RCC_OscConfig+0x618>)
 800543a:	2104      	movs	r1, #4
 800543c:	438a      	bics	r2, r1
 800543e:	65da      	str	r2, [r3, #92]	; 0x5c

      /* Check the LSE State */
      if (RCC_OscInitStruct->LSEState != RCC_LSE_OFF)
 8005440:	687b      	ldr	r3, [r7, #4]
 8005442:	689b      	ldr	r3, [r3, #8]
 8005444:	2b00      	cmp	r3, #0
 8005446:	d014      	beq.n	8005472 <HAL_RCC_OscConfig+0x44e>
      {
        /* Get Start Tick*/
        tickstart = HAL_GetTick();
 8005448:	f7ff fb48 	bl	8004adc <HAL_GetTick>
 800544c:	0003      	movs	r3, r0
 800544e:	613b      	str	r3, [r7, #16]

        /* Wait till LSE is ready */
        while (READ_BIT(RCC->BDCR, RCC_BDCR_LSERDY) == 0U)
 8005450:	e009      	b.n	8005466 <HAL_RCC_OscConfig+0x442>
        {
          if ((HAL_GetTick() - tickstart) > RCC_LSE_TIMEOUT_VALUE)
 8005452:	f7ff fb43 	bl	8004adc <HAL_GetTick>
 8005456:	0002      	movs	r2, r0
 8005458:	693b      	ldr	r3, [r7, #16]
 800545a:	1ad3      	subs	r3, r2, r3
 800545c:	4a79      	ldr	r2, [pc, #484]	; (8005644 <HAL_RCC_OscConfig+0x620>)
 800545e:	4293      	cmp	r3, r2
 8005460:	d901      	bls.n	8005466 <HAL_RCC_OscConfig+0x442>
          {
            return HAL_TIMEOUT;
 8005462:	2303      	movs	r3, #3
 8005464:	e0e6      	b.n	8005634 <HAL_RCC_OscConfig+0x610>
        while (READ_BIT(RCC->BDCR, RCC_BDCR_LSERDY) == 0U)
 8005466:	4b75      	ldr	r3, [pc, #468]	; (800563c <HAL_RCC_OscConfig+0x618>)
 8005468:	6ddb      	ldr	r3, [r3, #92]	; 0x5c
 800546a:	2202      	movs	r2, #2
 800546c:	4013      	ands	r3, r2
 800546e:	d0f0      	beq.n	8005452 <HAL_RCC_OscConfig+0x42e>
 8005470:	e013      	b.n	800549a <HAL_RCC_OscConfig+0x476>
        }
      }
      else
      {
        /* Get Start Tick*/
        tickstart = HAL_GetTick();
 8005472:	f7ff fb33 	bl	8004adc <HAL_GetTick>
 8005476:	0003      	movs	r3, r0
 8005478:	613b      	str	r3, [r7, #16]

        /* Wait till LSE is disabled */
        while (READ_BIT(RCC->BDCR, RCC_BDCR_LSERDY) != 0U)
 800547a:	e009      	b.n	8005490 <HAL_RCC_OscConfig+0x46c>
        {
          if ((HAL_GetTick() - tickstart) > RCC_LSE_TIMEOUT_VALUE)
 800547c:	f7ff fb2e 	bl	8004adc <HAL_GetTick>
 8005480:	0002      	movs	r2, r0
 8005482:	693b      	ldr	r3, [r7, #16]
 8005484:	1ad3      	subs	r3, r2, r3
 8005486:	4a6f      	ldr	r2, [pc, #444]	; (8005644 <HAL_RCC_OscConfig+0x620>)
 8005488:	4293      	cmp	r3, r2
 800548a:	d901      	bls.n	8005490 <HAL_RCC_OscConfig+0x46c>
          {
            return HAL_TIMEOUT;
 800548c:	2303      	movs	r3, #3
 800548e:	e0d1      	b.n	8005634 <HAL_RCC_OscConfig+0x610>
        while (READ_BIT(RCC->BDCR, RCC_BDCR_LSERDY) != 0U)
 8005490:	4b6a      	ldr	r3, [pc, #424]	; (800563c <HAL_RCC_OscConfig+0x618>)
 8005492:	6ddb      	ldr	r3, [r3, #92]	; 0x5c
 8005494:	2202      	movs	r2, #2
 8005496:	4013      	ands	r3, r2
 8005498:	d1f0      	bne.n	800547c <HAL_RCC_OscConfig+0x458>
          }
        }
      }

      /* Restore clock configuration if changed */
      if (pwrclkchanged == SET)
 800549a:	231f      	movs	r3, #31
 800549c:	18fb      	adds	r3, r7, r3
 800549e:	781b      	ldrb	r3, [r3, #0]
 80054a0:	2b01      	cmp	r3, #1
 80054a2:	d105      	bne.n	80054b0 <HAL_RCC_OscConfig+0x48c>
      {
        __HAL_RCC_PWR_CLK_DISABLE();
 80054a4:	4b65      	ldr	r3, [pc, #404]	; (800563c <HAL_RCC_OscConfig+0x618>)
 80054a6:	6bda      	ldr	r2, [r3, #60]	; 0x3c
 80054a8:	4b64      	ldr	r3, [pc, #400]	; (800563c <HAL_RCC_OscConfig+0x618>)
 80054aa:	4967      	ldr	r1, [pc, #412]	; (8005648 <HAL_RCC_OscConfig+0x624>)
 80054ac:	400a      	ands	r2, r1
 80054ae:	63da      	str	r2, [r3, #60]	; 0x3c
#endif /* RCC_HSI48_SUPPORT */
  /*-------------------------------- PLL Configuration -----------------------*/
  /* Check the parameters */
  assert_param(IS_RCC_PLL(RCC_OscInitStruct->PLL.PLLState));

  if (RCC_OscInitStruct->PLL.PLLState != RCC_PLL_NONE)
 80054b0:	687b      	ldr	r3, [r7, #4]
 80054b2:	69db      	ldr	r3, [r3, #28]
 80054b4:	2b00      	cmp	r3, #0
 80054b6:	d100      	bne.n	80054ba <HAL_RCC_OscConfig+0x496>
 80054b8:	e0bb      	b.n	8005632 <HAL_RCC_OscConfig+0x60e>
  {
    /* Check if the PLL is used as system clock or not */
    if (__HAL_RCC_GET_SYSCLK_SOURCE() != RCC_SYSCLKSOURCE_STATUS_PLLCLK)
 80054ba:	4b60      	ldr	r3, [pc, #384]	; (800563c <HAL_RCC_OscConfig+0x618>)
 80054bc:	689b      	ldr	r3, [r3, #8]
 80054be:	2238      	movs	r2, #56	; 0x38
 80054c0:	4013      	ands	r3, r2
 80054c2:	2b10      	cmp	r3, #16
 80054c4:	d100      	bne.n	80054c8 <HAL_RCC_OscConfig+0x4a4>
 80054c6:	e07b      	b.n	80055c0 <HAL_RCC_OscConfig+0x59c>
    {
      if (RCC_OscInitStruct->PLL.PLLState == RCC_PLL_ON)
 80054c8:	687b      	ldr	r3, [r7, #4]
 80054ca:	69db      	ldr	r3, [r3, #28]
 80054cc:	2b02      	cmp	r3, #2
 80054ce:	d156      	bne.n	800557e <HAL_RCC_OscConfig+0x55a>
        assert_param(IS_RCC_PLLQ_VALUE(RCC_OscInitStruct->PLL.PLLQ));
#endif /* RCC_PLLQ_SUPPORT */
        assert_param(IS_RCC_PLLR_VALUE(RCC_OscInitStruct->PLL.PLLR));

        /* Disable the main PLL. */
        __HAL_RCC_PLL_DISABLE();
 80054d0:	4b5a      	ldr	r3, [pc, #360]	; (800563c <HAL_RCC_OscConfig+0x618>)
 80054d2:	681a      	ldr	r2, [r3, #0]
 80054d4:	4b59      	ldr	r3, [pc, #356]	; (800563c <HAL_RCC_OscConfig+0x618>)
 80054d6:	495d      	ldr	r1, [pc, #372]	; (800564c <HAL_RCC_OscConfig+0x628>)
 80054d8:	400a      	ands	r2, r1
 80054da:	601a      	str	r2, [r3, #0]

        /* Get Start Tick*/
        tickstart = HAL_GetTick();
 80054dc:	f7ff fafe 	bl	8004adc <HAL_GetTick>
 80054e0:	0003      	movs	r3, r0
 80054e2:	613b      	str	r3, [r7, #16]

        /* Wait till PLL is ready */
        while (READ_BIT(RCC->CR, RCC_CR_PLLRDY) != 0U)
 80054e4:	e008      	b.n	80054f8 <HAL_RCC_OscConfig+0x4d4>
        {
          if ((HAL_GetTick() - tickstart) > PLL_TIMEOUT_VALUE)
 80054e6:	f7ff faf9 	bl	8004adc <HAL_GetTick>
 80054ea:	0002      	movs	r2, r0
 80054ec:	693b      	ldr	r3, [r7, #16]
 80054ee:	1ad3      	subs	r3, r2, r3
 80054f0:	2b02      	cmp	r3, #2
 80054f2:	d901      	bls.n	80054f8 <HAL_RCC_OscConfig+0x4d4>
          {
            return HAL_TIMEOUT;
 80054f4:	2303      	movs	r3, #3
 80054f6:	e09d      	b.n	8005634 <HAL_RCC_OscConfig+0x610>
        while (READ_BIT(RCC->CR, RCC_CR_PLLRDY) != 0U)
 80054f8:	4b50      	ldr	r3, [pc, #320]	; (800563c <HAL_RCC_OscConfig+0x618>)
 80054fa:	681a      	ldr	r2, [r3, #0]
 80054fc:	2380      	movs	r3, #128	; 0x80
 80054fe:	049b      	lsls	r3, r3, #18
 8005500:	4013      	ands	r3, r2
 8005502:	d1f0      	bne.n	80054e6 <HAL_RCC_OscConfig+0x4c2>
          }
        }

        /* Configure the main PLL clock source, multiplication and division factors. */
#if defined(RCC_PLLQ_SUPPORT)
        __HAL_RCC_PLL_CONFIG(RCC_OscInitStruct->PLL.PLLSource,
 8005504:	4b4d      	ldr	r3, [pc, #308]	; (800563c <HAL_RCC_OscConfig+0x618>)
 8005506:	68db      	ldr	r3, [r3, #12]
 8005508:	4a51      	ldr	r2, [pc, #324]	; (8005650 <HAL_RCC_OscConfig+0x62c>)
 800550a:	4013      	ands	r3, r2
 800550c:	0019      	movs	r1, r3
 800550e:	687b      	ldr	r3, [r7, #4]
 8005510:	6a1a      	ldr	r2, [r3, #32]
 8005512:	687b      	ldr	r3, [r7, #4]
 8005514:	6a5b      	ldr	r3, [r3, #36]	; 0x24
 8005516:	431a      	orrs	r2, r3
 8005518:	687b      	ldr	r3, [r7, #4]
 800551a:	6a9b      	ldr	r3, [r3, #40]	; 0x28
 800551c:	021b      	lsls	r3, r3, #8
 800551e:	431a      	orrs	r2, r3
 8005520:	687b      	ldr	r3, [r7, #4]
 8005522:	6adb      	ldr	r3, [r3, #44]	; 0x2c
 8005524:	431a      	orrs	r2, r3
 8005526:	687b      	ldr	r3, [r7, #4]
 8005528:	6b1b      	ldr	r3, [r3, #48]	; 0x30
 800552a:	431a      	orrs	r2, r3
 800552c:	687b      	ldr	r3, [r7, #4]
 800552e:	6b5b      	ldr	r3, [r3, #52]	; 0x34
 8005530:	431a      	orrs	r2, r3
 8005532:	4b42      	ldr	r3, [pc, #264]	; (800563c <HAL_RCC_OscConfig+0x618>)
 8005534:	430a      	orrs	r2, r1
 8005536:	60da      	str	r2, [r3, #12]
                             RCC_OscInitStruct->PLL.PLLP,
                             RCC_OscInitStruct->PLL.PLLR);
#endif /* RCC_PLLQ_SUPPORT */

        /* Enable the main PLL. */
        __HAL_RCC_PLL_ENABLE();
 8005538:	4b40      	ldr	r3, [pc, #256]	; (800563c <HAL_RCC_OscConfig+0x618>)
 800553a:	681a      	ldr	r2, [r3, #0]
 800553c:	4b3f      	ldr	r3, [pc, #252]	; (800563c <HAL_RCC_OscConfig+0x618>)
 800553e:	2180      	movs	r1, #128	; 0x80
 8005540:	0449      	lsls	r1, r1, #17
 8005542:	430a      	orrs	r2, r1
 8005544:	601a      	str	r2, [r3, #0]

        /* Enable PLLR Clock output. */
        __HAL_RCC_PLLCLKOUT_ENABLE(RCC_PLLRCLK);
 8005546:	4b3d      	ldr	r3, [pc, #244]	; (800563c <HAL_RCC_OscConfig+0x618>)
 8005548:	68da      	ldr	r2, [r3, #12]
 800554a:	4b3c      	ldr	r3, [pc, #240]	; (800563c <HAL_RCC_OscConfig+0x618>)
 800554c:	2180      	movs	r1, #128	; 0x80
 800554e:	0549      	lsls	r1, r1, #21
 8005550:	430a      	orrs	r2, r1
 8005552:	60da      	str	r2, [r3, #12]

        /* Get Start Tick*/
        tickstart = HAL_GetTick();
 8005554:	f7ff fac2 	bl	8004adc <HAL_GetTick>
 8005558:	0003      	movs	r3, r0
 800555a:	613b      	str	r3, [r7, #16]

        /* Wait till PLL is ready */
        while (READ_BIT(RCC->CR, RCC_CR_PLLRDY) == 0U)
 800555c:	e008      	b.n	8005570 <HAL_RCC_OscConfig+0x54c>
        {
          if ((HAL_GetTick() - tickstart) > PLL_TIMEOUT_VALUE)
 800555e:	f7ff fabd 	bl	8004adc <HAL_GetTick>
 8005562:	0002      	movs	r2, r0
 8005564:	693b      	ldr	r3, [r7, #16]
 8005566:	1ad3      	subs	r3, r2, r3
 8005568:	2b02      	cmp	r3, #2
 800556a:	d901      	bls.n	8005570 <HAL_RCC_OscConfig+0x54c>
          {
            return HAL_TIMEOUT;
 800556c:	2303      	movs	r3, #3
 800556e:	e061      	b.n	8005634 <HAL_RCC_OscConfig+0x610>
        while (READ_BIT(RCC->CR, RCC_CR_PLLRDY) == 0U)
 8005570:	4b32      	ldr	r3, [pc, #200]	; (800563c <HAL_RCC_OscConfig+0x618>)
 8005572:	681a      	ldr	r2, [r3, #0]
 8005574:	2380      	movs	r3, #128	; 0x80
 8005576:	049b      	lsls	r3, r3, #18
 8005578:	4013      	ands	r3, r2
 800557a:	d0f0      	beq.n	800555e <HAL_RCC_OscConfig+0x53a>
 800557c:	e059      	b.n	8005632 <HAL_RCC_OscConfig+0x60e>
        }
      }
      else
      {
        /* Disable the main PLL. */
        __HAL_RCC_PLL_DISABLE();
 800557e:	4b2f      	ldr	r3, [pc, #188]	; (800563c <HAL_RCC_OscConfig+0x618>)
 8005580:	681a      	ldr	r2, [r3, #0]
 8005582:	4b2e      	ldr	r3, [pc, #184]	; (800563c <HAL_RCC_OscConfig+0x618>)
 8005584:	4931      	ldr	r1, [pc, #196]	; (800564c <HAL_RCC_OscConfig+0x628>)
 8005586:	400a      	ands	r2, r1
 8005588:	601a      	str	r2, [r3, #0]

        /* Get Start Tick*/
        tickstart = HAL_GetTick();
 800558a:	f7ff faa7 	bl	8004adc <HAL_GetTick>
 800558e:	0003      	movs	r3, r0
 8005590:	613b      	str	r3, [r7, #16]

        /* Wait till PLL is disabled */
        while (READ_BIT(RCC->CR, RCC_CR_PLLRDY) != 0U)
 8005592:	e008      	b.n	80055a6 <HAL_RCC_OscConfig+0x582>
        {
          if ((HAL_GetTick() - tickstart) > PLL_TIMEOUT_VALUE)
 8005594:	f7ff faa2 	bl	8004adc <HAL_GetTick>
 8005598:	0002      	movs	r2, r0
 800559a:	693b      	ldr	r3, [r7, #16]
 800559c:	1ad3      	subs	r3, r2, r3
 800559e:	2b02      	cmp	r3, #2
 80055a0:	d901      	bls.n	80055a6 <HAL_RCC_OscConfig+0x582>
          {
            return HAL_TIMEOUT;
 80055a2:	2303      	movs	r3, #3
 80055a4:	e046      	b.n	8005634 <HAL_RCC_OscConfig+0x610>
        while (READ_BIT(RCC->CR, RCC_CR_PLLRDY) != 0U)
 80055a6:	4b25      	ldr	r3, [pc, #148]	; (800563c <HAL_RCC_OscConfig+0x618>)
 80055a8:	681a      	ldr	r2, [r3, #0]
 80055aa:	2380      	movs	r3, #128	; 0x80
 80055ac:	049b      	lsls	r3, r3, #18
 80055ae:	4013      	ands	r3, r2
 80055b0:	d1f0      	bne.n	8005594 <HAL_RCC_OscConfig+0x570>
          }
        }
        /* Unselect main PLL clock source and disable main PLL outputs to save power */
#if defined(RCC_PLLQ_SUPPORT)
        RCC->PLLCFGR &= ~(RCC_PLLCFGR_PLLSRC | RCC_PLLCFGR_PLLPEN | RCC_PLLCFGR_PLLQEN | RCC_PLLCFGR_PLLREN);
 80055b2:	4b22      	ldr	r3, [pc, #136]	; (800563c <HAL_RCC_OscConfig+0x618>)
 80055b4:	68da      	ldr	r2, [r3, #12]
 80055b6:	4b21      	ldr	r3, [pc, #132]	; (800563c <HAL_RCC_OscConfig+0x618>)
 80055b8:	4926      	ldr	r1, [pc, #152]	; (8005654 <HAL_RCC_OscConfig+0x630>)
 80055ba:	400a      	ands	r2, r1
 80055bc:	60da      	str	r2, [r3, #12]
 80055be:	e038      	b.n	8005632 <HAL_RCC_OscConfig+0x60e>
      }
    }
    else
    {
      /* Check if there is a request to disable the PLL used as System clock source */
      if ((RCC_OscInitStruct->PLL.PLLState) == RCC_PLL_OFF)
 80055c0:	687b      	ldr	r3, [r7, #4]
 80055c2:	69db      	ldr	r3, [r3, #28]
 80055c4:	2b01      	cmp	r3, #1
 80055c6:	d101      	bne.n	80055cc <HAL_RCC_OscConfig+0x5a8>
      {
        return HAL_ERROR;
 80055c8:	2301      	movs	r3, #1
 80055ca:	e033      	b.n	8005634 <HAL_RCC_OscConfig+0x610>
      }
      else
      {
        /* Do not return HAL_ERROR if request repeats the current configuration */
        temp_pllckcfg = RCC->PLLCFGR;
 80055cc:	4b1b      	ldr	r3, [pc, #108]	; (800563c <HAL_RCC_OscConfig+0x618>)
 80055ce:	68db      	ldr	r3, [r3, #12]
 80055d0:	617b      	str	r3, [r7, #20]
        if ((READ_BIT(temp_pllckcfg, RCC_PLLCFGR_PLLSRC) != RCC_OscInitStruct->PLL.PLLSource) ||
 80055d2:	697b      	ldr	r3, [r7, #20]
 80055d4:	2203      	movs	r2, #3
 80055d6:	401a      	ands	r2, r3
 80055d8:	687b      	ldr	r3, [r7, #4]
 80055da:	6a1b      	ldr	r3, [r3, #32]
 80055dc:	429a      	cmp	r2, r3
 80055de:	d126      	bne.n	800562e <HAL_RCC_OscConfig+0x60a>
            (READ_BIT(temp_pllckcfg, RCC_PLLCFGR_PLLM) != RCC_OscInitStruct->PLL.PLLM) ||
 80055e0:	697b      	ldr	r3, [r7, #20]
 80055e2:	2270      	movs	r2, #112	; 0x70
 80055e4:	401a      	ands	r2, r3
 80055e6:	687b      	ldr	r3, [r7, #4]
 80055e8:	6a5b      	ldr	r3, [r3, #36]	; 0x24
        if ((READ_BIT(temp_pllckcfg, RCC_PLLCFGR_PLLSRC) != RCC_OscInitStruct->PLL.PLLSource) ||
 80055ea:	429a      	cmp	r2, r3
 80055ec:	d11f      	bne.n	800562e <HAL_RCC_OscConfig+0x60a>
            (READ_BIT(temp_pllckcfg, RCC_PLLCFGR_PLLN) != (RCC_OscInitStruct->PLL.PLLN << RCC_PLLCFGR_PLLN_Pos)) ||
 80055ee:	697a      	ldr	r2, [r7, #20]
 80055f0:	23fe      	movs	r3, #254	; 0xfe
 80055f2:	01db      	lsls	r3, r3, #7
 80055f4:	401a      	ands	r2, r3
 80055f6:	687b      	ldr	r3, [r7, #4]
 80055f8:	6a9b      	ldr	r3, [r3, #40]	; 0x28
 80055fa:	021b      	lsls	r3, r3, #8
            (READ_BIT(temp_pllckcfg, RCC_PLLCFGR_PLLM) != RCC_OscInitStruct->PLL.PLLM) ||
 80055fc:	429a      	cmp	r2, r3
 80055fe:	d116      	bne.n	800562e <HAL_RCC_OscConfig+0x60a>
            (READ_BIT(temp_pllckcfg, RCC_PLLCFGR_PLLP) != RCC_OscInitStruct->PLL.PLLP) ||
 8005600:	697a      	ldr	r2, [r7, #20]
 8005602:	23f8      	movs	r3, #248	; 0xf8
 8005604:	039b      	lsls	r3, r3, #14
 8005606:	401a      	ands	r2, r3
 8005608:	687b      	ldr	r3, [r7, #4]
 800560a:	6adb      	ldr	r3, [r3, #44]	; 0x2c
            (READ_BIT(temp_pllckcfg, RCC_PLLCFGR_PLLN) != (RCC_OscInitStruct->PLL.PLLN << RCC_PLLCFGR_PLLN_Pos)) ||
 800560c:	429a      	cmp	r2, r3
 800560e:	d10e      	bne.n	800562e <HAL_RCC_OscConfig+0x60a>
#if defined (RCC_PLLQ_SUPPORT)
            (READ_BIT(temp_pllckcfg, RCC_PLLCFGR_PLLQ) != RCC_OscInitStruct->PLL.PLLQ) ||
 8005610:	697a      	ldr	r2, [r7, #20]
 8005612:	23e0      	movs	r3, #224	; 0xe0
 8005614:	051b      	lsls	r3, r3, #20
 8005616:	401a      	ands	r2, r3
 8005618:	687b      	ldr	r3, [r7, #4]
 800561a:	6b1b      	ldr	r3, [r3, #48]	; 0x30
            (READ_BIT(temp_pllckcfg, RCC_PLLCFGR_PLLP) != RCC_OscInitStruct->PLL.PLLP) ||
 800561c:	429a      	cmp	r2, r3
 800561e:	d106      	bne.n	800562e <HAL_RCC_OscConfig+0x60a>
#endif /* RCC_PLLQ_SUPPORT */
            (READ_BIT(temp_pllckcfg, RCC_PLLCFGR_PLLR) != RCC_OscInitStruct->PLL.PLLR))
 8005620:	697b      	ldr	r3, [r7, #20]
 8005622:	0f5b      	lsrs	r3, r3, #29
 8005624:	075a      	lsls	r2, r3, #29
 8005626:	687b      	ldr	r3, [r7, #4]
 8005628:	6b5b      	ldr	r3, [r3, #52]	; 0x34
            (READ_BIT(temp_pllckcfg, RCC_PLLCFGR_PLLQ) != RCC_OscInitStruct->PLL.PLLQ) ||
 800562a:	429a      	cmp	r2, r3
 800562c:	d001      	beq.n	8005632 <HAL_RCC_OscConfig+0x60e>
        {
          return HAL_ERROR;
 800562e:	2301      	movs	r3, #1
 8005630:	e000      	b.n	8005634 <HAL_RCC_OscConfig+0x610>
        }
      }
    }
  }
  return HAL_OK;
 8005632:	2300      	movs	r3, #0
}
 8005634:	0018      	movs	r0, r3
 8005636:	46bd      	mov	sp, r7
 8005638:	b008      	add	sp, #32
 800563a:	bd80      	pop	{r7, pc}
 800563c:	40021000 	.word	0x40021000
 8005640:	40007000 	.word	0x40007000
 8005644:	00001388 	.word	0x00001388
 8005648:	efffffff 	.word	0xefffffff
 800564c:	feffffff 	.word	0xfeffffff
 8005650:	11c1808c 	.word	0x11c1808c
 8005654:	eefefffc 	.word	0xeefefffc

08005658 <HAL_RCC_ClockConfig>:
  *         HPRE[3:0] bits to ensure that HCLK not exceed the maximum allowed frequency
  *         (for more details refer to section above "Initialization/de-initialization functions")
  * @retval None
  */
HAL_StatusTypeDef HAL_RCC_ClockConfig(RCC_ClkInitTypeDef  *RCC_ClkInitStruct, uint32_t FLatency)
{
 8005658:	b580      	push	{r7, lr}
 800565a:	b084      	sub	sp, #16
 800565c:	af00      	add	r7, sp, #0
 800565e:	6078      	str	r0, [r7, #4]
 8005660:	6039      	str	r1, [r7, #0]
  uint32_t tickstart;

  /* Check Null pointer */
  if (RCC_ClkInitStruct == NULL)
 8005662:	687b      	ldr	r3, [r7, #4]
 8005664:	2b00      	cmp	r3, #0
 8005666:	d101      	bne.n	800566c <HAL_RCC_ClockConfig+0x14>
  {
    return HAL_ERROR;
 8005668:	2301      	movs	r3, #1
 800566a:	e0e9      	b.n	8005840 <HAL_RCC_ClockConfig+0x1e8>
  /* To correctly read data from FLASH memory, the number of wait states (LATENCY)
    must be correctly programmed according to the frequency of the FLASH clock
    (HCLK) and the supply voltage of the device. */

  /* Increasing the number of wait states because of higher CPU frequency */
  if (FLatency > __HAL_FLASH_GET_LATENCY())
 800566c:	4b76      	ldr	r3, [pc, #472]	; (8005848 <HAL_RCC_ClockConfig+0x1f0>)
 800566e:	681b      	ldr	r3, [r3, #0]
 8005670:	2207      	movs	r2, #7
 8005672:	4013      	ands	r3, r2
 8005674:	683a      	ldr	r2, [r7, #0]
 8005676:	429a      	cmp	r2, r3
 8005678:	d91e      	bls.n	80056b8 <HAL_RCC_ClockConfig+0x60>
  {
    /* Program the new number of wait states to the LATENCY bits in the FLASH_ACR register */
    __HAL_FLASH_SET_LATENCY(FLatency);
 800567a:	4b73      	ldr	r3, [pc, #460]	; (8005848 <HAL_RCC_ClockConfig+0x1f0>)
 800567c:	681b      	ldr	r3, [r3, #0]
 800567e:	2207      	movs	r2, #7
 8005680:	4393      	bics	r3, r2
 8005682:	0019      	movs	r1, r3
 8005684:	4b70      	ldr	r3, [pc, #448]	; (8005848 <HAL_RCC_ClockConfig+0x1f0>)
 8005686:	683a      	ldr	r2, [r7, #0]
 8005688:	430a      	orrs	r2, r1
 800568a:	601a      	str	r2, [r3, #0]

    /* Check that the new number of wait states is taken into account to access the Flash
    memory by polling the FLASH_ACR register */
    tickstart = HAL_GetTick();
 800568c:	f7ff fa26 	bl	8004adc <HAL_GetTick>
 8005690:	0003      	movs	r3, r0
 8005692:	60fb      	str	r3, [r7, #12]

    while ((FLASH->ACR & FLASH_ACR_LATENCY) != FLatency)
 8005694:	e009      	b.n	80056aa <HAL_RCC_ClockConfig+0x52>
    {
      if ((HAL_GetTick() - tickstart) > CLOCKSWITCH_TIMEOUT_VALUE)
 8005696:	f7ff fa21 	bl	8004adc <HAL_GetTick>
 800569a:	0002      	movs	r2, r0
 800569c:	68fb      	ldr	r3, [r7, #12]
 800569e:	1ad3      	subs	r3, r2, r3
 80056a0:	4a6a      	ldr	r2, [pc, #424]	; (800584c <HAL_RCC_ClockConfig+0x1f4>)
 80056a2:	4293      	cmp	r3, r2
 80056a4:	d901      	bls.n	80056aa <HAL_RCC_ClockConfig+0x52>
      {
        return HAL_TIMEOUT;
 80056a6:	2303      	movs	r3, #3
 80056a8:	e0ca      	b.n	8005840 <HAL_RCC_ClockConfig+0x1e8>
    while ((FLASH->ACR & FLASH_ACR_LATENCY) != FLatency)
 80056aa:	4b67      	ldr	r3, [pc, #412]	; (8005848 <HAL_RCC_ClockConfig+0x1f0>)
 80056ac:	681b      	ldr	r3, [r3, #0]
 80056ae:	2207      	movs	r2, #7
 80056b0:	4013      	ands	r3, r2
 80056b2:	683a      	ldr	r2, [r7, #0]
 80056b4:	429a      	cmp	r2, r3
 80056b6:	d1ee      	bne.n	8005696 <HAL_RCC_ClockConfig+0x3e>
      }
    }
  }

  /*-------------------------- HCLK Configuration --------------------------*/
  if (((RCC_ClkInitStruct->ClockType) & RCC_CLOCKTYPE_HCLK) == RCC_CLOCKTYPE_HCLK)
 80056b8:	687b      	ldr	r3, [r7, #4]
 80056ba:	681b      	ldr	r3, [r3, #0]
 80056bc:	2202      	movs	r2, #2
 80056be:	4013      	ands	r3, r2
 80056c0:	d015      	beq.n	80056ee <HAL_RCC_ClockConfig+0x96>
  {
    /* Set the highest APB divider in order to ensure that we do not go through
       a non-spec phase whatever we decrease or increase HCLK. */
    if (((RCC_ClkInitStruct->ClockType) & RCC_CLOCKTYPE_PCLK1) == RCC_CLOCKTYPE_PCLK1)
 80056c2:	687b      	ldr	r3, [r7, #4]
 80056c4:	681b      	ldr	r3, [r3, #0]
 80056c6:	2204      	movs	r2, #4
 80056c8:	4013      	ands	r3, r2
 80056ca:	d006      	beq.n	80056da <HAL_RCC_ClockConfig+0x82>
    {
      MODIFY_REG(RCC->CFGR, RCC_CFGR_PPRE, RCC_HCLK_DIV16);
 80056cc:	4b60      	ldr	r3, [pc, #384]	; (8005850 <HAL_RCC_ClockConfig+0x1f8>)
 80056ce:	689a      	ldr	r2, [r3, #8]
 80056d0:	4b5f      	ldr	r3, [pc, #380]	; (8005850 <HAL_RCC_ClockConfig+0x1f8>)
 80056d2:	21e0      	movs	r1, #224	; 0xe0
 80056d4:	01c9      	lsls	r1, r1, #7
 80056d6:	430a      	orrs	r2, r1
 80056d8:	609a      	str	r2, [r3, #8]
    }

    /* Set the new HCLK clock divider */
    assert_param(IS_RCC_HCLK(RCC_ClkInitStruct->AHBCLKDivider));
    MODIFY_REG(RCC->CFGR, RCC_CFGR_HPRE, RCC_ClkInitStruct->AHBCLKDivider);
 80056da:	4b5d      	ldr	r3, [pc, #372]	; (8005850 <HAL_RCC_ClockConfig+0x1f8>)
 80056dc:	689b      	ldr	r3, [r3, #8]
 80056de:	4a5d      	ldr	r2, [pc, #372]	; (8005854 <HAL_RCC_ClockConfig+0x1fc>)
 80056e0:	4013      	ands	r3, r2
 80056e2:	0019      	movs	r1, r3
 80056e4:	687b      	ldr	r3, [r7, #4]
 80056e6:	689a      	ldr	r2, [r3, #8]
 80056e8:	4b59      	ldr	r3, [pc, #356]	; (8005850 <HAL_RCC_ClockConfig+0x1f8>)
 80056ea:	430a      	orrs	r2, r1
 80056ec:	609a      	str	r2, [r3, #8]
  }

  /*------------------------- SYSCLK Configuration ---------------------------*/
  if (((RCC_ClkInitStruct->ClockType) & RCC_CLOCKTYPE_SYSCLK) == RCC_CLOCKTYPE_SYSCLK)
 80056ee:	687b      	ldr	r3, [r7, #4]
 80056f0:	681b      	ldr	r3, [r3, #0]
 80056f2:	2201      	movs	r2, #1
 80056f4:	4013      	ands	r3, r2
 80056f6:	d057      	beq.n	80057a8 <HAL_RCC_ClockConfig+0x150>
  {
    assert_param(IS_RCC_SYSCLKSOURCE(RCC_ClkInitStruct->SYSCLKSource));

    /* HSE is selected as System Clock Source */
    if (RCC_ClkInitStruct->SYSCLKSource == RCC_SYSCLKSOURCE_HSE)
 80056f8:	687b      	ldr	r3, [r7, #4]
 80056fa:	685b      	ldr	r3, [r3, #4]
 80056fc:	2b01      	cmp	r3, #1
 80056fe:	d107      	bne.n	8005710 <HAL_RCC_ClockConfig+0xb8>
    {
      /* Check the HSE ready flag */
      if (READ_BIT(RCC->CR, RCC_CR_HSERDY) == 0U)
 8005700:	4b53      	ldr	r3, [pc, #332]	; (8005850 <HAL_RCC_ClockConfig+0x1f8>)
 8005702:	681a      	ldr	r2, [r3, #0]
 8005704:	2380      	movs	r3, #128	; 0x80
 8005706:	029b      	lsls	r3, r3, #10
 8005708:	4013      	ands	r3, r2
 800570a:	d12b      	bne.n	8005764 <HAL_RCC_ClockConfig+0x10c>
      {
        return HAL_ERROR;
 800570c:	2301      	movs	r3, #1
 800570e:	e097      	b.n	8005840 <HAL_RCC_ClockConfig+0x1e8>
      }
    }
    /* PLL is selected as System Clock Source */
    else if (RCC_ClkInitStruct->SYSCLKSource == RCC_SYSCLKSOURCE_PLLCLK)
 8005710:	687b      	ldr	r3, [r7, #4]
 8005712:	685b      	ldr	r3, [r3, #4]
 8005714:	2b02      	cmp	r3, #2
 8005716:	d107      	bne.n	8005728 <HAL_RCC_ClockConfig+0xd0>
    {
      /* Check the PLL ready flag */
      if (READ_BIT(RCC->CR, RCC_CR_PLLRDY) == 0U)
 8005718:	4b4d      	ldr	r3, [pc, #308]	; (8005850 <HAL_RCC_ClockConfig+0x1f8>)
 800571a:	681a      	ldr	r2, [r3, #0]
 800571c:	2380      	movs	r3, #128	; 0x80
 800571e:	049b      	lsls	r3, r3, #18
 8005720:	4013      	ands	r3, r2
 8005722:	d11f      	bne.n	8005764 <HAL_RCC_ClockConfig+0x10c>
      {
        return HAL_ERROR;
 8005724:	2301      	movs	r3, #1
 8005726:	e08b      	b.n	8005840 <HAL_RCC_ClockConfig+0x1e8>
      }
    }
    /* HSI is selected as System Clock Source */
    else if (RCC_ClkInitStruct->SYSCLKSource == RCC_SYSCLKSOURCE_HSI)
 8005728:	687b      	ldr	r3, [r7, #4]
 800572a:	685b      	ldr	r3, [r3, #4]
 800572c:	2b00      	cmp	r3, #0
 800572e:	d107      	bne.n	8005740 <HAL_RCC_ClockConfig+0xe8>
    {
      /* Check the HSI ready flag */
      if (READ_BIT(RCC->CR, RCC_CR_HSIRDY) == 0U)
 8005730:	4b47      	ldr	r3, [pc, #284]	; (8005850 <HAL_RCC_ClockConfig+0x1f8>)
 8005732:	681a      	ldr	r2, [r3, #0]
 8005734:	2380      	movs	r3, #128	; 0x80
 8005736:	00db      	lsls	r3, r3, #3
 8005738:	4013      	ands	r3, r2
 800573a:	d113      	bne.n	8005764 <HAL_RCC_ClockConfig+0x10c>
      {
        return HAL_ERROR;
 800573c:	2301      	movs	r3, #1
 800573e:	e07f      	b.n	8005840 <HAL_RCC_ClockConfig+0x1e8>
      }
    }
    /* LSI is selected as System Clock Source */
    else if (RCC_ClkInitStruct->SYSCLKSource == RCC_SYSCLKSOURCE_LSI)
 8005740:	687b      	ldr	r3, [r7, #4]
 8005742:	685b      	ldr	r3, [r3, #4]
 8005744:	2b03      	cmp	r3, #3
 8005746:	d106      	bne.n	8005756 <HAL_RCC_ClockConfig+0xfe>
    {
      /* Check the LSI ready flag */
      if (READ_BIT(RCC->CSR, RCC_CSR_LSIRDY) == 0U)
 8005748:	4b41      	ldr	r3, [pc, #260]	; (8005850 <HAL_RCC_ClockConfig+0x1f8>)
 800574a:	6e1b      	ldr	r3, [r3, #96]	; 0x60
 800574c:	2202      	movs	r2, #2
 800574e:	4013      	ands	r3, r2
 8005750:	d108      	bne.n	8005764 <HAL_RCC_ClockConfig+0x10c>
      {
        return HAL_ERROR;
 8005752:	2301      	movs	r3, #1
 8005754:	e074      	b.n	8005840 <HAL_RCC_ClockConfig+0x1e8>
    }
    /* LSE is selected as System Clock Source */
    else
    {
      /* Check the LSE ready flag */
      if (READ_BIT(RCC->BDCR, RCC_BDCR_LSERDY) == 0U)
 8005756:	4b3e      	ldr	r3, [pc, #248]	; (8005850 <HAL_RCC_ClockConfig+0x1f8>)
 8005758:	6ddb      	ldr	r3, [r3, #92]	; 0x5c
 800575a:	2202      	movs	r2, #2
 800575c:	4013      	ands	r3, r2
 800575e:	d101      	bne.n	8005764 <HAL_RCC_ClockConfig+0x10c>
      {
        return HAL_ERROR;
 8005760:	2301      	movs	r3, #1
 8005762:	e06d      	b.n	8005840 <HAL_RCC_ClockConfig+0x1e8>
      }
    }
    MODIFY_REG(RCC->CFGR, RCC_CFGR_SW, RCC_ClkInitStruct->SYSCLKSource);
 8005764:	4b3a      	ldr	r3, [pc, #232]	; (8005850 <HAL_RCC_ClockConfig+0x1f8>)
 8005766:	689b      	ldr	r3, [r3, #8]
 8005768:	2207      	movs	r2, #7
 800576a:	4393      	bics	r3, r2
 800576c:	0019      	movs	r1, r3
 800576e:	687b      	ldr	r3, [r7, #4]
 8005770:	685a      	ldr	r2, [r3, #4]
 8005772:	4b37      	ldr	r3, [pc, #220]	; (8005850 <HAL_RCC_ClockConfig+0x1f8>)
 8005774:	430a      	orrs	r2, r1
 8005776:	609a      	str	r2, [r3, #8]

    /* Get Start Tick*/
    tickstart = HAL_GetTick();
 8005778:	f7ff f9b0 	bl	8004adc <HAL_GetTick>
 800577c:	0003      	movs	r3, r0
 800577e:	60fb      	str	r3, [r7, #12]

    while (__HAL_RCC_GET_SYSCLK_SOURCE() != (RCC_ClkInitStruct->SYSCLKSource << RCC_CFGR_SWS_Pos))
 8005780:	e009      	b.n	8005796 <HAL_RCC_ClockConfig+0x13e>
    {
      if ((HAL_GetTick() - tickstart) > CLOCKSWITCH_TIMEOUT_VALUE)
 8005782:	f7ff f9ab 	bl	8004adc <HAL_GetTick>
 8005786:	0002      	movs	r2, r0
 8005788:	68fb      	ldr	r3, [r7, #12]
 800578a:	1ad3      	subs	r3, r2, r3
 800578c:	4a2f      	ldr	r2, [pc, #188]	; (800584c <HAL_RCC_ClockConfig+0x1f4>)
 800578e:	4293      	cmp	r3, r2
 8005790:	d901      	bls.n	8005796 <HAL_RCC_ClockConfig+0x13e>
      {
        return HAL_TIMEOUT;
 8005792:	2303      	movs	r3, #3
 8005794:	e054      	b.n	8005840 <HAL_RCC_ClockConfig+0x1e8>
    while (__HAL_RCC_GET_SYSCLK_SOURCE() != (RCC_ClkInitStruct->SYSCLKSource << RCC_CFGR_SWS_Pos))
 8005796:	4b2e      	ldr	r3, [pc, #184]	; (8005850 <HAL_RCC_ClockConfig+0x1f8>)
 8005798:	689b      	ldr	r3, [r3, #8]
 800579a:	2238      	movs	r2, #56	; 0x38
 800579c:	401a      	ands	r2, r3
 800579e:	687b      	ldr	r3, [r7, #4]
 80057a0:	685b      	ldr	r3, [r3, #4]
 80057a2:	00db      	lsls	r3, r3, #3
 80057a4:	429a      	cmp	r2, r3
 80057a6:	d1ec      	bne.n	8005782 <HAL_RCC_ClockConfig+0x12a>
      }
    }
  }

  /* Decreasing the number of wait states because of lower CPU frequency */
  if (FLatency < __HAL_FLASH_GET_LATENCY())
 80057a8:	4b27      	ldr	r3, [pc, #156]	; (8005848 <HAL_RCC_ClockConfig+0x1f0>)
 80057aa:	681b      	ldr	r3, [r3, #0]
 80057ac:	2207      	movs	r2, #7
 80057ae:	4013      	ands	r3, r2
 80057b0:	683a      	ldr	r2, [r7, #0]
 80057b2:	429a      	cmp	r2, r3
 80057b4:	d21e      	bcs.n	80057f4 <HAL_RCC_ClockConfig+0x19c>
  {
    /* Program the new number of wait states to the LATENCY bits in the FLASH_ACR register */
    __HAL_FLASH_SET_LATENCY(FLatency);
 80057b6:	4b24      	ldr	r3, [pc, #144]	; (8005848 <HAL_RCC_ClockConfig+0x1f0>)
 80057b8:	681b      	ldr	r3, [r3, #0]
 80057ba:	2207      	movs	r2, #7
 80057bc:	4393      	bics	r3, r2
 80057be:	0019      	movs	r1, r3
 80057c0:	4b21      	ldr	r3, [pc, #132]	; (8005848 <HAL_RCC_ClockConfig+0x1f0>)
 80057c2:	683a      	ldr	r2, [r7, #0]
 80057c4:	430a      	orrs	r2, r1
 80057c6:	601a      	str	r2, [r3, #0]

    /* Check that the new number of wait states is taken into account to access the Flash
    memory by polling the FLASH_ACR register */
    tickstart = HAL_GetTick();
 80057c8:	f7ff f988 	bl	8004adc <HAL_GetTick>
 80057cc:	0003      	movs	r3, r0
 80057ce:	60fb      	str	r3, [r7, #12]

    while ((FLASH->ACR & FLASH_ACR_LATENCY) != FLatency)
 80057d0:	e009      	b.n	80057e6 <HAL_RCC_ClockConfig+0x18e>
    {
      if ((HAL_GetTick() - tickstart) > CLOCKSWITCH_TIMEOUT_VALUE)
 80057d2:	f7ff f983 	bl	8004adc <HAL_GetTick>
 80057d6:	0002      	movs	r2, r0
 80057d8:	68fb      	ldr	r3, [r7, #12]
 80057da:	1ad3      	subs	r3, r2, r3
 80057dc:	4a1b      	ldr	r2, [pc, #108]	; (800584c <HAL_RCC_ClockConfig+0x1f4>)
 80057de:	4293      	cmp	r3, r2
 80057e0:	d901      	bls.n	80057e6 <HAL_RCC_ClockConfig+0x18e>
      {
        return HAL_TIMEOUT;
 80057e2:	2303      	movs	r3, #3
 80057e4:	e02c      	b.n	8005840 <HAL_RCC_ClockConfig+0x1e8>
    while ((FLASH->ACR & FLASH_ACR_LATENCY) != FLatency)
 80057e6:	4b18      	ldr	r3, [pc, #96]	; (8005848 <HAL_RCC_ClockConfig+0x1f0>)
 80057e8:	681b      	ldr	r3, [r3, #0]
 80057ea:	2207      	movs	r2, #7
 80057ec:	4013      	ands	r3, r2
 80057ee:	683a      	ldr	r2, [r7, #0]
 80057f0:	429a      	cmp	r2, r3
 80057f2:	d1ee      	bne.n	80057d2 <HAL_RCC_ClockConfig+0x17a>
      }
    }
  }

  /*-------------------------- PCLK1 Configuration ---------------------------*/
  if (((RCC_ClkInitStruct->ClockType) & RCC_CLOCKTYPE_PCLK1) == RCC_CLOCKTYPE_PCLK1)
 80057f4:	687b      	ldr	r3, [r7, #4]
 80057f6:	681b      	ldr	r3, [r3, #0]
 80057f8:	2204      	movs	r2, #4
 80057fa:	4013      	ands	r3, r2
 80057fc:	d009      	beq.n	8005812 <HAL_RCC_ClockConfig+0x1ba>
  {
    assert_param(IS_RCC_PCLK(RCC_ClkInitStruct->APB1CLKDivider));
    MODIFY_REG(RCC->CFGR, RCC_CFGR_PPRE, RCC_ClkInitStruct->APB1CLKDivider);
 80057fe:	4b14      	ldr	r3, [pc, #80]	; (8005850 <HAL_RCC_ClockConfig+0x1f8>)
 8005800:	689b      	ldr	r3, [r3, #8]
 8005802:	4a15      	ldr	r2, [pc, #84]	; (8005858 <HAL_RCC_ClockConfig+0x200>)
 8005804:	4013      	ands	r3, r2
 8005806:	0019      	movs	r1, r3
 8005808:	687b      	ldr	r3, [r7, #4]
 800580a:	68da      	ldr	r2, [r3, #12]
 800580c:	4b10      	ldr	r3, [pc, #64]	; (8005850 <HAL_RCC_ClockConfig+0x1f8>)
 800580e:	430a      	orrs	r2, r1
 8005810:	609a      	str	r2, [r3, #8]
  }

  /* Update the SystemCoreClock global variable */
  SystemCoreClock = (HAL_RCC_GetSysClockFreq() >> ((AHBPrescTable[(RCC->CFGR & RCC_CFGR_HPRE) >> RCC_CFGR_HPRE_Pos]) & 0x1FU));
 8005812:	f000 f829 	bl	8005868 <HAL_RCC_GetSysClockFreq>
 8005816:	0001      	movs	r1, r0
 8005818:	4b0d      	ldr	r3, [pc, #52]	; (8005850 <HAL_RCC_ClockConfig+0x1f8>)
 800581a:	689b      	ldr	r3, [r3, #8]
 800581c:	0a1b      	lsrs	r3, r3, #8
 800581e:	220f      	movs	r2, #15
 8005820:	401a      	ands	r2, r3
 8005822:	4b0e      	ldr	r3, [pc, #56]	; (800585c <HAL_RCC_ClockConfig+0x204>)
 8005824:	0092      	lsls	r2, r2, #2
 8005826:	58d3      	ldr	r3, [r2, r3]
 8005828:	221f      	movs	r2, #31
 800582a:	4013      	ands	r3, r2
 800582c:	000a      	movs	r2, r1
 800582e:	40da      	lsrs	r2, r3
 8005830:	4b0b      	ldr	r3, [pc, #44]	; (8005860 <HAL_RCC_ClockConfig+0x208>)
 8005832:	601a      	str	r2, [r3, #0]

  /* Configure the source of time base considering new system clocks settings*/
  return HAL_InitTick(uwTickPrio);
 8005834:	4b0b      	ldr	r3, [pc, #44]	; (8005864 <HAL_RCC_ClockConfig+0x20c>)
 8005836:	681b      	ldr	r3, [r3, #0]
 8005838:	0018      	movs	r0, r3
 800583a:	f7ff f8f3 	bl	8004a24 <HAL_InitTick>
 800583e:	0003      	movs	r3, r0
}
 8005840:	0018      	movs	r0, r3
 8005842:	46bd      	mov	sp, r7
 8005844:	b004      	add	sp, #16
 8005846:	bd80      	pop	{r7, pc}
 8005848:	40022000 	.word	0x40022000
 800584c:	00001388 	.word	0x00001388
 8005850:	40021000 	.word	0x40021000
 8005854:	fffff0ff 	.word	0xfffff0ff
 8005858:	ffff8fff 	.word	0xffff8fff
 800585c:	080091d8 	.word	0x080091d8
 8005860:	20000000 	.word	0x20000000
 8005864:	20000004 	.word	0x20000004

08005868 <HAL_RCC_GetSysClockFreq>:
  *
  *
  * @retval SYSCLK frequency
  */
uint32_t HAL_RCC_GetSysClockFreq(void)
{
 8005868:	b580      	push	{r7, lr}
 800586a:	b086      	sub	sp, #24
 800586c:	af00      	add	r7, sp, #0
  uint32_t pllvco, pllsource, pllr, pllm, hsidiv;
  uint32_t sysclockfreq;

  if (__HAL_RCC_GET_SYSCLK_SOURCE() == RCC_SYSCLKSOURCE_STATUS_HSI)
 800586e:	4b3c      	ldr	r3, [pc, #240]	; (8005960 <HAL_RCC_GetSysClockFreq+0xf8>)
 8005870:	689b      	ldr	r3, [r3, #8]
 8005872:	2238      	movs	r2, #56	; 0x38
 8005874:	4013      	ands	r3, r2
 8005876:	d10f      	bne.n	8005898 <HAL_RCC_GetSysClockFreq+0x30>
  {
    /* HSISYS can be derived for HSI16 */
    hsidiv = (1UL << ((READ_BIT(RCC->CR, RCC_CR_HSIDIV)) >> RCC_CR_HSIDIV_Pos));
 8005878:	4b39      	ldr	r3, [pc, #228]	; (8005960 <HAL_RCC_GetSysClockFreq+0xf8>)
 800587a:	681b      	ldr	r3, [r3, #0]
 800587c:	0adb      	lsrs	r3, r3, #11
 800587e:	2207      	movs	r2, #7
 8005880:	4013      	ands	r3, r2
 8005882:	2201      	movs	r2, #1
 8005884:	409a      	lsls	r2, r3
 8005886:	0013      	movs	r3, r2
 8005888:	603b      	str	r3, [r7, #0]

    /* HSI used as system clock source */
    sysclockfreq = (HSI_VALUE / hsidiv);
 800588a:	6839      	ldr	r1, [r7, #0]
 800588c:	4835      	ldr	r0, [pc, #212]	; (8005964 <HAL_RCC_GetSysClockFreq+0xfc>)
 800588e:	f7fa fc55 	bl	800013c <__udivsi3>
 8005892:	0003      	movs	r3, r0
 8005894:	613b      	str	r3, [r7, #16]
 8005896:	e05d      	b.n	8005954 <HAL_RCC_GetSysClockFreq+0xec>
  }
  else if (__HAL_RCC_GET_SYSCLK_SOURCE() == RCC_SYSCLKSOURCE_STATUS_HSE)
 8005898:	4b31      	ldr	r3, [pc, #196]	; (8005960 <HAL_RCC_GetSysClockFreq+0xf8>)
 800589a:	689b      	ldr	r3, [r3, #8]
 800589c:	2238      	movs	r2, #56	; 0x38
 800589e:	4013      	ands	r3, r2
 80058a0:	2b08      	cmp	r3, #8
 80058a2:	d102      	bne.n	80058aa <HAL_RCC_GetSysClockFreq+0x42>
  {
    /* HSE used as system clock source */
    sysclockfreq = HSE_VALUE;
 80058a4:	4b30      	ldr	r3, [pc, #192]	; (8005968 <HAL_RCC_GetSysClockFreq+0x100>)
 80058a6:	613b      	str	r3, [r7, #16]
 80058a8:	e054      	b.n	8005954 <HAL_RCC_GetSysClockFreq+0xec>
  }
  else if (__HAL_RCC_GET_SYSCLK_SOURCE() == RCC_SYSCLKSOURCE_STATUS_PLLCLK)
 80058aa:	4b2d      	ldr	r3, [pc, #180]	; (8005960 <HAL_RCC_GetSysClockFreq+0xf8>)
 80058ac:	689b      	ldr	r3, [r3, #8]
 80058ae:	2238      	movs	r2, #56	; 0x38
 80058b0:	4013      	ands	r3, r2
 80058b2:	2b10      	cmp	r3, #16
 80058b4:	d138      	bne.n	8005928 <HAL_RCC_GetSysClockFreq+0xc0>
    /* PLL used as system clock  source */

    /* PLL_VCO = ((HSE_VALUE or HSI_VALUE)/ PLLM) * PLLN
    SYSCLK = PLL_VCO / PLLR
    */
    pllsource = (RCC->PLLCFGR & RCC_PLLCFGR_PLLSRC);
 80058b6:	4b2a      	ldr	r3, [pc, #168]	; (8005960 <HAL_RCC_GetSysClockFreq+0xf8>)
 80058b8:	68db      	ldr	r3, [r3, #12]
 80058ba:	2203      	movs	r2, #3
 80058bc:	4013      	ands	r3, r2
 80058be:	60fb      	str	r3, [r7, #12]
    pllm = ((RCC->PLLCFGR & RCC_PLLCFGR_PLLM) >> RCC_PLLCFGR_PLLM_Pos) + 1U ;
 80058c0:	4b27      	ldr	r3, [pc, #156]	; (8005960 <HAL_RCC_GetSysClockFreq+0xf8>)
 80058c2:	68db      	ldr	r3, [r3, #12]
 80058c4:	091b      	lsrs	r3, r3, #4
 80058c6:	2207      	movs	r2, #7
 80058c8:	4013      	ands	r3, r2
 80058ca:	3301      	adds	r3, #1
 80058cc:	60bb      	str	r3, [r7, #8]

    switch (pllsource)
 80058ce:	68fb      	ldr	r3, [r7, #12]
 80058d0:	2b03      	cmp	r3, #3
 80058d2:	d10d      	bne.n	80058f0 <HAL_RCC_GetSysClockFreq+0x88>
    {
      case RCC_PLLSOURCE_HSE:  /* HSE used as PLL clock source */
        pllvco = (HSE_VALUE / pllm) * ((RCC->PLLCFGR & RCC_PLLCFGR_PLLN) >> RCC_PLLCFGR_PLLN_Pos);
 80058d4:	68b9      	ldr	r1, [r7, #8]
 80058d6:	4824      	ldr	r0, [pc, #144]	; (8005968 <HAL_RCC_GetSysClockFreq+0x100>)
 80058d8:	f7fa fc30 	bl	800013c <__udivsi3>
 80058dc:	0003      	movs	r3, r0
 80058de:	0019      	movs	r1, r3
 80058e0:	4b1f      	ldr	r3, [pc, #124]	; (8005960 <HAL_RCC_GetSysClockFreq+0xf8>)
 80058e2:	68db      	ldr	r3, [r3, #12]
 80058e4:	0a1b      	lsrs	r3, r3, #8
 80058e6:	227f      	movs	r2, #127	; 0x7f
 80058e8:	4013      	ands	r3, r2
 80058ea:	434b      	muls	r3, r1
 80058ec:	617b      	str	r3, [r7, #20]
        break;
 80058ee:	e00d      	b.n	800590c <HAL_RCC_GetSysClockFreq+0xa4>

      case RCC_PLLSOURCE_HSI:  /* HSI16 used as PLL clock source */
      default:                 /* HSI16 used as PLL clock source */
        pllvco = (HSI_VALUE / pllm) * ((RCC->PLLCFGR & RCC_PLLCFGR_PLLN) >> RCC_PLLCFGR_PLLN_Pos) ;
 80058f0:	68b9      	ldr	r1, [r7, #8]
 80058f2:	481c      	ldr	r0, [pc, #112]	; (8005964 <HAL_RCC_GetSysClockFreq+0xfc>)
 80058f4:	f7fa fc22 	bl	800013c <__udivsi3>
 80058f8:	0003      	movs	r3, r0
 80058fa:	0019      	movs	r1, r3
 80058fc:	4b18      	ldr	r3, [pc, #96]	; (8005960 <HAL_RCC_GetSysClockFreq+0xf8>)
 80058fe:	68db      	ldr	r3, [r3, #12]
 8005900:	0a1b      	lsrs	r3, r3, #8
 8005902:	227f      	movs	r2, #127	; 0x7f
 8005904:	4013      	ands	r3, r2
 8005906:	434b      	muls	r3, r1
 8005908:	617b      	str	r3, [r7, #20]
        break;
 800590a:	46c0      	nop			; (mov r8, r8)
    }
    pllr = (((RCC->PLLCFGR & RCC_PLLCFGR_PLLR) >> RCC_PLLCFGR_PLLR_Pos) + 1U);
 800590c:	4b14      	ldr	r3, [pc, #80]	; (8005960 <HAL_RCC_GetSysClockFreq+0xf8>)
 800590e:	68db      	ldr	r3, [r3, #12]
 8005910:	0f5b      	lsrs	r3, r3, #29
 8005912:	2207      	movs	r2, #7
 8005914:	4013      	ands	r3, r2
 8005916:	3301      	adds	r3, #1
 8005918:	607b      	str	r3, [r7, #4]
    sysclockfreq = pllvco / pllr;
 800591a:	6879      	ldr	r1, [r7, #4]
 800591c:	6978      	ldr	r0, [r7, #20]
 800591e:	f7fa fc0d 	bl	800013c <__udivsi3>
 8005922:	0003      	movs	r3, r0
 8005924:	613b      	str	r3, [r7, #16]
 8005926:	e015      	b.n	8005954 <HAL_RCC_GetSysClockFreq+0xec>
  }
  else if (__HAL_RCC_GET_SYSCLK_SOURCE() == RCC_SYSCLKSOURCE_STATUS_LSE)
 8005928:	4b0d      	ldr	r3, [pc, #52]	; (8005960 <HAL_RCC_GetSysClockFreq+0xf8>)
 800592a:	689b      	ldr	r3, [r3, #8]
 800592c:	2238      	movs	r2, #56	; 0x38
 800592e:	4013      	ands	r3, r2
 8005930:	2b20      	cmp	r3, #32
 8005932:	d103      	bne.n	800593c <HAL_RCC_GetSysClockFreq+0xd4>
  {
    /* LSE used as system clock source */
    sysclockfreq = LSE_VALUE;
 8005934:	2380      	movs	r3, #128	; 0x80
 8005936:	021b      	lsls	r3, r3, #8
 8005938:	613b      	str	r3, [r7, #16]
 800593a:	e00b      	b.n	8005954 <HAL_RCC_GetSysClockFreq+0xec>
  }
  else if (__HAL_RCC_GET_SYSCLK_SOURCE() == RCC_SYSCLKSOURCE_STATUS_LSI)
 800593c:	4b08      	ldr	r3, [pc, #32]	; (8005960 <HAL_RCC_GetSysClockFreq+0xf8>)
 800593e:	689b      	ldr	r3, [r3, #8]
 8005940:	2238      	movs	r2, #56	; 0x38
 8005942:	4013      	ands	r3, r2
 8005944:	2b18      	cmp	r3, #24
 8005946:	d103      	bne.n	8005950 <HAL_RCC_GetSysClockFreq+0xe8>
  {
    /* LSI used as system clock source */
    sysclockfreq = LSI_VALUE;
 8005948:	23fa      	movs	r3, #250	; 0xfa
 800594a:	01db      	lsls	r3, r3, #7
 800594c:	613b      	str	r3, [r7, #16]
 800594e:	e001      	b.n	8005954 <HAL_RCC_GetSysClockFreq+0xec>
  }
  else
  {
    sysclockfreq = 0U;
 8005950:	2300      	movs	r3, #0
 8005952:	613b      	str	r3, [r7, #16]
  }

  return sysclockfreq;
 8005954:	693b      	ldr	r3, [r7, #16]
}
 8005956:	0018      	movs	r0, r3
 8005958:	46bd      	mov	sp, r7
 800595a:	b006      	add	sp, #24
 800595c:	bd80      	pop	{r7, pc}
 800595e:	46c0      	nop			; (mov r8, r8)
 8005960:	40021000 	.word	0x40021000
 8005964:	00f42400 	.word	0x00f42400
 8005968:	007a1200 	.word	0x007a1200

0800596c <__errno>:
 800596c:	4b01      	ldr	r3, [pc, #4]	; (8005974 <__errno+0x8>)
 800596e:	6818      	ldr	r0, [r3, #0]
 8005970:	4770      	bx	lr
 8005972:	46c0      	nop			; (mov r8, r8)
 8005974:	2000000c 	.word	0x2000000c

08005978 <__libc_init_array>:
 8005978:	b570      	push	{r4, r5, r6, lr}
 800597a:	2600      	movs	r6, #0
 800597c:	4d0c      	ldr	r5, [pc, #48]	; (80059b0 <__libc_init_array+0x38>)
 800597e:	4c0d      	ldr	r4, [pc, #52]	; (80059b4 <__libc_init_array+0x3c>)
 8005980:	1b64      	subs	r4, r4, r5
 8005982:	10a4      	asrs	r4, r4, #2
 8005984:	42a6      	cmp	r6, r4
 8005986:	d109      	bne.n	800599c <__libc_init_array+0x24>
 8005988:	2600      	movs	r6, #0
 800598a:	f003 fb13 	bl	8008fb4 <_init>
 800598e:	4d0a      	ldr	r5, [pc, #40]	; (80059b8 <__libc_init_array+0x40>)
 8005990:	4c0a      	ldr	r4, [pc, #40]	; (80059bc <__libc_init_array+0x44>)
 8005992:	1b64      	subs	r4, r4, r5
 8005994:	10a4      	asrs	r4, r4, #2
 8005996:	42a6      	cmp	r6, r4
 8005998:	d105      	bne.n	80059a6 <__libc_init_array+0x2e>
 800599a:	bd70      	pop	{r4, r5, r6, pc}
 800599c:	00b3      	lsls	r3, r6, #2
 800599e:	58eb      	ldr	r3, [r5, r3]
 80059a0:	4798      	blx	r3
 80059a2:	3601      	adds	r6, #1
 80059a4:	e7ee      	b.n	8005984 <__libc_init_array+0xc>
 80059a6:	00b3      	lsls	r3, r6, #2
 80059a8:	58eb      	ldr	r3, [r5, r3]
 80059aa:	4798      	blx	r3
 80059ac:	3601      	adds	r6, #1
 80059ae:	e7f2      	b.n	8005996 <__libc_init_array+0x1e>
 80059b0:	0800962c 	.word	0x0800962c
 80059b4:	0800962c 	.word	0x0800962c
 80059b8:	0800962c 	.word	0x0800962c
 80059bc:	08009630 	.word	0x08009630

080059c0 <memset>:
 80059c0:	0003      	movs	r3, r0
 80059c2:	1882      	adds	r2, r0, r2
 80059c4:	4293      	cmp	r3, r2
 80059c6:	d100      	bne.n	80059ca <memset+0xa>
 80059c8:	4770      	bx	lr
 80059ca:	7019      	strb	r1, [r3, #0]
 80059cc:	3301      	adds	r3, #1
 80059ce:	e7f9      	b.n	80059c4 <memset+0x4>

080059d0 <__cvt>:
 80059d0:	b5f0      	push	{r4, r5, r6, r7, lr}
 80059d2:	001e      	movs	r6, r3
 80059d4:	2300      	movs	r3, #0
 80059d6:	0014      	movs	r4, r2
 80059d8:	b08b      	sub	sp, #44	; 0x2c
 80059da:	429e      	cmp	r6, r3
 80059dc:	da04      	bge.n	80059e8 <__cvt+0x18>
 80059de:	2180      	movs	r1, #128	; 0x80
 80059e0:	0609      	lsls	r1, r1, #24
 80059e2:	1873      	adds	r3, r6, r1
 80059e4:	001e      	movs	r6, r3
 80059e6:	232d      	movs	r3, #45	; 0x2d
 80059e8:	9a12      	ldr	r2, [sp, #72]	; 0x48
 80059ea:	9f14      	ldr	r7, [sp, #80]	; 0x50
 80059ec:	7013      	strb	r3, [r2, #0]
 80059ee:	2320      	movs	r3, #32
 80059f0:	2203      	movs	r2, #3
 80059f2:	439f      	bics	r7, r3
 80059f4:	2f46      	cmp	r7, #70	; 0x46
 80059f6:	d007      	beq.n	8005a08 <__cvt+0x38>
 80059f8:	003b      	movs	r3, r7
 80059fa:	3b45      	subs	r3, #69	; 0x45
 80059fc:	4259      	negs	r1, r3
 80059fe:	414b      	adcs	r3, r1
 8005a00:	9910      	ldr	r1, [sp, #64]	; 0x40
 8005a02:	3a01      	subs	r2, #1
 8005a04:	18cb      	adds	r3, r1, r3
 8005a06:	9310      	str	r3, [sp, #64]	; 0x40
 8005a08:	ab09      	add	r3, sp, #36	; 0x24
 8005a0a:	9304      	str	r3, [sp, #16]
 8005a0c:	ab08      	add	r3, sp, #32
 8005a0e:	9303      	str	r3, [sp, #12]
 8005a10:	9b13      	ldr	r3, [sp, #76]	; 0x4c
 8005a12:	9200      	str	r2, [sp, #0]
 8005a14:	9302      	str	r3, [sp, #8]
 8005a16:	9b10      	ldr	r3, [sp, #64]	; 0x40
 8005a18:	0022      	movs	r2, r4
 8005a1a:	9301      	str	r3, [sp, #4]
 8005a1c:	0033      	movs	r3, r6
 8005a1e:	f000 fcf1 	bl	8006404 <_dtoa_r>
 8005a22:	0005      	movs	r5, r0
 8005a24:	2f47      	cmp	r7, #71	; 0x47
 8005a26:	d102      	bne.n	8005a2e <__cvt+0x5e>
 8005a28:	9b11      	ldr	r3, [sp, #68]	; 0x44
 8005a2a:	07db      	lsls	r3, r3, #31
 8005a2c:	d528      	bpl.n	8005a80 <__cvt+0xb0>
 8005a2e:	9b10      	ldr	r3, [sp, #64]	; 0x40
 8005a30:	18eb      	adds	r3, r5, r3
 8005a32:	9307      	str	r3, [sp, #28]
 8005a34:	2f46      	cmp	r7, #70	; 0x46
 8005a36:	d114      	bne.n	8005a62 <__cvt+0x92>
 8005a38:	782b      	ldrb	r3, [r5, #0]
 8005a3a:	2b30      	cmp	r3, #48	; 0x30
 8005a3c:	d10c      	bne.n	8005a58 <__cvt+0x88>
 8005a3e:	2200      	movs	r2, #0
 8005a40:	2300      	movs	r3, #0
 8005a42:	0020      	movs	r0, r4
 8005a44:	0031      	movs	r1, r6
 8005a46:	f7fa fcff 	bl	8000448 <__aeabi_dcmpeq>
 8005a4a:	2800      	cmp	r0, #0
 8005a4c:	d104      	bne.n	8005a58 <__cvt+0x88>
 8005a4e:	2301      	movs	r3, #1
 8005a50:	9a10      	ldr	r2, [sp, #64]	; 0x40
 8005a52:	1a9b      	subs	r3, r3, r2
 8005a54:	9a13      	ldr	r2, [sp, #76]	; 0x4c
 8005a56:	6013      	str	r3, [r2, #0]
 8005a58:	9b13      	ldr	r3, [sp, #76]	; 0x4c
 8005a5a:	9a07      	ldr	r2, [sp, #28]
 8005a5c:	681b      	ldr	r3, [r3, #0]
 8005a5e:	18d3      	adds	r3, r2, r3
 8005a60:	9307      	str	r3, [sp, #28]
 8005a62:	2200      	movs	r2, #0
 8005a64:	2300      	movs	r3, #0
 8005a66:	0020      	movs	r0, r4
 8005a68:	0031      	movs	r1, r6
 8005a6a:	f7fa fced 	bl	8000448 <__aeabi_dcmpeq>
 8005a6e:	2800      	cmp	r0, #0
 8005a70:	d001      	beq.n	8005a76 <__cvt+0xa6>
 8005a72:	9b07      	ldr	r3, [sp, #28]
 8005a74:	9309      	str	r3, [sp, #36]	; 0x24
 8005a76:	2230      	movs	r2, #48	; 0x30
 8005a78:	9b09      	ldr	r3, [sp, #36]	; 0x24
 8005a7a:	9907      	ldr	r1, [sp, #28]
 8005a7c:	428b      	cmp	r3, r1
 8005a7e:	d306      	bcc.n	8005a8e <__cvt+0xbe>
 8005a80:	0028      	movs	r0, r5
 8005a82:	9b09      	ldr	r3, [sp, #36]	; 0x24
 8005a84:	9a15      	ldr	r2, [sp, #84]	; 0x54
 8005a86:	1b5b      	subs	r3, r3, r5
 8005a88:	6013      	str	r3, [r2, #0]
 8005a8a:	b00b      	add	sp, #44	; 0x2c
 8005a8c:	bdf0      	pop	{r4, r5, r6, r7, pc}
 8005a8e:	1c59      	adds	r1, r3, #1
 8005a90:	9109      	str	r1, [sp, #36]	; 0x24
 8005a92:	701a      	strb	r2, [r3, #0]
 8005a94:	e7f0      	b.n	8005a78 <__cvt+0xa8>

08005a96 <__exponent>:
 8005a96:	b5f0      	push	{r4, r5, r6, r7, lr}
 8005a98:	1c83      	adds	r3, r0, #2
 8005a9a:	b087      	sub	sp, #28
 8005a9c:	9303      	str	r3, [sp, #12]
 8005a9e:	0005      	movs	r5, r0
 8005aa0:	000c      	movs	r4, r1
 8005aa2:	232b      	movs	r3, #43	; 0x2b
 8005aa4:	7002      	strb	r2, [r0, #0]
 8005aa6:	2900      	cmp	r1, #0
 8005aa8:	da01      	bge.n	8005aae <__exponent+0x18>
 8005aaa:	424c      	negs	r4, r1
 8005aac:	3302      	adds	r3, #2
 8005aae:	706b      	strb	r3, [r5, #1]
 8005ab0:	2c09      	cmp	r4, #9
 8005ab2:	dd31      	ble.n	8005b18 <__exponent+0x82>
 8005ab4:	270a      	movs	r7, #10
 8005ab6:	ab04      	add	r3, sp, #16
 8005ab8:	1dde      	adds	r6, r3, #7
 8005aba:	0020      	movs	r0, r4
 8005abc:	0039      	movs	r1, r7
 8005abe:	9601      	str	r6, [sp, #4]
 8005ac0:	f7fa fcac 	bl	800041c <__aeabi_idivmod>
 8005ac4:	3e01      	subs	r6, #1
 8005ac6:	3130      	adds	r1, #48	; 0x30
 8005ac8:	0020      	movs	r0, r4
 8005aca:	7031      	strb	r1, [r6, #0]
 8005acc:	0039      	movs	r1, r7
 8005ace:	9402      	str	r4, [sp, #8]
 8005ad0:	f7fa fbbe 	bl	8000250 <__divsi3>
 8005ad4:	9b02      	ldr	r3, [sp, #8]
 8005ad6:	0004      	movs	r4, r0
 8005ad8:	2b63      	cmp	r3, #99	; 0x63
 8005ada:	dcee      	bgt.n	8005aba <__exponent+0x24>
 8005adc:	9b01      	ldr	r3, [sp, #4]
 8005ade:	3430      	adds	r4, #48	; 0x30
 8005ae0:	1e9a      	subs	r2, r3, #2
 8005ae2:	0013      	movs	r3, r2
 8005ae4:	9903      	ldr	r1, [sp, #12]
 8005ae6:	7014      	strb	r4, [r2, #0]
 8005ae8:	a804      	add	r0, sp, #16
 8005aea:	3007      	adds	r0, #7
 8005aec:	4298      	cmp	r0, r3
 8005aee:	d80e      	bhi.n	8005b0e <__exponent+0x78>
 8005af0:	ab04      	add	r3, sp, #16
 8005af2:	3307      	adds	r3, #7
 8005af4:	2000      	movs	r0, #0
 8005af6:	429a      	cmp	r2, r3
 8005af8:	d804      	bhi.n	8005b04 <__exponent+0x6e>
 8005afa:	ab04      	add	r3, sp, #16
 8005afc:	3009      	adds	r0, #9
 8005afe:	18c0      	adds	r0, r0, r3
 8005b00:	9b01      	ldr	r3, [sp, #4]
 8005b02:	1ac0      	subs	r0, r0, r3
 8005b04:	9b03      	ldr	r3, [sp, #12]
 8005b06:	1818      	adds	r0, r3, r0
 8005b08:	1b40      	subs	r0, r0, r5
 8005b0a:	b007      	add	sp, #28
 8005b0c:	bdf0      	pop	{r4, r5, r6, r7, pc}
 8005b0e:	7818      	ldrb	r0, [r3, #0]
 8005b10:	3301      	adds	r3, #1
 8005b12:	7008      	strb	r0, [r1, #0]
 8005b14:	3101      	adds	r1, #1
 8005b16:	e7e7      	b.n	8005ae8 <__exponent+0x52>
 8005b18:	2330      	movs	r3, #48	; 0x30
 8005b1a:	18e4      	adds	r4, r4, r3
 8005b1c:	70ab      	strb	r3, [r5, #2]
 8005b1e:	1d28      	adds	r0, r5, #4
 8005b20:	70ec      	strb	r4, [r5, #3]
 8005b22:	e7f1      	b.n	8005b08 <__exponent+0x72>

08005b24 <_printf_float>:
 8005b24:	b5f0      	push	{r4, r5, r6, r7, lr}
 8005b26:	b095      	sub	sp, #84	; 0x54
 8005b28:	000c      	movs	r4, r1
 8005b2a:	9209      	str	r2, [sp, #36]	; 0x24
 8005b2c:	001e      	movs	r6, r3
 8005b2e:	9d1a      	ldr	r5, [sp, #104]	; 0x68
 8005b30:	0007      	movs	r7, r0
 8005b32:	f001 fa81 	bl	8007038 <_localeconv_r>
 8005b36:	6803      	ldr	r3, [r0, #0]
 8005b38:	0018      	movs	r0, r3
 8005b3a:	930c      	str	r3, [sp, #48]	; 0x30
 8005b3c:	f7fa fae2 	bl	8000104 <strlen>
 8005b40:	2300      	movs	r3, #0
 8005b42:	9312      	str	r3, [sp, #72]	; 0x48
 8005b44:	7e23      	ldrb	r3, [r4, #24]
 8005b46:	2207      	movs	r2, #7
 8005b48:	930a      	str	r3, [sp, #40]	; 0x28
 8005b4a:	6823      	ldr	r3, [r4, #0]
 8005b4c:	900e      	str	r0, [sp, #56]	; 0x38
 8005b4e:	930d      	str	r3, [sp, #52]	; 0x34
 8005b50:	990d      	ldr	r1, [sp, #52]	; 0x34
 8005b52:	682b      	ldr	r3, [r5, #0]
 8005b54:	05c9      	lsls	r1, r1, #23
 8005b56:	d547      	bpl.n	8005be8 <_printf_float+0xc4>
 8005b58:	189b      	adds	r3, r3, r2
 8005b5a:	4393      	bics	r3, r2
 8005b5c:	001a      	movs	r2, r3
 8005b5e:	3208      	adds	r2, #8
 8005b60:	602a      	str	r2, [r5, #0]
 8005b62:	681a      	ldr	r2, [r3, #0]
 8005b64:	685b      	ldr	r3, [r3, #4]
 8005b66:	64a2      	str	r2, [r4, #72]	; 0x48
 8005b68:	64e3      	str	r3, [r4, #76]	; 0x4c
 8005b6a:	2201      	movs	r2, #1
 8005b6c:	6ca3      	ldr	r3, [r4, #72]	; 0x48
 8005b6e:	6ce5      	ldr	r5, [r4, #76]	; 0x4c
 8005b70:	930b      	str	r3, [sp, #44]	; 0x2c
 8005b72:	006b      	lsls	r3, r5, #1
 8005b74:	085b      	lsrs	r3, r3, #1
 8005b76:	930f      	str	r3, [sp, #60]	; 0x3c
 8005b78:	980b      	ldr	r0, [sp, #44]	; 0x2c
 8005b7a:	4ba7      	ldr	r3, [pc, #668]	; (8005e18 <_printf_float+0x2f4>)
 8005b7c:	990f      	ldr	r1, [sp, #60]	; 0x3c
 8005b7e:	4252      	negs	r2, r2
 8005b80:	f7fd f856 	bl	8002c30 <__aeabi_dcmpun>
 8005b84:	2800      	cmp	r0, #0
 8005b86:	d131      	bne.n	8005bec <_printf_float+0xc8>
 8005b88:	2201      	movs	r2, #1
 8005b8a:	4ba3      	ldr	r3, [pc, #652]	; (8005e18 <_printf_float+0x2f4>)
 8005b8c:	980b      	ldr	r0, [sp, #44]	; 0x2c
 8005b8e:	990f      	ldr	r1, [sp, #60]	; 0x3c
 8005b90:	4252      	negs	r2, r2
 8005b92:	f7fa fc69 	bl	8000468 <__aeabi_dcmple>
 8005b96:	2800      	cmp	r0, #0
 8005b98:	d128      	bne.n	8005bec <_printf_float+0xc8>
 8005b9a:	2200      	movs	r2, #0
 8005b9c:	2300      	movs	r3, #0
 8005b9e:	0029      	movs	r1, r5
 8005ba0:	980b      	ldr	r0, [sp, #44]	; 0x2c
 8005ba2:	f7fa fc57 	bl	8000454 <__aeabi_dcmplt>
 8005ba6:	2800      	cmp	r0, #0
 8005ba8:	d003      	beq.n	8005bb2 <_printf_float+0x8e>
 8005baa:	0023      	movs	r3, r4
 8005bac:	222d      	movs	r2, #45	; 0x2d
 8005bae:	3343      	adds	r3, #67	; 0x43
 8005bb0:	701a      	strb	r2, [r3, #0]
 8005bb2:	9b0a      	ldr	r3, [sp, #40]	; 0x28
 8005bb4:	4d99      	ldr	r5, [pc, #612]	; (8005e1c <_printf_float+0x2f8>)
 8005bb6:	2b47      	cmp	r3, #71	; 0x47
 8005bb8:	d900      	bls.n	8005bbc <_printf_float+0x98>
 8005bba:	4d99      	ldr	r5, [pc, #612]	; (8005e20 <_printf_float+0x2fc>)
 8005bbc:	2303      	movs	r3, #3
 8005bbe:	9a0d      	ldr	r2, [sp, #52]	; 0x34
 8005bc0:	6123      	str	r3, [r4, #16]
 8005bc2:	3301      	adds	r3, #1
 8005bc4:	439a      	bics	r2, r3
 8005bc6:	2300      	movs	r3, #0
 8005bc8:	6022      	str	r2, [r4, #0]
 8005bca:	930b      	str	r3, [sp, #44]	; 0x2c
 8005bcc:	9b09      	ldr	r3, [sp, #36]	; 0x24
 8005bce:	0021      	movs	r1, r4
 8005bd0:	0038      	movs	r0, r7
 8005bd2:	9600      	str	r6, [sp, #0]
 8005bd4:	aa13      	add	r2, sp, #76	; 0x4c
 8005bd6:	f000 f9e7 	bl	8005fa8 <_printf_common>
 8005bda:	1c43      	adds	r3, r0, #1
 8005bdc:	d000      	beq.n	8005be0 <_printf_float+0xbc>
 8005bde:	e0a2      	b.n	8005d26 <_printf_float+0x202>
 8005be0:	2001      	movs	r0, #1
 8005be2:	4240      	negs	r0, r0
 8005be4:	b015      	add	sp, #84	; 0x54
 8005be6:	bdf0      	pop	{r4, r5, r6, r7, pc}
 8005be8:	3307      	adds	r3, #7
 8005bea:	e7b6      	b.n	8005b5a <_printf_float+0x36>
 8005bec:	9a0b      	ldr	r2, [sp, #44]	; 0x2c
 8005bee:	002b      	movs	r3, r5
 8005bf0:	0010      	movs	r0, r2
 8005bf2:	0029      	movs	r1, r5
 8005bf4:	f7fd f81c 	bl	8002c30 <__aeabi_dcmpun>
 8005bf8:	2800      	cmp	r0, #0
 8005bfa:	d00b      	beq.n	8005c14 <_printf_float+0xf0>
 8005bfc:	2d00      	cmp	r5, #0
 8005bfe:	da03      	bge.n	8005c08 <_printf_float+0xe4>
 8005c00:	0023      	movs	r3, r4
 8005c02:	222d      	movs	r2, #45	; 0x2d
 8005c04:	3343      	adds	r3, #67	; 0x43
 8005c06:	701a      	strb	r2, [r3, #0]
 8005c08:	9b0a      	ldr	r3, [sp, #40]	; 0x28
 8005c0a:	4d86      	ldr	r5, [pc, #536]	; (8005e24 <_printf_float+0x300>)
 8005c0c:	2b47      	cmp	r3, #71	; 0x47
 8005c0e:	d9d5      	bls.n	8005bbc <_printf_float+0x98>
 8005c10:	4d85      	ldr	r5, [pc, #532]	; (8005e28 <_printf_float+0x304>)
 8005c12:	e7d3      	b.n	8005bbc <_printf_float+0x98>
 8005c14:	2220      	movs	r2, #32
 8005c16:	990a      	ldr	r1, [sp, #40]	; 0x28
 8005c18:	6863      	ldr	r3, [r4, #4]
 8005c1a:	4391      	bics	r1, r2
 8005c1c:	910f      	str	r1, [sp, #60]	; 0x3c
 8005c1e:	1c5a      	adds	r2, r3, #1
 8005c20:	d149      	bne.n	8005cb6 <_printf_float+0x192>
 8005c22:	3307      	adds	r3, #7
 8005c24:	6063      	str	r3, [r4, #4]
 8005c26:	2380      	movs	r3, #128	; 0x80
 8005c28:	9a0d      	ldr	r2, [sp, #52]	; 0x34
 8005c2a:	00db      	lsls	r3, r3, #3
 8005c2c:	4313      	orrs	r3, r2
 8005c2e:	2200      	movs	r2, #0
 8005c30:	9206      	str	r2, [sp, #24]
 8005c32:	aa12      	add	r2, sp, #72	; 0x48
 8005c34:	9205      	str	r2, [sp, #20]
 8005c36:	9a0a      	ldr	r2, [sp, #40]	; 0x28
 8005c38:	a908      	add	r1, sp, #32
 8005c3a:	9204      	str	r2, [sp, #16]
 8005c3c:	aa11      	add	r2, sp, #68	; 0x44
 8005c3e:	9203      	str	r2, [sp, #12]
 8005c40:	2223      	movs	r2, #35	; 0x23
 8005c42:	6023      	str	r3, [r4, #0]
 8005c44:	9301      	str	r3, [sp, #4]
 8005c46:	6863      	ldr	r3, [r4, #4]
 8005c48:	1852      	adds	r2, r2, r1
 8005c4a:	9202      	str	r2, [sp, #8]
 8005c4c:	9300      	str	r3, [sp, #0]
 8005c4e:	0038      	movs	r0, r7
 8005c50:	002b      	movs	r3, r5
 8005c52:	9a0b      	ldr	r2, [sp, #44]	; 0x2c
 8005c54:	f7ff febc 	bl	80059d0 <__cvt>
 8005c58:	9b0f      	ldr	r3, [sp, #60]	; 0x3c
 8005c5a:	0005      	movs	r5, r0
 8005c5c:	9911      	ldr	r1, [sp, #68]	; 0x44
 8005c5e:	2b47      	cmp	r3, #71	; 0x47
 8005c60:	d108      	bne.n	8005c74 <_printf_float+0x150>
 8005c62:	1ccb      	adds	r3, r1, #3
 8005c64:	db02      	blt.n	8005c6c <_printf_float+0x148>
 8005c66:	6863      	ldr	r3, [r4, #4]
 8005c68:	4299      	cmp	r1, r3
 8005c6a:	dd48      	ble.n	8005cfe <_printf_float+0x1da>
 8005c6c:	9b0a      	ldr	r3, [sp, #40]	; 0x28
 8005c6e:	3b02      	subs	r3, #2
 8005c70:	b2db      	uxtb	r3, r3
 8005c72:	930a      	str	r3, [sp, #40]	; 0x28
 8005c74:	9b0a      	ldr	r3, [sp, #40]	; 0x28
 8005c76:	2b65      	cmp	r3, #101	; 0x65
 8005c78:	d824      	bhi.n	8005cc4 <_printf_float+0x1a0>
 8005c7a:	0020      	movs	r0, r4
 8005c7c:	001a      	movs	r2, r3
 8005c7e:	3901      	subs	r1, #1
 8005c80:	3050      	adds	r0, #80	; 0x50
 8005c82:	9111      	str	r1, [sp, #68]	; 0x44
 8005c84:	f7ff ff07 	bl	8005a96 <__exponent>
 8005c88:	9a12      	ldr	r2, [sp, #72]	; 0x48
 8005c8a:	900b      	str	r0, [sp, #44]	; 0x2c
 8005c8c:	1813      	adds	r3, r2, r0
 8005c8e:	6123      	str	r3, [r4, #16]
 8005c90:	2a01      	cmp	r2, #1
 8005c92:	dc02      	bgt.n	8005c9a <_printf_float+0x176>
 8005c94:	6822      	ldr	r2, [r4, #0]
 8005c96:	07d2      	lsls	r2, r2, #31
 8005c98:	d501      	bpl.n	8005c9e <_printf_float+0x17a>
 8005c9a:	3301      	adds	r3, #1
 8005c9c:	6123      	str	r3, [r4, #16]
 8005c9e:	2323      	movs	r3, #35	; 0x23
 8005ca0:	aa08      	add	r2, sp, #32
 8005ca2:	189b      	adds	r3, r3, r2
 8005ca4:	781b      	ldrb	r3, [r3, #0]
 8005ca6:	2b00      	cmp	r3, #0
 8005ca8:	d100      	bne.n	8005cac <_printf_float+0x188>
 8005caa:	e78f      	b.n	8005bcc <_printf_float+0xa8>
 8005cac:	0023      	movs	r3, r4
 8005cae:	222d      	movs	r2, #45	; 0x2d
 8005cb0:	3343      	adds	r3, #67	; 0x43
 8005cb2:	701a      	strb	r2, [r3, #0]
 8005cb4:	e78a      	b.n	8005bcc <_printf_float+0xa8>
 8005cb6:	9a0f      	ldr	r2, [sp, #60]	; 0x3c
 8005cb8:	2a47      	cmp	r2, #71	; 0x47
 8005cba:	d1b4      	bne.n	8005c26 <_printf_float+0x102>
 8005cbc:	2b00      	cmp	r3, #0
 8005cbe:	d1b2      	bne.n	8005c26 <_printf_float+0x102>
 8005cc0:	3301      	adds	r3, #1
 8005cc2:	e7af      	b.n	8005c24 <_printf_float+0x100>
 8005cc4:	9b0a      	ldr	r3, [sp, #40]	; 0x28
 8005cc6:	2b66      	cmp	r3, #102	; 0x66
 8005cc8:	d11b      	bne.n	8005d02 <_printf_float+0x1de>
 8005cca:	6863      	ldr	r3, [r4, #4]
 8005ccc:	2900      	cmp	r1, #0
 8005cce:	dd0d      	ble.n	8005cec <_printf_float+0x1c8>
 8005cd0:	6121      	str	r1, [r4, #16]
 8005cd2:	2b00      	cmp	r3, #0
 8005cd4:	d102      	bne.n	8005cdc <_printf_float+0x1b8>
 8005cd6:	6822      	ldr	r2, [r4, #0]
 8005cd8:	07d2      	lsls	r2, r2, #31
 8005cda:	d502      	bpl.n	8005ce2 <_printf_float+0x1be>
 8005cdc:	3301      	adds	r3, #1
 8005cde:	1859      	adds	r1, r3, r1
 8005ce0:	6121      	str	r1, [r4, #16]
 8005ce2:	9b11      	ldr	r3, [sp, #68]	; 0x44
 8005ce4:	65a3      	str	r3, [r4, #88]	; 0x58
 8005ce6:	2300      	movs	r3, #0
 8005ce8:	930b      	str	r3, [sp, #44]	; 0x2c
 8005cea:	e7d8      	b.n	8005c9e <_printf_float+0x17a>
 8005cec:	2b00      	cmp	r3, #0
 8005cee:	d103      	bne.n	8005cf8 <_printf_float+0x1d4>
 8005cf0:	2201      	movs	r2, #1
 8005cf2:	6821      	ldr	r1, [r4, #0]
 8005cf4:	4211      	tst	r1, r2
 8005cf6:	d000      	beq.n	8005cfa <_printf_float+0x1d6>
 8005cf8:	1c9a      	adds	r2, r3, #2
 8005cfa:	6122      	str	r2, [r4, #16]
 8005cfc:	e7f1      	b.n	8005ce2 <_printf_float+0x1be>
 8005cfe:	2367      	movs	r3, #103	; 0x67
 8005d00:	930a      	str	r3, [sp, #40]	; 0x28
 8005d02:	9b11      	ldr	r3, [sp, #68]	; 0x44
 8005d04:	9a12      	ldr	r2, [sp, #72]	; 0x48
 8005d06:	4293      	cmp	r3, r2
 8005d08:	db06      	blt.n	8005d18 <_printf_float+0x1f4>
 8005d0a:	6822      	ldr	r2, [r4, #0]
 8005d0c:	6123      	str	r3, [r4, #16]
 8005d0e:	07d2      	lsls	r2, r2, #31
 8005d10:	d5e7      	bpl.n	8005ce2 <_printf_float+0x1be>
 8005d12:	3301      	adds	r3, #1
 8005d14:	6123      	str	r3, [r4, #16]
 8005d16:	e7e4      	b.n	8005ce2 <_printf_float+0x1be>
 8005d18:	2101      	movs	r1, #1
 8005d1a:	2b00      	cmp	r3, #0
 8005d1c:	dc01      	bgt.n	8005d22 <_printf_float+0x1fe>
 8005d1e:	1849      	adds	r1, r1, r1
 8005d20:	1ac9      	subs	r1, r1, r3
 8005d22:	1852      	adds	r2, r2, r1
 8005d24:	e7e9      	b.n	8005cfa <_printf_float+0x1d6>
 8005d26:	6822      	ldr	r2, [r4, #0]
 8005d28:	0553      	lsls	r3, r2, #21
 8005d2a:	d407      	bmi.n	8005d3c <_printf_float+0x218>
 8005d2c:	6923      	ldr	r3, [r4, #16]
 8005d2e:	002a      	movs	r2, r5
 8005d30:	0038      	movs	r0, r7
 8005d32:	9909      	ldr	r1, [sp, #36]	; 0x24
 8005d34:	47b0      	blx	r6
 8005d36:	1c43      	adds	r3, r0, #1
 8005d38:	d128      	bne.n	8005d8c <_printf_float+0x268>
 8005d3a:	e751      	b.n	8005be0 <_printf_float+0xbc>
 8005d3c:	9b0a      	ldr	r3, [sp, #40]	; 0x28
 8005d3e:	2b65      	cmp	r3, #101	; 0x65
 8005d40:	d800      	bhi.n	8005d44 <_printf_float+0x220>
 8005d42:	e0e1      	b.n	8005f08 <_printf_float+0x3e4>
 8005d44:	6ca0      	ldr	r0, [r4, #72]	; 0x48
 8005d46:	6ce1      	ldr	r1, [r4, #76]	; 0x4c
 8005d48:	2200      	movs	r2, #0
 8005d4a:	2300      	movs	r3, #0
 8005d4c:	f7fa fb7c 	bl	8000448 <__aeabi_dcmpeq>
 8005d50:	2800      	cmp	r0, #0
 8005d52:	d031      	beq.n	8005db8 <_printf_float+0x294>
 8005d54:	2301      	movs	r3, #1
 8005d56:	0038      	movs	r0, r7
 8005d58:	4a34      	ldr	r2, [pc, #208]	; (8005e2c <_printf_float+0x308>)
 8005d5a:	9909      	ldr	r1, [sp, #36]	; 0x24
 8005d5c:	47b0      	blx	r6
 8005d5e:	1c43      	adds	r3, r0, #1
 8005d60:	d100      	bne.n	8005d64 <_printf_float+0x240>
 8005d62:	e73d      	b.n	8005be0 <_printf_float+0xbc>
 8005d64:	9b11      	ldr	r3, [sp, #68]	; 0x44
 8005d66:	9a12      	ldr	r2, [sp, #72]	; 0x48
 8005d68:	4293      	cmp	r3, r2
 8005d6a:	db02      	blt.n	8005d72 <_printf_float+0x24e>
 8005d6c:	6823      	ldr	r3, [r4, #0]
 8005d6e:	07db      	lsls	r3, r3, #31
 8005d70:	d50c      	bpl.n	8005d8c <_printf_float+0x268>
 8005d72:	0038      	movs	r0, r7
 8005d74:	9b0e      	ldr	r3, [sp, #56]	; 0x38
 8005d76:	9a0c      	ldr	r2, [sp, #48]	; 0x30
 8005d78:	9909      	ldr	r1, [sp, #36]	; 0x24
 8005d7a:	47b0      	blx	r6
 8005d7c:	2500      	movs	r5, #0
 8005d7e:	1c43      	adds	r3, r0, #1
 8005d80:	d100      	bne.n	8005d84 <_printf_float+0x260>
 8005d82:	e72d      	b.n	8005be0 <_printf_float+0xbc>
 8005d84:	9b12      	ldr	r3, [sp, #72]	; 0x48
 8005d86:	3b01      	subs	r3, #1
 8005d88:	42ab      	cmp	r3, r5
 8005d8a:	dc0a      	bgt.n	8005da2 <_printf_float+0x27e>
 8005d8c:	6823      	ldr	r3, [r4, #0]
 8005d8e:	079b      	lsls	r3, r3, #30
 8005d90:	d500      	bpl.n	8005d94 <_printf_float+0x270>
 8005d92:	e106      	b.n	8005fa2 <_printf_float+0x47e>
 8005d94:	9b13      	ldr	r3, [sp, #76]	; 0x4c
 8005d96:	68e0      	ldr	r0, [r4, #12]
 8005d98:	4298      	cmp	r0, r3
 8005d9a:	db00      	blt.n	8005d9e <_printf_float+0x27a>
 8005d9c:	e722      	b.n	8005be4 <_printf_float+0xc0>
 8005d9e:	0018      	movs	r0, r3
 8005da0:	e720      	b.n	8005be4 <_printf_float+0xc0>
 8005da2:	0022      	movs	r2, r4
 8005da4:	2301      	movs	r3, #1
 8005da6:	0038      	movs	r0, r7
 8005da8:	9909      	ldr	r1, [sp, #36]	; 0x24
 8005daa:	321a      	adds	r2, #26
 8005dac:	47b0      	blx	r6
 8005dae:	1c43      	adds	r3, r0, #1
 8005db0:	d100      	bne.n	8005db4 <_printf_float+0x290>
 8005db2:	e715      	b.n	8005be0 <_printf_float+0xbc>
 8005db4:	3501      	adds	r5, #1
 8005db6:	e7e5      	b.n	8005d84 <_printf_float+0x260>
 8005db8:	9b11      	ldr	r3, [sp, #68]	; 0x44
 8005dba:	2b00      	cmp	r3, #0
 8005dbc:	dc38      	bgt.n	8005e30 <_printf_float+0x30c>
 8005dbe:	2301      	movs	r3, #1
 8005dc0:	0038      	movs	r0, r7
 8005dc2:	4a1a      	ldr	r2, [pc, #104]	; (8005e2c <_printf_float+0x308>)
 8005dc4:	9909      	ldr	r1, [sp, #36]	; 0x24
 8005dc6:	47b0      	blx	r6
 8005dc8:	1c43      	adds	r3, r0, #1
 8005dca:	d100      	bne.n	8005dce <_printf_float+0x2aa>
 8005dcc:	e708      	b.n	8005be0 <_printf_float+0xbc>
 8005dce:	9b11      	ldr	r3, [sp, #68]	; 0x44
 8005dd0:	9a12      	ldr	r2, [sp, #72]	; 0x48
 8005dd2:	4313      	orrs	r3, r2
 8005dd4:	d102      	bne.n	8005ddc <_printf_float+0x2b8>
 8005dd6:	6823      	ldr	r3, [r4, #0]
 8005dd8:	07db      	lsls	r3, r3, #31
 8005dda:	d5d7      	bpl.n	8005d8c <_printf_float+0x268>
 8005ddc:	9b0e      	ldr	r3, [sp, #56]	; 0x38
 8005dde:	0038      	movs	r0, r7
 8005de0:	9a0c      	ldr	r2, [sp, #48]	; 0x30
 8005de2:	9909      	ldr	r1, [sp, #36]	; 0x24
 8005de4:	47b0      	blx	r6
 8005de6:	1c43      	adds	r3, r0, #1
 8005de8:	d100      	bne.n	8005dec <_printf_float+0x2c8>
 8005dea:	e6f9      	b.n	8005be0 <_printf_float+0xbc>
 8005dec:	2300      	movs	r3, #0
 8005dee:	930a      	str	r3, [sp, #40]	; 0x28
 8005df0:	9b11      	ldr	r3, [sp, #68]	; 0x44
 8005df2:	9a0a      	ldr	r2, [sp, #40]	; 0x28
 8005df4:	425b      	negs	r3, r3
 8005df6:	4293      	cmp	r3, r2
 8005df8:	dc01      	bgt.n	8005dfe <_printf_float+0x2da>
 8005dfa:	9b12      	ldr	r3, [sp, #72]	; 0x48
 8005dfc:	e797      	b.n	8005d2e <_printf_float+0x20a>
 8005dfe:	0022      	movs	r2, r4
 8005e00:	2301      	movs	r3, #1
 8005e02:	0038      	movs	r0, r7
 8005e04:	9909      	ldr	r1, [sp, #36]	; 0x24
 8005e06:	321a      	adds	r2, #26
 8005e08:	47b0      	blx	r6
 8005e0a:	1c43      	adds	r3, r0, #1
 8005e0c:	d100      	bne.n	8005e10 <_printf_float+0x2ec>
 8005e0e:	e6e7      	b.n	8005be0 <_printf_float+0xbc>
 8005e10:	9b0a      	ldr	r3, [sp, #40]	; 0x28
 8005e12:	3301      	adds	r3, #1
 8005e14:	e7eb      	b.n	8005dee <_printf_float+0x2ca>
 8005e16:	46c0      	nop			; (mov r8, r8)
 8005e18:	7fefffff 	.word	0x7fefffff
 8005e1c:	0800921c 	.word	0x0800921c
 8005e20:	08009220 	.word	0x08009220
 8005e24:	08009224 	.word	0x08009224
 8005e28:	08009228 	.word	0x08009228
 8005e2c:	0800922c 	.word	0x0800922c
 8005e30:	9a12      	ldr	r2, [sp, #72]	; 0x48
 8005e32:	6da3      	ldr	r3, [r4, #88]	; 0x58
 8005e34:	920a      	str	r2, [sp, #40]	; 0x28
 8005e36:	429a      	cmp	r2, r3
 8005e38:	dd00      	ble.n	8005e3c <_printf_float+0x318>
 8005e3a:	930a      	str	r3, [sp, #40]	; 0x28
 8005e3c:	9b0a      	ldr	r3, [sp, #40]	; 0x28
 8005e3e:	2b00      	cmp	r3, #0
 8005e40:	dc3c      	bgt.n	8005ebc <_printf_float+0x398>
 8005e42:	2300      	movs	r3, #0
 8005e44:	930d      	str	r3, [sp, #52]	; 0x34
 8005e46:	9b0a      	ldr	r3, [sp, #40]	; 0x28
 8005e48:	43db      	mvns	r3, r3
 8005e4a:	17db      	asrs	r3, r3, #31
 8005e4c:	930f      	str	r3, [sp, #60]	; 0x3c
 8005e4e:	6da3      	ldr	r3, [r4, #88]	; 0x58
 8005e50:	9a0f      	ldr	r2, [sp, #60]	; 0x3c
 8005e52:	930b      	str	r3, [sp, #44]	; 0x2c
 8005e54:	9b0a      	ldr	r3, [sp, #40]	; 0x28
 8005e56:	4013      	ands	r3, r2
 8005e58:	9a0b      	ldr	r2, [sp, #44]	; 0x2c
 8005e5a:	1ad3      	subs	r3, r2, r3
 8005e5c:	9a0d      	ldr	r2, [sp, #52]	; 0x34
 8005e5e:	4293      	cmp	r3, r2
 8005e60:	dc34      	bgt.n	8005ecc <_printf_float+0x3a8>
 8005e62:	9b11      	ldr	r3, [sp, #68]	; 0x44
 8005e64:	9a12      	ldr	r2, [sp, #72]	; 0x48
 8005e66:	4293      	cmp	r3, r2
 8005e68:	db3d      	blt.n	8005ee6 <_printf_float+0x3c2>
 8005e6a:	6823      	ldr	r3, [r4, #0]
 8005e6c:	07db      	lsls	r3, r3, #31
 8005e6e:	d43a      	bmi.n	8005ee6 <_printf_float+0x3c2>
 8005e70:	9a12      	ldr	r2, [sp, #72]	; 0x48
 8005e72:	9b0b      	ldr	r3, [sp, #44]	; 0x2c
 8005e74:	9911      	ldr	r1, [sp, #68]	; 0x44
 8005e76:	1ad3      	subs	r3, r2, r3
 8005e78:	1a52      	subs	r2, r2, r1
 8005e7a:	920a      	str	r2, [sp, #40]	; 0x28
 8005e7c:	429a      	cmp	r2, r3
 8005e7e:	dd00      	ble.n	8005e82 <_printf_float+0x35e>
 8005e80:	930a      	str	r3, [sp, #40]	; 0x28
 8005e82:	9b0a      	ldr	r3, [sp, #40]	; 0x28
 8005e84:	2b00      	cmp	r3, #0
 8005e86:	dc36      	bgt.n	8005ef6 <_printf_float+0x3d2>
 8005e88:	9b0a      	ldr	r3, [sp, #40]	; 0x28
 8005e8a:	2500      	movs	r5, #0
 8005e8c:	43db      	mvns	r3, r3
 8005e8e:	17db      	asrs	r3, r3, #31
 8005e90:	930b      	str	r3, [sp, #44]	; 0x2c
 8005e92:	9a11      	ldr	r2, [sp, #68]	; 0x44
 8005e94:	9b12      	ldr	r3, [sp, #72]	; 0x48
 8005e96:	990b      	ldr	r1, [sp, #44]	; 0x2c
 8005e98:	1a9b      	subs	r3, r3, r2
 8005e9a:	9a0a      	ldr	r2, [sp, #40]	; 0x28
 8005e9c:	400a      	ands	r2, r1
 8005e9e:	1a9b      	subs	r3, r3, r2
 8005ea0:	42ab      	cmp	r3, r5
 8005ea2:	dc00      	bgt.n	8005ea6 <_printf_float+0x382>
 8005ea4:	e772      	b.n	8005d8c <_printf_float+0x268>
 8005ea6:	0022      	movs	r2, r4
 8005ea8:	2301      	movs	r3, #1
 8005eaa:	0038      	movs	r0, r7
 8005eac:	9909      	ldr	r1, [sp, #36]	; 0x24
 8005eae:	321a      	adds	r2, #26
 8005eb0:	47b0      	blx	r6
 8005eb2:	1c43      	adds	r3, r0, #1
 8005eb4:	d100      	bne.n	8005eb8 <_printf_float+0x394>
 8005eb6:	e693      	b.n	8005be0 <_printf_float+0xbc>
 8005eb8:	3501      	adds	r5, #1
 8005eba:	e7ea      	b.n	8005e92 <_printf_float+0x36e>
 8005ebc:	9b0a      	ldr	r3, [sp, #40]	; 0x28
 8005ebe:	002a      	movs	r2, r5
 8005ec0:	0038      	movs	r0, r7
 8005ec2:	9909      	ldr	r1, [sp, #36]	; 0x24
 8005ec4:	47b0      	blx	r6
 8005ec6:	1c43      	adds	r3, r0, #1
 8005ec8:	d1bb      	bne.n	8005e42 <_printf_float+0x31e>
 8005eca:	e689      	b.n	8005be0 <_printf_float+0xbc>
 8005ecc:	0022      	movs	r2, r4
 8005ece:	2301      	movs	r3, #1
 8005ed0:	0038      	movs	r0, r7
 8005ed2:	9909      	ldr	r1, [sp, #36]	; 0x24
 8005ed4:	321a      	adds	r2, #26
 8005ed6:	47b0      	blx	r6
 8005ed8:	1c43      	adds	r3, r0, #1
 8005eda:	d100      	bne.n	8005ede <_printf_float+0x3ba>
 8005edc:	e680      	b.n	8005be0 <_printf_float+0xbc>
 8005ede:	9b0d      	ldr	r3, [sp, #52]	; 0x34
 8005ee0:	3301      	adds	r3, #1
 8005ee2:	930d      	str	r3, [sp, #52]	; 0x34
 8005ee4:	e7b3      	b.n	8005e4e <_printf_float+0x32a>
 8005ee6:	9b0e      	ldr	r3, [sp, #56]	; 0x38
 8005ee8:	0038      	movs	r0, r7
 8005eea:	9a0c      	ldr	r2, [sp, #48]	; 0x30
 8005eec:	9909      	ldr	r1, [sp, #36]	; 0x24
 8005eee:	47b0      	blx	r6
 8005ef0:	1c43      	adds	r3, r0, #1
 8005ef2:	d1bd      	bne.n	8005e70 <_printf_float+0x34c>
 8005ef4:	e674      	b.n	8005be0 <_printf_float+0xbc>
 8005ef6:	9b0b      	ldr	r3, [sp, #44]	; 0x2c
 8005ef8:	0038      	movs	r0, r7
 8005efa:	18ea      	adds	r2, r5, r3
 8005efc:	9909      	ldr	r1, [sp, #36]	; 0x24
 8005efe:	9b0a      	ldr	r3, [sp, #40]	; 0x28
 8005f00:	47b0      	blx	r6
 8005f02:	1c43      	adds	r3, r0, #1
 8005f04:	d1c0      	bne.n	8005e88 <_printf_float+0x364>
 8005f06:	e66b      	b.n	8005be0 <_printf_float+0xbc>
 8005f08:	9b12      	ldr	r3, [sp, #72]	; 0x48
 8005f0a:	2b01      	cmp	r3, #1
 8005f0c:	dc02      	bgt.n	8005f14 <_printf_float+0x3f0>
 8005f0e:	2301      	movs	r3, #1
 8005f10:	421a      	tst	r2, r3
 8005f12:	d034      	beq.n	8005f7e <_printf_float+0x45a>
 8005f14:	2301      	movs	r3, #1
 8005f16:	002a      	movs	r2, r5
 8005f18:	0038      	movs	r0, r7
 8005f1a:	9909      	ldr	r1, [sp, #36]	; 0x24
 8005f1c:	47b0      	blx	r6
 8005f1e:	1c43      	adds	r3, r0, #1
 8005f20:	d100      	bne.n	8005f24 <_printf_float+0x400>
 8005f22:	e65d      	b.n	8005be0 <_printf_float+0xbc>
 8005f24:	9b0e      	ldr	r3, [sp, #56]	; 0x38
 8005f26:	0038      	movs	r0, r7
 8005f28:	9a0c      	ldr	r2, [sp, #48]	; 0x30
 8005f2a:	9909      	ldr	r1, [sp, #36]	; 0x24
 8005f2c:	47b0      	blx	r6
 8005f2e:	1c43      	adds	r3, r0, #1
 8005f30:	d100      	bne.n	8005f34 <_printf_float+0x410>
 8005f32:	e655      	b.n	8005be0 <_printf_float+0xbc>
 8005f34:	6ca0      	ldr	r0, [r4, #72]	; 0x48
 8005f36:	6ce1      	ldr	r1, [r4, #76]	; 0x4c
 8005f38:	2200      	movs	r2, #0
 8005f3a:	2300      	movs	r3, #0
 8005f3c:	f7fa fa84 	bl	8000448 <__aeabi_dcmpeq>
 8005f40:	2800      	cmp	r0, #0
 8005f42:	d11a      	bne.n	8005f7a <_printf_float+0x456>
 8005f44:	9b12      	ldr	r3, [sp, #72]	; 0x48
 8005f46:	1c6a      	adds	r2, r5, #1
 8005f48:	3b01      	subs	r3, #1
 8005f4a:	0038      	movs	r0, r7
 8005f4c:	9909      	ldr	r1, [sp, #36]	; 0x24
 8005f4e:	47b0      	blx	r6
 8005f50:	1c43      	adds	r3, r0, #1
 8005f52:	d10e      	bne.n	8005f72 <_printf_float+0x44e>
 8005f54:	e644      	b.n	8005be0 <_printf_float+0xbc>
 8005f56:	0022      	movs	r2, r4
 8005f58:	2301      	movs	r3, #1
 8005f5a:	0038      	movs	r0, r7
 8005f5c:	9909      	ldr	r1, [sp, #36]	; 0x24
 8005f5e:	321a      	adds	r2, #26
 8005f60:	47b0      	blx	r6
 8005f62:	1c43      	adds	r3, r0, #1
 8005f64:	d100      	bne.n	8005f68 <_printf_float+0x444>
 8005f66:	e63b      	b.n	8005be0 <_printf_float+0xbc>
 8005f68:	3501      	adds	r5, #1
 8005f6a:	9b12      	ldr	r3, [sp, #72]	; 0x48
 8005f6c:	3b01      	subs	r3, #1
 8005f6e:	42ab      	cmp	r3, r5
 8005f70:	dcf1      	bgt.n	8005f56 <_printf_float+0x432>
 8005f72:	0022      	movs	r2, r4
 8005f74:	9b0b      	ldr	r3, [sp, #44]	; 0x2c
 8005f76:	3250      	adds	r2, #80	; 0x50
 8005f78:	e6da      	b.n	8005d30 <_printf_float+0x20c>
 8005f7a:	2500      	movs	r5, #0
 8005f7c:	e7f5      	b.n	8005f6a <_printf_float+0x446>
 8005f7e:	002a      	movs	r2, r5
 8005f80:	e7e3      	b.n	8005f4a <_printf_float+0x426>
 8005f82:	0022      	movs	r2, r4
 8005f84:	2301      	movs	r3, #1
 8005f86:	0038      	movs	r0, r7
 8005f88:	9909      	ldr	r1, [sp, #36]	; 0x24
 8005f8a:	3219      	adds	r2, #25
 8005f8c:	47b0      	blx	r6
 8005f8e:	1c43      	adds	r3, r0, #1
 8005f90:	d100      	bne.n	8005f94 <_printf_float+0x470>
 8005f92:	e625      	b.n	8005be0 <_printf_float+0xbc>
 8005f94:	3501      	adds	r5, #1
 8005f96:	68e3      	ldr	r3, [r4, #12]
 8005f98:	9a13      	ldr	r2, [sp, #76]	; 0x4c
 8005f9a:	1a9b      	subs	r3, r3, r2
 8005f9c:	42ab      	cmp	r3, r5
 8005f9e:	dcf0      	bgt.n	8005f82 <_printf_float+0x45e>
 8005fa0:	e6f8      	b.n	8005d94 <_printf_float+0x270>
 8005fa2:	2500      	movs	r5, #0
 8005fa4:	e7f7      	b.n	8005f96 <_printf_float+0x472>
 8005fa6:	46c0      	nop			; (mov r8, r8)

08005fa8 <_printf_common>:
 8005fa8:	b5f7      	push	{r0, r1, r2, r4, r5, r6, r7, lr}
 8005faa:	0015      	movs	r5, r2
 8005fac:	9301      	str	r3, [sp, #4]
 8005fae:	688a      	ldr	r2, [r1, #8]
 8005fb0:	690b      	ldr	r3, [r1, #16]
 8005fb2:	000c      	movs	r4, r1
 8005fb4:	9000      	str	r0, [sp, #0]
 8005fb6:	4293      	cmp	r3, r2
 8005fb8:	da00      	bge.n	8005fbc <_printf_common+0x14>
 8005fba:	0013      	movs	r3, r2
 8005fbc:	0022      	movs	r2, r4
 8005fbe:	602b      	str	r3, [r5, #0]
 8005fc0:	3243      	adds	r2, #67	; 0x43
 8005fc2:	7812      	ldrb	r2, [r2, #0]
 8005fc4:	2a00      	cmp	r2, #0
 8005fc6:	d001      	beq.n	8005fcc <_printf_common+0x24>
 8005fc8:	3301      	adds	r3, #1
 8005fca:	602b      	str	r3, [r5, #0]
 8005fcc:	6823      	ldr	r3, [r4, #0]
 8005fce:	069b      	lsls	r3, r3, #26
 8005fd0:	d502      	bpl.n	8005fd8 <_printf_common+0x30>
 8005fd2:	682b      	ldr	r3, [r5, #0]
 8005fd4:	3302      	adds	r3, #2
 8005fd6:	602b      	str	r3, [r5, #0]
 8005fd8:	6822      	ldr	r2, [r4, #0]
 8005fda:	2306      	movs	r3, #6
 8005fdc:	0017      	movs	r7, r2
 8005fde:	401f      	ands	r7, r3
 8005fe0:	421a      	tst	r2, r3
 8005fe2:	d027      	beq.n	8006034 <_printf_common+0x8c>
 8005fe4:	0023      	movs	r3, r4
 8005fe6:	3343      	adds	r3, #67	; 0x43
 8005fe8:	781b      	ldrb	r3, [r3, #0]
 8005fea:	1e5a      	subs	r2, r3, #1
 8005fec:	4193      	sbcs	r3, r2
 8005fee:	6822      	ldr	r2, [r4, #0]
 8005ff0:	0692      	lsls	r2, r2, #26
 8005ff2:	d430      	bmi.n	8006056 <_printf_common+0xae>
 8005ff4:	0022      	movs	r2, r4
 8005ff6:	9901      	ldr	r1, [sp, #4]
 8005ff8:	9800      	ldr	r0, [sp, #0]
 8005ffa:	9e08      	ldr	r6, [sp, #32]
 8005ffc:	3243      	adds	r2, #67	; 0x43
 8005ffe:	47b0      	blx	r6
 8006000:	1c43      	adds	r3, r0, #1
 8006002:	d025      	beq.n	8006050 <_printf_common+0xa8>
 8006004:	2306      	movs	r3, #6
 8006006:	6820      	ldr	r0, [r4, #0]
 8006008:	682a      	ldr	r2, [r5, #0]
 800600a:	68e1      	ldr	r1, [r4, #12]
 800600c:	2500      	movs	r5, #0
 800600e:	4003      	ands	r3, r0
 8006010:	2b04      	cmp	r3, #4
 8006012:	d103      	bne.n	800601c <_printf_common+0x74>
 8006014:	1a8d      	subs	r5, r1, r2
 8006016:	43eb      	mvns	r3, r5
 8006018:	17db      	asrs	r3, r3, #31
 800601a:	401d      	ands	r5, r3
 800601c:	68a3      	ldr	r3, [r4, #8]
 800601e:	6922      	ldr	r2, [r4, #16]
 8006020:	4293      	cmp	r3, r2
 8006022:	dd01      	ble.n	8006028 <_printf_common+0x80>
 8006024:	1a9b      	subs	r3, r3, r2
 8006026:	18ed      	adds	r5, r5, r3
 8006028:	2700      	movs	r7, #0
 800602a:	42bd      	cmp	r5, r7
 800602c:	d120      	bne.n	8006070 <_printf_common+0xc8>
 800602e:	2000      	movs	r0, #0
 8006030:	e010      	b.n	8006054 <_printf_common+0xac>
 8006032:	3701      	adds	r7, #1
 8006034:	68e3      	ldr	r3, [r4, #12]
 8006036:	682a      	ldr	r2, [r5, #0]
 8006038:	1a9b      	subs	r3, r3, r2
 800603a:	42bb      	cmp	r3, r7
 800603c:	ddd2      	ble.n	8005fe4 <_printf_common+0x3c>
 800603e:	0022      	movs	r2, r4
 8006040:	2301      	movs	r3, #1
 8006042:	9901      	ldr	r1, [sp, #4]
 8006044:	9800      	ldr	r0, [sp, #0]
 8006046:	9e08      	ldr	r6, [sp, #32]
 8006048:	3219      	adds	r2, #25
 800604a:	47b0      	blx	r6
 800604c:	1c43      	adds	r3, r0, #1
 800604e:	d1f0      	bne.n	8006032 <_printf_common+0x8a>
 8006050:	2001      	movs	r0, #1
 8006052:	4240      	negs	r0, r0
 8006054:	bdfe      	pop	{r1, r2, r3, r4, r5, r6, r7, pc}
 8006056:	2030      	movs	r0, #48	; 0x30
 8006058:	18e1      	adds	r1, r4, r3
 800605a:	3143      	adds	r1, #67	; 0x43
 800605c:	7008      	strb	r0, [r1, #0]
 800605e:	0021      	movs	r1, r4
 8006060:	1c5a      	adds	r2, r3, #1
 8006062:	3145      	adds	r1, #69	; 0x45
 8006064:	7809      	ldrb	r1, [r1, #0]
 8006066:	18a2      	adds	r2, r4, r2
 8006068:	3243      	adds	r2, #67	; 0x43
 800606a:	3302      	adds	r3, #2
 800606c:	7011      	strb	r1, [r2, #0]
 800606e:	e7c1      	b.n	8005ff4 <_printf_common+0x4c>
 8006070:	0022      	movs	r2, r4
 8006072:	2301      	movs	r3, #1
 8006074:	9901      	ldr	r1, [sp, #4]
 8006076:	9800      	ldr	r0, [sp, #0]
 8006078:	9e08      	ldr	r6, [sp, #32]
 800607a:	321a      	adds	r2, #26
 800607c:	47b0      	blx	r6
 800607e:	1c43      	adds	r3, r0, #1
 8006080:	d0e6      	beq.n	8006050 <_printf_common+0xa8>
 8006082:	3701      	adds	r7, #1
 8006084:	e7d1      	b.n	800602a <_printf_common+0x82>
	...

08006088 <_printf_i>:
 8006088:	b5f0      	push	{r4, r5, r6, r7, lr}
 800608a:	b08b      	sub	sp, #44	; 0x2c
 800608c:	9206      	str	r2, [sp, #24]
 800608e:	000a      	movs	r2, r1
 8006090:	3243      	adds	r2, #67	; 0x43
 8006092:	9307      	str	r3, [sp, #28]
 8006094:	9005      	str	r0, [sp, #20]
 8006096:	9204      	str	r2, [sp, #16]
 8006098:	7e0a      	ldrb	r2, [r1, #24]
 800609a:	000c      	movs	r4, r1
 800609c:	9b10      	ldr	r3, [sp, #64]	; 0x40
 800609e:	2a78      	cmp	r2, #120	; 0x78
 80060a0:	d807      	bhi.n	80060b2 <_printf_i+0x2a>
 80060a2:	2a62      	cmp	r2, #98	; 0x62
 80060a4:	d809      	bhi.n	80060ba <_printf_i+0x32>
 80060a6:	2a00      	cmp	r2, #0
 80060a8:	d100      	bne.n	80060ac <_printf_i+0x24>
 80060aa:	e0c1      	b.n	8006230 <_printf_i+0x1a8>
 80060ac:	2a58      	cmp	r2, #88	; 0x58
 80060ae:	d100      	bne.n	80060b2 <_printf_i+0x2a>
 80060b0:	e08c      	b.n	80061cc <_printf_i+0x144>
 80060b2:	0026      	movs	r6, r4
 80060b4:	3642      	adds	r6, #66	; 0x42
 80060b6:	7032      	strb	r2, [r6, #0]
 80060b8:	e022      	b.n	8006100 <_printf_i+0x78>
 80060ba:	0010      	movs	r0, r2
 80060bc:	3863      	subs	r0, #99	; 0x63
 80060be:	2815      	cmp	r0, #21
 80060c0:	d8f7      	bhi.n	80060b2 <_printf_i+0x2a>
 80060c2:	f7fa f831 	bl	8000128 <__gnu_thumb1_case_shi>
 80060c6:	0016      	.short	0x0016
 80060c8:	fff6001f 	.word	0xfff6001f
 80060cc:	fff6fff6 	.word	0xfff6fff6
 80060d0:	001ffff6 	.word	0x001ffff6
 80060d4:	fff6fff6 	.word	0xfff6fff6
 80060d8:	fff6fff6 	.word	0xfff6fff6
 80060dc:	003600a8 	.word	0x003600a8
 80060e0:	fff6009a 	.word	0xfff6009a
 80060e4:	00b9fff6 	.word	0x00b9fff6
 80060e8:	0036fff6 	.word	0x0036fff6
 80060ec:	fff6fff6 	.word	0xfff6fff6
 80060f0:	009e      	.short	0x009e
 80060f2:	0026      	movs	r6, r4
 80060f4:	681a      	ldr	r2, [r3, #0]
 80060f6:	3642      	adds	r6, #66	; 0x42
 80060f8:	1d11      	adds	r1, r2, #4
 80060fa:	6019      	str	r1, [r3, #0]
 80060fc:	6813      	ldr	r3, [r2, #0]
 80060fe:	7033      	strb	r3, [r6, #0]
 8006100:	2301      	movs	r3, #1
 8006102:	e0a7      	b.n	8006254 <_printf_i+0x1cc>
 8006104:	6808      	ldr	r0, [r1, #0]
 8006106:	6819      	ldr	r1, [r3, #0]
 8006108:	1d0a      	adds	r2, r1, #4
 800610a:	0605      	lsls	r5, r0, #24
 800610c:	d50b      	bpl.n	8006126 <_printf_i+0x9e>
 800610e:	680d      	ldr	r5, [r1, #0]
 8006110:	601a      	str	r2, [r3, #0]
 8006112:	2d00      	cmp	r5, #0
 8006114:	da03      	bge.n	800611e <_printf_i+0x96>
 8006116:	232d      	movs	r3, #45	; 0x2d
 8006118:	9a04      	ldr	r2, [sp, #16]
 800611a:	426d      	negs	r5, r5
 800611c:	7013      	strb	r3, [r2, #0]
 800611e:	4b61      	ldr	r3, [pc, #388]	; (80062a4 <_printf_i+0x21c>)
 8006120:	270a      	movs	r7, #10
 8006122:	9303      	str	r3, [sp, #12]
 8006124:	e01b      	b.n	800615e <_printf_i+0xd6>
 8006126:	680d      	ldr	r5, [r1, #0]
 8006128:	601a      	str	r2, [r3, #0]
 800612a:	0641      	lsls	r1, r0, #25
 800612c:	d5f1      	bpl.n	8006112 <_printf_i+0x8a>
 800612e:	b22d      	sxth	r5, r5
 8006130:	e7ef      	b.n	8006112 <_printf_i+0x8a>
 8006132:	680d      	ldr	r5, [r1, #0]
 8006134:	6819      	ldr	r1, [r3, #0]
 8006136:	1d08      	adds	r0, r1, #4
 8006138:	6018      	str	r0, [r3, #0]
 800613a:	062e      	lsls	r6, r5, #24
 800613c:	d501      	bpl.n	8006142 <_printf_i+0xba>
 800613e:	680d      	ldr	r5, [r1, #0]
 8006140:	e003      	b.n	800614a <_printf_i+0xc2>
 8006142:	066d      	lsls	r5, r5, #25
 8006144:	d5fb      	bpl.n	800613e <_printf_i+0xb6>
 8006146:	680d      	ldr	r5, [r1, #0]
 8006148:	b2ad      	uxth	r5, r5
 800614a:	4b56      	ldr	r3, [pc, #344]	; (80062a4 <_printf_i+0x21c>)
 800614c:	2708      	movs	r7, #8
 800614e:	9303      	str	r3, [sp, #12]
 8006150:	2a6f      	cmp	r2, #111	; 0x6f
 8006152:	d000      	beq.n	8006156 <_printf_i+0xce>
 8006154:	3702      	adds	r7, #2
 8006156:	0023      	movs	r3, r4
 8006158:	2200      	movs	r2, #0
 800615a:	3343      	adds	r3, #67	; 0x43
 800615c:	701a      	strb	r2, [r3, #0]
 800615e:	6863      	ldr	r3, [r4, #4]
 8006160:	60a3      	str	r3, [r4, #8]
 8006162:	2b00      	cmp	r3, #0
 8006164:	db03      	blt.n	800616e <_printf_i+0xe6>
 8006166:	2204      	movs	r2, #4
 8006168:	6821      	ldr	r1, [r4, #0]
 800616a:	4391      	bics	r1, r2
 800616c:	6021      	str	r1, [r4, #0]
 800616e:	2d00      	cmp	r5, #0
 8006170:	d102      	bne.n	8006178 <_printf_i+0xf0>
 8006172:	9e04      	ldr	r6, [sp, #16]
 8006174:	2b00      	cmp	r3, #0
 8006176:	d00c      	beq.n	8006192 <_printf_i+0x10a>
 8006178:	9e04      	ldr	r6, [sp, #16]
 800617a:	0028      	movs	r0, r5
 800617c:	0039      	movs	r1, r7
 800617e:	f7fa f863 	bl	8000248 <__aeabi_uidivmod>
 8006182:	9b03      	ldr	r3, [sp, #12]
 8006184:	3e01      	subs	r6, #1
 8006186:	5c5b      	ldrb	r3, [r3, r1]
 8006188:	7033      	strb	r3, [r6, #0]
 800618a:	002b      	movs	r3, r5
 800618c:	0005      	movs	r5, r0
 800618e:	429f      	cmp	r7, r3
 8006190:	d9f3      	bls.n	800617a <_printf_i+0xf2>
 8006192:	2f08      	cmp	r7, #8
 8006194:	d109      	bne.n	80061aa <_printf_i+0x122>
 8006196:	6823      	ldr	r3, [r4, #0]
 8006198:	07db      	lsls	r3, r3, #31
 800619a:	d506      	bpl.n	80061aa <_printf_i+0x122>
 800619c:	6863      	ldr	r3, [r4, #4]
 800619e:	6922      	ldr	r2, [r4, #16]
 80061a0:	4293      	cmp	r3, r2
 80061a2:	dc02      	bgt.n	80061aa <_printf_i+0x122>
 80061a4:	2330      	movs	r3, #48	; 0x30
 80061a6:	3e01      	subs	r6, #1
 80061a8:	7033      	strb	r3, [r6, #0]
 80061aa:	9b04      	ldr	r3, [sp, #16]
 80061ac:	1b9b      	subs	r3, r3, r6
 80061ae:	6123      	str	r3, [r4, #16]
 80061b0:	9b07      	ldr	r3, [sp, #28]
 80061b2:	0021      	movs	r1, r4
 80061b4:	9300      	str	r3, [sp, #0]
 80061b6:	9805      	ldr	r0, [sp, #20]
 80061b8:	9b06      	ldr	r3, [sp, #24]
 80061ba:	aa09      	add	r2, sp, #36	; 0x24
 80061bc:	f7ff fef4 	bl	8005fa8 <_printf_common>
 80061c0:	1c43      	adds	r3, r0, #1
 80061c2:	d14c      	bne.n	800625e <_printf_i+0x1d6>
 80061c4:	2001      	movs	r0, #1
 80061c6:	4240      	negs	r0, r0
 80061c8:	b00b      	add	sp, #44	; 0x2c
 80061ca:	bdf0      	pop	{r4, r5, r6, r7, pc}
 80061cc:	3145      	adds	r1, #69	; 0x45
 80061ce:	700a      	strb	r2, [r1, #0]
 80061d0:	4a34      	ldr	r2, [pc, #208]	; (80062a4 <_printf_i+0x21c>)
 80061d2:	9203      	str	r2, [sp, #12]
 80061d4:	681a      	ldr	r2, [r3, #0]
 80061d6:	6821      	ldr	r1, [r4, #0]
 80061d8:	ca20      	ldmia	r2!, {r5}
 80061da:	601a      	str	r2, [r3, #0]
 80061dc:	0608      	lsls	r0, r1, #24
 80061de:	d516      	bpl.n	800620e <_printf_i+0x186>
 80061e0:	07cb      	lsls	r3, r1, #31
 80061e2:	d502      	bpl.n	80061ea <_printf_i+0x162>
 80061e4:	2320      	movs	r3, #32
 80061e6:	4319      	orrs	r1, r3
 80061e8:	6021      	str	r1, [r4, #0]
 80061ea:	2710      	movs	r7, #16
 80061ec:	2d00      	cmp	r5, #0
 80061ee:	d1b2      	bne.n	8006156 <_printf_i+0xce>
 80061f0:	2320      	movs	r3, #32
 80061f2:	6822      	ldr	r2, [r4, #0]
 80061f4:	439a      	bics	r2, r3
 80061f6:	6022      	str	r2, [r4, #0]
 80061f8:	e7ad      	b.n	8006156 <_printf_i+0xce>
 80061fa:	2220      	movs	r2, #32
 80061fc:	6809      	ldr	r1, [r1, #0]
 80061fe:	430a      	orrs	r2, r1
 8006200:	6022      	str	r2, [r4, #0]
 8006202:	0022      	movs	r2, r4
 8006204:	2178      	movs	r1, #120	; 0x78
 8006206:	3245      	adds	r2, #69	; 0x45
 8006208:	7011      	strb	r1, [r2, #0]
 800620a:	4a27      	ldr	r2, [pc, #156]	; (80062a8 <_printf_i+0x220>)
 800620c:	e7e1      	b.n	80061d2 <_printf_i+0x14a>
 800620e:	0648      	lsls	r0, r1, #25
 8006210:	d5e6      	bpl.n	80061e0 <_printf_i+0x158>
 8006212:	b2ad      	uxth	r5, r5
 8006214:	e7e4      	b.n	80061e0 <_printf_i+0x158>
 8006216:	681a      	ldr	r2, [r3, #0]
 8006218:	680d      	ldr	r5, [r1, #0]
 800621a:	1d10      	adds	r0, r2, #4
 800621c:	6949      	ldr	r1, [r1, #20]
 800621e:	6018      	str	r0, [r3, #0]
 8006220:	6813      	ldr	r3, [r2, #0]
 8006222:	062e      	lsls	r6, r5, #24
 8006224:	d501      	bpl.n	800622a <_printf_i+0x1a2>
 8006226:	6019      	str	r1, [r3, #0]
 8006228:	e002      	b.n	8006230 <_printf_i+0x1a8>
 800622a:	066d      	lsls	r5, r5, #25
 800622c:	d5fb      	bpl.n	8006226 <_printf_i+0x19e>
 800622e:	8019      	strh	r1, [r3, #0]
 8006230:	2300      	movs	r3, #0
 8006232:	9e04      	ldr	r6, [sp, #16]
 8006234:	6123      	str	r3, [r4, #16]
 8006236:	e7bb      	b.n	80061b0 <_printf_i+0x128>
 8006238:	681a      	ldr	r2, [r3, #0]
 800623a:	1d11      	adds	r1, r2, #4
 800623c:	6019      	str	r1, [r3, #0]
 800623e:	6816      	ldr	r6, [r2, #0]
 8006240:	2100      	movs	r1, #0
 8006242:	0030      	movs	r0, r6
 8006244:	6862      	ldr	r2, [r4, #4]
 8006246:	f000 ff05 	bl	8007054 <memchr>
 800624a:	2800      	cmp	r0, #0
 800624c:	d001      	beq.n	8006252 <_printf_i+0x1ca>
 800624e:	1b80      	subs	r0, r0, r6
 8006250:	6060      	str	r0, [r4, #4]
 8006252:	6863      	ldr	r3, [r4, #4]
 8006254:	6123      	str	r3, [r4, #16]
 8006256:	2300      	movs	r3, #0
 8006258:	9a04      	ldr	r2, [sp, #16]
 800625a:	7013      	strb	r3, [r2, #0]
 800625c:	e7a8      	b.n	80061b0 <_printf_i+0x128>
 800625e:	6923      	ldr	r3, [r4, #16]
 8006260:	0032      	movs	r2, r6
 8006262:	9906      	ldr	r1, [sp, #24]
 8006264:	9805      	ldr	r0, [sp, #20]
 8006266:	9d07      	ldr	r5, [sp, #28]
 8006268:	47a8      	blx	r5
 800626a:	1c43      	adds	r3, r0, #1
 800626c:	d0aa      	beq.n	80061c4 <_printf_i+0x13c>
 800626e:	6823      	ldr	r3, [r4, #0]
 8006270:	079b      	lsls	r3, r3, #30
 8006272:	d415      	bmi.n	80062a0 <_printf_i+0x218>
 8006274:	9b09      	ldr	r3, [sp, #36]	; 0x24
 8006276:	68e0      	ldr	r0, [r4, #12]
 8006278:	4298      	cmp	r0, r3
 800627a:	daa5      	bge.n	80061c8 <_printf_i+0x140>
 800627c:	0018      	movs	r0, r3
 800627e:	e7a3      	b.n	80061c8 <_printf_i+0x140>
 8006280:	0022      	movs	r2, r4
 8006282:	2301      	movs	r3, #1
 8006284:	9906      	ldr	r1, [sp, #24]
 8006286:	9805      	ldr	r0, [sp, #20]
 8006288:	9e07      	ldr	r6, [sp, #28]
 800628a:	3219      	adds	r2, #25
 800628c:	47b0      	blx	r6
 800628e:	1c43      	adds	r3, r0, #1
 8006290:	d098      	beq.n	80061c4 <_printf_i+0x13c>
 8006292:	3501      	adds	r5, #1
 8006294:	68e3      	ldr	r3, [r4, #12]
 8006296:	9a09      	ldr	r2, [sp, #36]	; 0x24
 8006298:	1a9b      	subs	r3, r3, r2
 800629a:	42ab      	cmp	r3, r5
 800629c:	dcf0      	bgt.n	8006280 <_printf_i+0x1f8>
 800629e:	e7e9      	b.n	8006274 <_printf_i+0x1ec>
 80062a0:	2500      	movs	r5, #0
 80062a2:	e7f7      	b.n	8006294 <_printf_i+0x20c>
 80062a4:	0800922e 	.word	0x0800922e
 80062a8:	0800923f 	.word	0x0800923f

080062ac <siprintf>:
 80062ac:	b40e      	push	{r1, r2, r3}
 80062ae:	b500      	push	{lr}
 80062b0:	490b      	ldr	r1, [pc, #44]	; (80062e0 <siprintf+0x34>)
 80062b2:	b09c      	sub	sp, #112	; 0x70
 80062b4:	ab1d      	add	r3, sp, #116	; 0x74
 80062b6:	9002      	str	r0, [sp, #8]
 80062b8:	9006      	str	r0, [sp, #24]
 80062ba:	9107      	str	r1, [sp, #28]
 80062bc:	9104      	str	r1, [sp, #16]
 80062be:	4809      	ldr	r0, [pc, #36]	; (80062e4 <siprintf+0x38>)
 80062c0:	4909      	ldr	r1, [pc, #36]	; (80062e8 <siprintf+0x3c>)
 80062c2:	cb04      	ldmia	r3!, {r2}
 80062c4:	9105      	str	r1, [sp, #20]
 80062c6:	6800      	ldr	r0, [r0, #0]
 80062c8:	a902      	add	r1, sp, #8
 80062ca:	9301      	str	r3, [sp, #4]
 80062cc:	f001 fbe2 	bl	8007a94 <_svfiprintf_r>
 80062d0:	2300      	movs	r3, #0
 80062d2:	9a02      	ldr	r2, [sp, #8]
 80062d4:	7013      	strb	r3, [r2, #0]
 80062d6:	b01c      	add	sp, #112	; 0x70
 80062d8:	bc08      	pop	{r3}
 80062da:	b003      	add	sp, #12
 80062dc:	4718      	bx	r3
 80062de:	46c0      	nop			; (mov r8, r8)
 80062e0:	7fffffff 	.word	0x7fffffff
 80062e4:	2000000c 	.word	0x2000000c
 80062e8:	ffff0208 	.word	0xffff0208

080062ec <quorem>:
 80062ec:	b5f0      	push	{r4, r5, r6, r7, lr}
 80062ee:	0006      	movs	r6, r0
 80062f0:	690b      	ldr	r3, [r1, #16]
 80062f2:	6932      	ldr	r2, [r6, #16]
 80062f4:	b087      	sub	sp, #28
 80062f6:	2000      	movs	r0, #0
 80062f8:	9103      	str	r1, [sp, #12]
 80062fa:	429a      	cmp	r2, r3
 80062fc:	db65      	blt.n	80063ca <quorem+0xde>
 80062fe:	3b01      	subs	r3, #1
 8006300:	009c      	lsls	r4, r3, #2
 8006302:	9300      	str	r3, [sp, #0]
 8006304:	000b      	movs	r3, r1
 8006306:	3314      	adds	r3, #20
 8006308:	9305      	str	r3, [sp, #20]
 800630a:	191b      	adds	r3, r3, r4
 800630c:	9304      	str	r3, [sp, #16]
 800630e:	0033      	movs	r3, r6
 8006310:	3314      	adds	r3, #20
 8006312:	9302      	str	r3, [sp, #8]
 8006314:	191c      	adds	r4, r3, r4
 8006316:	9b04      	ldr	r3, [sp, #16]
 8006318:	6827      	ldr	r7, [r4, #0]
 800631a:	681b      	ldr	r3, [r3, #0]
 800631c:	0038      	movs	r0, r7
 800631e:	1c5d      	adds	r5, r3, #1
 8006320:	0029      	movs	r1, r5
 8006322:	9301      	str	r3, [sp, #4]
 8006324:	f7f9 ff0a 	bl	800013c <__udivsi3>
 8006328:	9001      	str	r0, [sp, #4]
 800632a:	42af      	cmp	r7, r5
 800632c:	d324      	bcc.n	8006378 <quorem+0x8c>
 800632e:	2500      	movs	r5, #0
 8006330:	46ac      	mov	ip, r5
 8006332:	9802      	ldr	r0, [sp, #8]
 8006334:	9f05      	ldr	r7, [sp, #20]
 8006336:	cf08      	ldmia	r7!, {r3}
 8006338:	9a01      	ldr	r2, [sp, #4]
 800633a:	b299      	uxth	r1, r3
 800633c:	4351      	muls	r1, r2
 800633e:	0c1b      	lsrs	r3, r3, #16
 8006340:	4353      	muls	r3, r2
 8006342:	1949      	adds	r1, r1, r5
 8006344:	0c0a      	lsrs	r2, r1, #16
 8006346:	189b      	adds	r3, r3, r2
 8006348:	6802      	ldr	r2, [r0, #0]
 800634a:	b289      	uxth	r1, r1
 800634c:	b292      	uxth	r2, r2
 800634e:	4462      	add	r2, ip
 8006350:	1a52      	subs	r2, r2, r1
 8006352:	6801      	ldr	r1, [r0, #0]
 8006354:	0c1d      	lsrs	r5, r3, #16
 8006356:	0c09      	lsrs	r1, r1, #16
 8006358:	b29b      	uxth	r3, r3
 800635a:	1acb      	subs	r3, r1, r3
 800635c:	1411      	asrs	r1, r2, #16
 800635e:	185b      	adds	r3, r3, r1
 8006360:	1419      	asrs	r1, r3, #16
 8006362:	b292      	uxth	r2, r2
 8006364:	041b      	lsls	r3, r3, #16
 8006366:	431a      	orrs	r2, r3
 8006368:	9b04      	ldr	r3, [sp, #16]
 800636a:	468c      	mov	ip, r1
 800636c:	c004      	stmia	r0!, {r2}
 800636e:	42bb      	cmp	r3, r7
 8006370:	d2e1      	bcs.n	8006336 <quorem+0x4a>
 8006372:	6823      	ldr	r3, [r4, #0]
 8006374:	2b00      	cmp	r3, #0
 8006376:	d030      	beq.n	80063da <quorem+0xee>
 8006378:	0030      	movs	r0, r6
 800637a:	9903      	ldr	r1, [sp, #12]
 800637c:	f001 f902 	bl	8007584 <__mcmp>
 8006380:	2800      	cmp	r0, #0
 8006382:	db21      	blt.n	80063c8 <quorem+0xdc>
 8006384:	0030      	movs	r0, r6
 8006386:	2400      	movs	r4, #0
 8006388:	9b01      	ldr	r3, [sp, #4]
 800638a:	9903      	ldr	r1, [sp, #12]
 800638c:	3301      	adds	r3, #1
 800638e:	9301      	str	r3, [sp, #4]
 8006390:	3014      	adds	r0, #20
 8006392:	3114      	adds	r1, #20
 8006394:	6803      	ldr	r3, [r0, #0]
 8006396:	c920      	ldmia	r1!, {r5}
 8006398:	b29a      	uxth	r2, r3
 800639a:	1914      	adds	r4, r2, r4
 800639c:	b2aa      	uxth	r2, r5
 800639e:	1aa2      	subs	r2, r4, r2
 80063a0:	0c1b      	lsrs	r3, r3, #16
 80063a2:	0c2d      	lsrs	r5, r5, #16
 80063a4:	1414      	asrs	r4, r2, #16
 80063a6:	1b5b      	subs	r3, r3, r5
 80063a8:	191b      	adds	r3, r3, r4
 80063aa:	141c      	asrs	r4, r3, #16
 80063ac:	b292      	uxth	r2, r2
 80063ae:	041b      	lsls	r3, r3, #16
 80063b0:	4313      	orrs	r3, r2
 80063b2:	c008      	stmia	r0!, {r3}
 80063b4:	9b04      	ldr	r3, [sp, #16]
 80063b6:	428b      	cmp	r3, r1
 80063b8:	d2ec      	bcs.n	8006394 <quorem+0xa8>
 80063ba:	9b00      	ldr	r3, [sp, #0]
 80063bc:	9a02      	ldr	r2, [sp, #8]
 80063be:	009b      	lsls	r3, r3, #2
 80063c0:	18d3      	adds	r3, r2, r3
 80063c2:	681a      	ldr	r2, [r3, #0]
 80063c4:	2a00      	cmp	r2, #0
 80063c6:	d015      	beq.n	80063f4 <quorem+0x108>
 80063c8:	9801      	ldr	r0, [sp, #4]
 80063ca:	b007      	add	sp, #28
 80063cc:	bdf0      	pop	{r4, r5, r6, r7, pc}
 80063ce:	6823      	ldr	r3, [r4, #0]
 80063d0:	2b00      	cmp	r3, #0
 80063d2:	d106      	bne.n	80063e2 <quorem+0xf6>
 80063d4:	9b00      	ldr	r3, [sp, #0]
 80063d6:	3b01      	subs	r3, #1
 80063d8:	9300      	str	r3, [sp, #0]
 80063da:	9b02      	ldr	r3, [sp, #8]
 80063dc:	3c04      	subs	r4, #4
 80063de:	42a3      	cmp	r3, r4
 80063e0:	d3f5      	bcc.n	80063ce <quorem+0xe2>
 80063e2:	9b00      	ldr	r3, [sp, #0]
 80063e4:	6133      	str	r3, [r6, #16]
 80063e6:	e7c7      	b.n	8006378 <quorem+0x8c>
 80063e8:	681a      	ldr	r2, [r3, #0]
 80063ea:	2a00      	cmp	r2, #0
 80063ec:	d106      	bne.n	80063fc <quorem+0x110>
 80063ee:	9a00      	ldr	r2, [sp, #0]
 80063f0:	3a01      	subs	r2, #1
 80063f2:	9200      	str	r2, [sp, #0]
 80063f4:	9a02      	ldr	r2, [sp, #8]
 80063f6:	3b04      	subs	r3, #4
 80063f8:	429a      	cmp	r2, r3
 80063fa:	d3f5      	bcc.n	80063e8 <quorem+0xfc>
 80063fc:	9b00      	ldr	r3, [sp, #0]
 80063fe:	6133      	str	r3, [r6, #16]
 8006400:	e7e2      	b.n	80063c8 <quorem+0xdc>
	...

08006404 <_dtoa_r>:
 8006404:	b5f0      	push	{r4, r5, r6, r7, lr}
 8006406:	b09d      	sub	sp, #116	; 0x74
 8006408:	9202      	str	r2, [sp, #8]
 800640a:	9303      	str	r3, [sp, #12]
 800640c:	9b02      	ldr	r3, [sp, #8]
 800640e:	9c03      	ldr	r4, [sp, #12]
 8006410:	9308      	str	r3, [sp, #32]
 8006412:	9409      	str	r4, [sp, #36]	; 0x24
 8006414:	6a44      	ldr	r4, [r0, #36]	; 0x24
 8006416:	0007      	movs	r7, r0
 8006418:	9d25      	ldr	r5, [sp, #148]	; 0x94
 800641a:	2c00      	cmp	r4, #0
 800641c:	d10e      	bne.n	800643c <_dtoa_r+0x38>
 800641e:	2010      	movs	r0, #16
 8006420:	f000 fe0e 	bl	8007040 <malloc>
 8006424:	1e02      	subs	r2, r0, #0
 8006426:	6278      	str	r0, [r7, #36]	; 0x24
 8006428:	d104      	bne.n	8006434 <_dtoa_r+0x30>
 800642a:	21ea      	movs	r1, #234	; 0xea
 800642c:	4bc7      	ldr	r3, [pc, #796]	; (800674c <_dtoa_r+0x348>)
 800642e:	48c8      	ldr	r0, [pc, #800]	; (8006750 <_dtoa_r+0x34c>)
 8006430:	f001 fc42 	bl	8007cb8 <__assert_func>
 8006434:	6044      	str	r4, [r0, #4]
 8006436:	6084      	str	r4, [r0, #8]
 8006438:	6004      	str	r4, [r0, #0]
 800643a:	60c4      	str	r4, [r0, #12]
 800643c:	6a7b      	ldr	r3, [r7, #36]	; 0x24
 800643e:	6819      	ldr	r1, [r3, #0]
 8006440:	2900      	cmp	r1, #0
 8006442:	d00a      	beq.n	800645a <_dtoa_r+0x56>
 8006444:	685a      	ldr	r2, [r3, #4]
 8006446:	2301      	movs	r3, #1
 8006448:	4093      	lsls	r3, r2
 800644a:	604a      	str	r2, [r1, #4]
 800644c:	608b      	str	r3, [r1, #8]
 800644e:	0038      	movs	r0, r7
 8006450:	f000 fe58 	bl	8007104 <_Bfree>
 8006454:	2200      	movs	r2, #0
 8006456:	6a7b      	ldr	r3, [r7, #36]	; 0x24
 8006458:	601a      	str	r2, [r3, #0]
 800645a:	9b03      	ldr	r3, [sp, #12]
 800645c:	2b00      	cmp	r3, #0
 800645e:	da20      	bge.n	80064a2 <_dtoa_r+0x9e>
 8006460:	2301      	movs	r3, #1
 8006462:	602b      	str	r3, [r5, #0]
 8006464:	9b03      	ldr	r3, [sp, #12]
 8006466:	005b      	lsls	r3, r3, #1
 8006468:	085b      	lsrs	r3, r3, #1
 800646a:	9309      	str	r3, [sp, #36]	; 0x24
 800646c:	9d09      	ldr	r5, [sp, #36]	; 0x24
 800646e:	4bb9      	ldr	r3, [pc, #740]	; (8006754 <_dtoa_r+0x350>)
 8006470:	4ab8      	ldr	r2, [pc, #736]	; (8006754 <_dtoa_r+0x350>)
 8006472:	402b      	ands	r3, r5
 8006474:	4293      	cmp	r3, r2
 8006476:	d117      	bne.n	80064a8 <_dtoa_r+0xa4>
 8006478:	4bb7      	ldr	r3, [pc, #732]	; (8006758 <_dtoa_r+0x354>)
 800647a:	9a24      	ldr	r2, [sp, #144]	; 0x90
 800647c:	0328      	lsls	r0, r5, #12
 800647e:	6013      	str	r3, [r2, #0]
 8006480:	9b02      	ldr	r3, [sp, #8]
 8006482:	0b00      	lsrs	r0, r0, #12
 8006484:	4318      	orrs	r0, r3
 8006486:	d101      	bne.n	800648c <_dtoa_r+0x88>
 8006488:	f000 fdbf 	bl	800700a <_dtoa_r+0xc06>
 800648c:	48b3      	ldr	r0, [pc, #716]	; (800675c <_dtoa_r+0x358>)
 800648e:	9b26      	ldr	r3, [sp, #152]	; 0x98
 8006490:	9006      	str	r0, [sp, #24]
 8006492:	2b00      	cmp	r3, #0
 8006494:	d002      	beq.n	800649c <_dtoa_r+0x98>
 8006496:	4bb2      	ldr	r3, [pc, #712]	; (8006760 <_dtoa_r+0x35c>)
 8006498:	9a26      	ldr	r2, [sp, #152]	; 0x98
 800649a:	6013      	str	r3, [r2, #0]
 800649c:	9806      	ldr	r0, [sp, #24]
 800649e:	b01d      	add	sp, #116	; 0x74
 80064a0:	bdf0      	pop	{r4, r5, r6, r7, pc}
 80064a2:	2300      	movs	r3, #0
 80064a4:	602b      	str	r3, [r5, #0]
 80064a6:	e7e1      	b.n	800646c <_dtoa_r+0x68>
 80064a8:	9b08      	ldr	r3, [sp, #32]
 80064aa:	9c09      	ldr	r4, [sp, #36]	; 0x24
 80064ac:	9312      	str	r3, [sp, #72]	; 0x48
 80064ae:	9413      	str	r4, [sp, #76]	; 0x4c
 80064b0:	9812      	ldr	r0, [sp, #72]	; 0x48
 80064b2:	9913      	ldr	r1, [sp, #76]	; 0x4c
 80064b4:	2200      	movs	r2, #0
 80064b6:	2300      	movs	r3, #0
 80064b8:	f7f9 ffc6 	bl	8000448 <__aeabi_dcmpeq>
 80064bc:	1e04      	subs	r4, r0, #0
 80064be:	d009      	beq.n	80064d4 <_dtoa_r+0xd0>
 80064c0:	2301      	movs	r3, #1
 80064c2:	9a24      	ldr	r2, [sp, #144]	; 0x90
 80064c4:	6013      	str	r3, [r2, #0]
 80064c6:	4ba7      	ldr	r3, [pc, #668]	; (8006764 <_dtoa_r+0x360>)
 80064c8:	9306      	str	r3, [sp, #24]
 80064ca:	9b26      	ldr	r3, [sp, #152]	; 0x98
 80064cc:	2b00      	cmp	r3, #0
 80064ce:	d0e5      	beq.n	800649c <_dtoa_r+0x98>
 80064d0:	4ba5      	ldr	r3, [pc, #660]	; (8006768 <_dtoa_r+0x364>)
 80064d2:	e7e1      	b.n	8006498 <_dtoa_r+0x94>
 80064d4:	ab1a      	add	r3, sp, #104	; 0x68
 80064d6:	9301      	str	r3, [sp, #4]
 80064d8:	ab1b      	add	r3, sp, #108	; 0x6c
 80064da:	9300      	str	r3, [sp, #0]
 80064dc:	0038      	movs	r0, r7
 80064de:	9a12      	ldr	r2, [sp, #72]	; 0x48
 80064e0:	9b13      	ldr	r3, [sp, #76]	; 0x4c
 80064e2:	f001 f903 	bl	80076ec <__d2b>
 80064e6:	006e      	lsls	r6, r5, #1
 80064e8:	9005      	str	r0, [sp, #20]
 80064ea:	0d76      	lsrs	r6, r6, #21
 80064ec:	d100      	bne.n	80064f0 <_dtoa_r+0xec>
 80064ee:	e07c      	b.n	80065ea <_dtoa_r+0x1e6>
 80064f0:	9812      	ldr	r0, [sp, #72]	; 0x48
 80064f2:	9913      	ldr	r1, [sp, #76]	; 0x4c
 80064f4:	9b13      	ldr	r3, [sp, #76]	; 0x4c
 80064f6:	4a9d      	ldr	r2, [pc, #628]	; (800676c <_dtoa_r+0x368>)
 80064f8:	031b      	lsls	r3, r3, #12
 80064fa:	0b1b      	lsrs	r3, r3, #12
 80064fc:	431a      	orrs	r2, r3
 80064fe:	0011      	movs	r1, r2
 8006500:	4b9b      	ldr	r3, [pc, #620]	; (8006770 <_dtoa_r+0x36c>)
 8006502:	9418      	str	r4, [sp, #96]	; 0x60
 8006504:	18f6      	adds	r6, r6, r3
 8006506:	2200      	movs	r2, #0
 8006508:	4b9a      	ldr	r3, [pc, #616]	; (8006774 <_dtoa_r+0x370>)
 800650a:	f7fb ffff 	bl	800250c <__aeabi_dsub>
 800650e:	4a9a      	ldr	r2, [pc, #616]	; (8006778 <_dtoa_r+0x374>)
 8006510:	4b9a      	ldr	r3, [pc, #616]	; (800677c <_dtoa_r+0x378>)
 8006512:	f7fb fd8f 	bl	8002034 <__aeabi_dmul>
 8006516:	4a9a      	ldr	r2, [pc, #616]	; (8006780 <_dtoa_r+0x37c>)
 8006518:	4b9a      	ldr	r3, [pc, #616]	; (8006784 <_dtoa_r+0x380>)
 800651a:	f7fa fe4d 	bl	80011b8 <__aeabi_dadd>
 800651e:	0004      	movs	r4, r0
 8006520:	0030      	movs	r0, r6
 8006522:	000d      	movs	r5, r1
 8006524:	f7fc fbd8 	bl	8002cd8 <__aeabi_i2d>
 8006528:	4a97      	ldr	r2, [pc, #604]	; (8006788 <_dtoa_r+0x384>)
 800652a:	4b98      	ldr	r3, [pc, #608]	; (800678c <_dtoa_r+0x388>)
 800652c:	f7fb fd82 	bl	8002034 <__aeabi_dmul>
 8006530:	0002      	movs	r2, r0
 8006532:	000b      	movs	r3, r1
 8006534:	0020      	movs	r0, r4
 8006536:	0029      	movs	r1, r5
 8006538:	f7fa fe3e 	bl	80011b8 <__aeabi_dadd>
 800653c:	0004      	movs	r4, r0
 800653e:	000d      	movs	r5, r1
 8006540:	f7fc fb94 	bl	8002c6c <__aeabi_d2iz>
 8006544:	2200      	movs	r2, #0
 8006546:	9002      	str	r0, [sp, #8]
 8006548:	2300      	movs	r3, #0
 800654a:	0020      	movs	r0, r4
 800654c:	0029      	movs	r1, r5
 800654e:	f7f9 ff81 	bl	8000454 <__aeabi_dcmplt>
 8006552:	2800      	cmp	r0, #0
 8006554:	d00b      	beq.n	800656e <_dtoa_r+0x16a>
 8006556:	9802      	ldr	r0, [sp, #8]
 8006558:	f7fc fbbe 	bl	8002cd8 <__aeabi_i2d>
 800655c:	002b      	movs	r3, r5
 800655e:	0022      	movs	r2, r4
 8006560:	f7f9 ff72 	bl	8000448 <__aeabi_dcmpeq>
 8006564:	4243      	negs	r3, r0
 8006566:	4158      	adcs	r0, r3
 8006568:	9b02      	ldr	r3, [sp, #8]
 800656a:	1a1b      	subs	r3, r3, r0
 800656c:	9302      	str	r3, [sp, #8]
 800656e:	2301      	movs	r3, #1
 8006570:	9316      	str	r3, [sp, #88]	; 0x58
 8006572:	9b02      	ldr	r3, [sp, #8]
 8006574:	2b16      	cmp	r3, #22
 8006576:	d80f      	bhi.n	8006598 <_dtoa_r+0x194>
 8006578:	9812      	ldr	r0, [sp, #72]	; 0x48
 800657a:	9913      	ldr	r1, [sp, #76]	; 0x4c
 800657c:	00da      	lsls	r2, r3, #3
 800657e:	4b84      	ldr	r3, [pc, #528]	; (8006790 <_dtoa_r+0x38c>)
 8006580:	189b      	adds	r3, r3, r2
 8006582:	681a      	ldr	r2, [r3, #0]
 8006584:	685b      	ldr	r3, [r3, #4]
 8006586:	f7f9 ff65 	bl	8000454 <__aeabi_dcmplt>
 800658a:	2800      	cmp	r0, #0
 800658c:	d049      	beq.n	8006622 <_dtoa_r+0x21e>
 800658e:	9b02      	ldr	r3, [sp, #8]
 8006590:	3b01      	subs	r3, #1
 8006592:	9302      	str	r3, [sp, #8]
 8006594:	2300      	movs	r3, #0
 8006596:	9316      	str	r3, [sp, #88]	; 0x58
 8006598:	9b1a      	ldr	r3, [sp, #104]	; 0x68
 800659a:	1b9e      	subs	r6, r3, r6
 800659c:	2300      	movs	r3, #0
 800659e:	930a      	str	r3, [sp, #40]	; 0x28
 80065a0:	0033      	movs	r3, r6
 80065a2:	3b01      	subs	r3, #1
 80065a4:	930d      	str	r3, [sp, #52]	; 0x34
 80065a6:	d504      	bpl.n	80065b2 <_dtoa_r+0x1ae>
 80065a8:	2301      	movs	r3, #1
 80065aa:	1b9b      	subs	r3, r3, r6
 80065ac:	930a      	str	r3, [sp, #40]	; 0x28
 80065ae:	2300      	movs	r3, #0
 80065b0:	930d      	str	r3, [sp, #52]	; 0x34
 80065b2:	9b02      	ldr	r3, [sp, #8]
 80065b4:	2b00      	cmp	r3, #0
 80065b6:	db36      	blt.n	8006626 <_dtoa_r+0x222>
 80065b8:	9a02      	ldr	r2, [sp, #8]
 80065ba:	9b0d      	ldr	r3, [sp, #52]	; 0x34
 80065bc:	4694      	mov	ip, r2
 80065be:	4463      	add	r3, ip
 80065c0:	930d      	str	r3, [sp, #52]	; 0x34
 80065c2:	2300      	movs	r3, #0
 80065c4:	9215      	str	r2, [sp, #84]	; 0x54
 80065c6:	930e      	str	r3, [sp, #56]	; 0x38
 80065c8:	9b22      	ldr	r3, [sp, #136]	; 0x88
 80065ca:	2401      	movs	r4, #1
 80065cc:	2b09      	cmp	r3, #9
 80065ce:	d864      	bhi.n	800669a <_dtoa_r+0x296>
 80065d0:	2b05      	cmp	r3, #5
 80065d2:	dd02      	ble.n	80065da <_dtoa_r+0x1d6>
 80065d4:	2400      	movs	r4, #0
 80065d6:	3b04      	subs	r3, #4
 80065d8:	9322      	str	r3, [sp, #136]	; 0x88
 80065da:	9b22      	ldr	r3, [sp, #136]	; 0x88
 80065dc:	1e98      	subs	r0, r3, #2
 80065de:	2803      	cmp	r0, #3
 80065e0:	d864      	bhi.n	80066ac <_dtoa_r+0x2a8>
 80065e2:	f7f9 fd97 	bl	8000114 <__gnu_thumb1_case_uqi>
 80065e6:	3829      	.short	0x3829
 80065e8:	5836      	.short	0x5836
 80065ea:	9b1a      	ldr	r3, [sp, #104]	; 0x68
 80065ec:	9a1b      	ldr	r2, [sp, #108]	; 0x6c
 80065ee:	189e      	adds	r6, r3, r2
 80065f0:	4b68      	ldr	r3, [pc, #416]	; (8006794 <_dtoa_r+0x390>)
 80065f2:	18f2      	adds	r2, r6, r3
 80065f4:	2a20      	cmp	r2, #32
 80065f6:	dd0f      	ble.n	8006618 <_dtoa_r+0x214>
 80065f8:	2340      	movs	r3, #64	; 0x40
 80065fa:	1a9b      	subs	r3, r3, r2
 80065fc:	409d      	lsls	r5, r3
 80065fe:	4b66      	ldr	r3, [pc, #408]	; (8006798 <_dtoa_r+0x394>)
 8006600:	9802      	ldr	r0, [sp, #8]
 8006602:	18f3      	adds	r3, r6, r3
 8006604:	40d8      	lsrs	r0, r3
 8006606:	4328      	orrs	r0, r5
 8006608:	f7fc fb96 	bl	8002d38 <__aeabi_ui2d>
 800660c:	2301      	movs	r3, #1
 800660e:	4c63      	ldr	r4, [pc, #396]	; (800679c <_dtoa_r+0x398>)
 8006610:	3e01      	subs	r6, #1
 8006612:	1909      	adds	r1, r1, r4
 8006614:	9318      	str	r3, [sp, #96]	; 0x60
 8006616:	e776      	b.n	8006506 <_dtoa_r+0x102>
 8006618:	2320      	movs	r3, #32
 800661a:	9802      	ldr	r0, [sp, #8]
 800661c:	1a9b      	subs	r3, r3, r2
 800661e:	4098      	lsls	r0, r3
 8006620:	e7f2      	b.n	8006608 <_dtoa_r+0x204>
 8006622:	9016      	str	r0, [sp, #88]	; 0x58
 8006624:	e7b8      	b.n	8006598 <_dtoa_r+0x194>
 8006626:	9b0a      	ldr	r3, [sp, #40]	; 0x28
 8006628:	9a02      	ldr	r2, [sp, #8]
 800662a:	1a9b      	subs	r3, r3, r2
 800662c:	930a      	str	r3, [sp, #40]	; 0x28
 800662e:	4253      	negs	r3, r2
 8006630:	930e      	str	r3, [sp, #56]	; 0x38
 8006632:	2300      	movs	r3, #0
 8006634:	9315      	str	r3, [sp, #84]	; 0x54
 8006636:	e7c7      	b.n	80065c8 <_dtoa_r+0x1c4>
 8006638:	2300      	movs	r3, #0
 800663a:	930f      	str	r3, [sp, #60]	; 0x3c
 800663c:	9b23      	ldr	r3, [sp, #140]	; 0x8c
 800663e:	930c      	str	r3, [sp, #48]	; 0x30
 8006640:	9307      	str	r3, [sp, #28]
 8006642:	2b00      	cmp	r3, #0
 8006644:	dc13      	bgt.n	800666e <_dtoa_r+0x26a>
 8006646:	2301      	movs	r3, #1
 8006648:	001a      	movs	r2, r3
 800664a:	930c      	str	r3, [sp, #48]	; 0x30
 800664c:	9307      	str	r3, [sp, #28]
 800664e:	9223      	str	r2, [sp, #140]	; 0x8c
 8006650:	e00d      	b.n	800666e <_dtoa_r+0x26a>
 8006652:	2301      	movs	r3, #1
 8006654:	e7f1      	b.n	800663a <_dtoa_r+0x236>
 8006656:	2300      	movs	r3, #0
 8006658:	9a23      	ldr	r2, [sp, #140]	; 0x8c
 800665a:	930f      	str	r3, [sp, #60]	; 0x3c
 800665c:	4694      	mov	ip, r2
 800665e:	9b02      	ldr	r3, [sp, #8]
 8006660:	4463      	add	r3, ip
 8006662:	930c      	str	r3, [sp, #48]	; 0x30
 8006664:	3301      	adds	r3, #1
 8006666:	9307      	str	r3, [sp, #28]
 8006668:	2b00      	cmp	r3, #0
 800666a:	dc00      	bgt.n	800666e <_dtoa_r+0x26a>
 800666c:	2301      	movs	r3, #1
 800666e:	2200      	movs	r2, #0
 8006670:	6a78      	ldr	r0, [r7, #36]	; 0x24
 8006672:	6042      	str	r2, [r0, #4]
 8006674:	3204      	adds	r2, #4
 8006676:	0015      	movs	r5, r2
 8006678:	3514      	adds	r5, #20
 800667a:	6841      	ldr	r1, [r0, #4]
 800667c:	429d      	cmp	r5, r3
 800667e:	d919      	bls.n	80066b4 <_dtoa_r+0x2b0>
 8006680:	0038      	movs	r0, r7
 8006682:	f000 fcfb 	bl	800707c <_Balloc>
 8006686:	9006      	str	r0, [sp, #24]
 8006688:	2800      	cmp	r0, #0
 800668a:	d117      	bne.n	80066bc <_dtoa_r+0x2b8>
 800668c:	21d5      	movs	r1, #213	; 0xd5
 800668e:	0002      	movs	r2, r0
 8006690:	4b43      	ldr	r3, [pc, #268]	; (80067a0 <_dtoa_r+0x39c>)
 8006692:	0049      	lsls	r1, r1, #1
 8006694:	e6cb      	b.n	800642e <_dtoa_r+0x2a>
 8006696:	2301      	movs	r3, #1
 8006698:	e7de      	b.n	8006658 <_dtoa_r+0x254>
 800669a:	2300      	movs	r3, #0
 800669c:	940f      	str	r4, [sp, #60]	; 0x3c
 800669e:	9322      	str	r3, [sp, #136]	; 0x88
 80066a0:	3b01      	subs	r3, #1
 80066a2:	930c      	str	r3, [sp, #48]	; 0x30
 80066a4:	9307      	str	r3, [sp, #28]
 80066a6:	2200      	movs	r2, #0
 80066a8:	3313      	adds	r3, #19
 80066aa:	e7d0      	b.n	800664e <_dtoa_r+0x24a>
 80066ac:	2301      	movs	r3, #1
 80066ae:	930f      	str	r3, [sp, #60]	; 0x3c
 80066b0:	3b02      	subs	r3, #2
 80066b2:	e7f6      	b.n	80066a2 <_dtoa_r+0x29e>
 80066b4:	3101      	adds	r1, #1
 80066b6:	6041      	str	r1, [r0, #4]
 80066b8:	0052      	lsls	r2, r2, #1
 80066ba:	e7dc      	b.n	8006676 <_dtoa_r+0x272>
 80066bc:	6a7b      	ldr	r3, [r7, #36]	; 0x24
 80066be:	9a06      	ldr	r2, [sp, #24]
 80066c0:	601a      	str	r2, [r3, #0]
 80066c2:	9b07      	ldr	r3, [sp, #28]
 80066c4:	2b0e      	cmp	r3, #14
 80066c6:	d900      	bls.n	80066ca <_dtoa_r+0x2c6>
 80066c8:	e0eb      	b.n	80068a2 <_dtoa_r+0x49e>
 80066ca:	2c00      	cmp	r4, #0
 80066cc:	d100      	bne.n	80066d0 <_dtoa_r+0x2cc>
 80066ce:	e0e8      	b.n	80068a2 <_dtoa_r+0x49e>
 80066d0:	9b02      	ldr	r3, [sp, #8]
 80066d2:	2b00      	cmp	r3, #0
 80066d4:	dd68      	ble.n	80067a8 <_dtoa_r+0x3a4>
 80066d6:	001a      	movs	r2, r3
 80066d8:	210f      	movs	r1, #15
 80066da:	4b2d      	ldr	r3, [pc, #180]	; (8006790 <_dtoa_r+0x38c>)
 80066dc:	400a      	ands	r2, r1
 80066de:	00d2      	lsls	r2, r2, #3
 80066e0:	189b      	adds	r3, r3, r2
 80066e2:	681d      	ldr	r5, [r3, #0]
 80066e4:	685e      	ldr	r6, [r3, #4]
 80066e6:	9b02      	ldr	r3, [sp, #8]
 80066e8:	111c      	asrs	r4, r3, #4
 80066ea:	2302      	movs	r3, #2
 80066ec:	9310      	str	r3, [sp, #64]	; 0x40
 80066ee:	9b02      	ldr	r3, [sp, #8]
 80066f0:	05db      	lsls	r3, r3, #23
 80066f2:	d50b      	bpl.n	800670c <_dtoa_r+0x308>
 80066f4:	4b2b      	ldr	r3, [pc, #172]	; (80067a4 <_dtoa_r+0x3a0>)
 80066f6:	400c      	ands	r4, r1
 80066f8:	6a1a      	ldr	r2, [r3, #32]
 80066fa:	6a5b      	ldr	r3, [r3, #36]	; 0x24
 80066fc:	9812      	ldr	r0, [sp, #72]	; 0x48
 80066fe:	9913      	ldr	r1, [sp, #76]	; 0x4c
 8006700:	f7fb f896 	bl	8001830 <__aeabi_ddiv>
 8006704:	2303      	movs	r3, #3
 8006706:	9008      	str	r0, [sp, #32]
 8006708:	9109      	str	r1, [sp, #36]	; 0x24
 800670a:	9310      	str	r3, [sp, #64]	; 0x40
 800670c:	4b25      	ldr	r3, [pc, #148]	; (80067a4 <_dtoa_r+0x3a0>)
 800670e:	9314      	str	r3, [sp, #80]	; 0x50
 8006710:	2c00      	cmp	r4, #0
 8006712:	d108      	bne.n	8006726 <_dtoa_r+0x322>
 8006714:	9808      	ldr	r0, [sp, #32]
 8006716:	9909      	ldr	r1, [sp, #36]	; 0x24
 8006718:	002a      	movs	r2, r5
 800671a:	0033      	movs	r3, r6
 800671c:	f7fb f888 	bl	8001830 <__aeabi_ddiv>
 8006720:	9008      	str	r0, [sp, #32]
 8006722:	9109      	str	r1, [sp, #36]	; 0x24
 8006724:	e05c      	b.n	80067e0 <_dtoa_r+0x3dc>
 8006726:	2301      	movs	r3, #1
 8006728:	421c      	tst	r4, r3
 800672a:	d00b      	beq.n	8006744 <_dtoa_r+0x340>
 800672c:	9b10      	ldr	r3, [sp, #64]	; 0x40
 800672e:	0028      	movs	r0, r5
 8006730:	3301      	adds	r3, #1
 8006732:	9310      	str	r3, [sp, #64]	; 0x40
 8006734:	9b14      	ldr	r3, [sp, #80]	; 0x50
 8006736:	0031      	movs	r1, r6
 8006738:	681a      	ldr	r2, [r3, #0]
 800673a:	685b      	ldr	r3, [r3, #4]
 800673c:	f7fb fc7a 	bl	8002034 <__aeabi_dmul>
 8006740:	0005      	movs	r5, r0
 8006742:	000e      	movs	r6, r1
 8006744:	9b14      	ldr	r3, [sp, #80]	; 0x50
 8006746:	1064      	asrs	r4, r4, #1
 8006748:	3308      	adds	r3, #8
 800674a:	e7e0      	b.n	800670e <_dtoa_r+0x30a>
 800674c:	0800925d 	.word	0x0800925d
 8006750:	08009274 	.word	0x08009274
 8006754:	7ff00000 	.word	0x7ff00000
 8006758:	0000270f 	.word	0x0000270f
 800675c:	08009259 	.word	0x08009259
 8006760:	0800925c 	.word	0x0800925c
 8006764:	0800922c 	.word	0x0800922c
 8006768:	0800922d 	.word	0x0800922d
 800676c:	3ff00000 	.word	0x3ff00000
 8006770:	fffffc01 	.word	0xfffffc01
 8006774:	3ff80000 	.word	0x3ff80000
 8006778:	636f4361 	.word	0x636f4361
 800677c:	3fd287a7 	.word	0x3fd287a7
 8006780:	8b60c8b3 	.word	0x8b60c8b3
 8006784:	3fc68a28 	.word	0x3fc68a28
 8006788:	509f79fb 	.word	0x509f79fb
 800678c:	3fd34413 	.word	0x3fd34413
 8006790:	08009368 	.word	0x08009368
 8006794:	00000432 	.word	0x00000432
 8006798:	00000412 	.word	0x00000412
 800679c:	fe100000 	.word	0xfe100000
 80067a0:	080092cf 	.word	0x080092cf
 80067a4:	08009340 	.word	0x08009340
 80067a8:	2302      	movs	r3, #2
 80067aa:	9310      	str	r3, [sp, #64]	; 0x40
 80067ac:	9b02      	ldr	r3, [sp, #8]
 80067ae:	2b00      	cmp	r3, #0
 80067b0:	d016      	beq.n	80067e0 <_dtoa_r+0x3dc>
 80067b2:	9812      	ldr	r0, [sp, #72]	; 0x48
 80067b4:	9913      	ldr	r1, [sp, #76]	; 0x4c
 80067b6:	425c      	negs	r4, r3
 80067b8:	230f      	movs	r3, #15
 80067ba:	4ab6      	ldr	r2, [pc, #728]	; (8006a94 <_dtoa_r+0x690>)
 80067bc:	4023      	ands	r3, r4
 80067be:	00db      	lsls	r3, r3, #3
 80067c0:	18d3      	adds	r3, r2, r3
 80067c2:	681a      	ldr	r2, [r3, #0]
 80067c4:	685b      	ldr	r3, [r3, #4]
 80067c6:	f7fb fc35 	bl	8002034 <__aeabi_dmul>
 80067ca:	2601      	movs	r6, #1
 80067cc:	2300      	movs	r3, #0
 80067ce:	9008      	str	r0, [sp, #32]
 80067d0:	9109      	str	r1, [sp, #36]	; 0x24
 80067d2:	4db1      	ldr	r5, [pc, #708]	; (8006a98 <_dtoa_r+0x694>)
 80067d4:	1124      	asrs	r4, r4, #4
 80067d6:	2c00      	cmp	r4, #0
 80067d8:	d000      	beq.n	80067dc <_dtoa_r+0x3d8>
 80067da:	e094      	b.n	8006906 <_dtoa_r+0x502>
 80067dc:	2b00      	cmp	r3, #0
 80067de:	d19f      	bne.n	8006720 <_dtoa_r+0x31c>
 80067e0:	9b16      	ldr	r3, [sp, #88]	; 0x58
 80067e2:	2b00      	cmp	r3, #0
 80067e4:	d100      	bne.n	80067e8 <_dtoa_r+0x3e4>
 80067e6:	e09b      	b.n	8006920 <_dtoa_r+0x51c>
 80067e8:	9c08      	ldr	r4, [sp, #32]
 80067ea:	9d09      	ldr	r5, [sp, #36]	; 0x24
 80067ec:	2200      	movs	r2, #0
 80067ee:	0020      	movs	r0, r4
 80067f0:	0029      	movs	r1, r5
 80067f2:	4baa      	ldr	r3, [pc, #680]	; (8006a9c <_dtoa_r+0x698>)
 80067f4:	f7f9 fe2e 	bl	8000454 <__aeabi_dcmplt>
 80067f8:	2800      	cmp	r0, #0
 80067fa:	d100      	bne.n	80067fe <_dtoa_r+0x3fa>
 80067fc:	e090      	b.n	8006920 <_dtoa_r+0x51c>
 80067fe:	9b07      	ldr	r3, [sp, #28]
 8006800:	2b00      	cmp	r3, #0
 8006802:	d100      	bne.n	8006806 <_dtoa_r+0x402>
 8006804:	e08c      	b.n	8006920 <_dtoa_r+0x51c>
 8006806:	9b0c      	ldr	r3, [sp, #48]	; 0x30
 8006808:	2b00      	cmp	r3, #0
 800680a:	dd46      	ble.n	800689a <_dtoa_r+0x496>
 800680c:	9b02      	ldr	r3, [sp, #8]
 800680e:	2200      	movs	r2, #0
 8006810:	0020      	movs	r0, r4
 8006812:	0029      	movs	r1, r5
 8006814:	1e5e      	subs	r6, r3, #1
 8006816:	4ba2      	ldr	r3, [pc, #648]	; (8006aa0 <_dtoa_r+0x69c>)
 8006818:	f7fb fc0c 	bl	8002034 <__aeabi_dmul>
 800681c:	9b10      	ldr	r3, [sp, #64]	; 0x40
 800681e:	9008      	str	r0, [sp, #32]
 8006820:	9109      	str	r1, [sp, #36]	; 0x24
 8006822:	3301      	adds	r3, #1
 8006824:	9310      	str	r3, [sp, #64]	; 0x40
 8006826:	9b0c      	ldr	r3, [sp, #48]	; 0x30
 8006828:	9810      	ldr	r0, [sp, #64]	; 0x40
 800682a:	9c08      	ldr	r4, [sp, #32]
 800682c:	9d09      	ldr	r5, [sp, #36]	; 0x24
 800682e:	9314      	str	r3, [sp, #80]	; 0x50
 8006830:	f7fc fa52 	bl	8002cd8 <__aeabi_i2d>
 8006834:	0022      	movs	r2, r4
 8006836:	002b      	movs	r3, r5
 8006838:	f7fb fbfc 	bl	8002034 <__aeabi_dmul>
 800683c:	2200      	movs	r2, #0
 800683e:	4b99      	ldr	r3, [pc, #612]	; (8006aa4 <_dtoa_r+0x6a0>)
 8006840:	f7fa fcba 	bl	80011b8 <__aeabi_dadd>
 8006844:	9010      	str	r0, [sp, #64]	; 0x40
 8006846:	9111      	str	r1, [sp, #68]	; 0x44
 8006848:	9a10      	ldr	r2, [sp, #64]	; 0x40
 800684a:	9b11      	ldr	r3, [sp, #68]	; 0x44
 800684c:	9208      	str	r2, [sp, #32]
 800684e:	9309      	str	r3, [sp, #36]	; 0x24
 8006850:	4a95      	ldr	r2, [pc, #596]	; (8006aa8 <_dtoa_r+0x6a4>)
 8006852:	9b11      	ldr	r3, [sp, #68]	; 0x44
 8006854:	4694      	mov	ip, r2
 8006856:	4463      	add	r3, ip
 8006858:	9317      	str	r3, [sp, #92]	; 0x5c
 800685a:	9309      	str	r3, [sp, #36]	; 0x24
 800685c:	9b14      	ldr	r3, [sp, #80]	; 0x50
 800685e:	2b00      	cmp	r3, #0
 8006860:	d161      	bne.n	8006926 <_dtoa_r+0x522>
 8006862:	2200      	movs	r2, #0
 8006864:	0020      	movs	r0, r4
 8006866:	0029      	movs	r1, r5
 8006868:	4b90      	ldr	r3, [pc, #576]	; (8006aac <_dtoa_r+0x6a8>)
 800686a:	f7fb fe4f 	bl	800250c <__aeabi_dsub>
 800686e:	9a08      	ldr	r2, [sp, #32]
 8006870:	9b17      	ldr	r3, [sp, #92]	; 0x5c
 8006872:	0004      	movs	r4, r0
 8006874:	000d      	movs	r5, r1
 8006876:	f7f9 fe01 	bl	800047c <__aeabi_dcmpgt>
 800687a:	2800      	cmp	r0, #0
 800687c:	d000      	beq.n	8006880 <_dtoa_r+0x47c>
 800687e:	e2af      	b.n	8006de0 <_dtoa_r+0x9dc>
 8006880:	488b      	ldr	r0, [pc, #556]	; (8006ab0 <_dtoa_r+0x6ac>)
 8006882:	9911      	ldr	r1, [sp, #68]	; 0x44
 8006884:	4684      	mov	ip, r0
 8006886:	4461      	add	r1, ip
 8006888:	000b      	movs	r3, r1
 800688a:	0020      	movs	r0, r4
 800688c:	0029      	movs	r1, r5
 800688e:	9a08      	ldr	r2, [sp, #32]
 8006890:	f7f9 fde0 	bl	8000454 <__aeabi_dcmplt>
 8006894:	2800      	cmp	r0, #0
 8006896:	d000      	beq.n	800689a <_dtoa_r+0x496>
 8006898:	e29f      	b.n	8006dda <_dtoa_r+0x9d6>
 800689a:	9b12      	ldr	r3, [sp, #72]	; 0x48
 800689c:	9c13      	ldr	r4, [sp, #76]	; 0x4c
 800689e:	9308      	str	r3, [sp, #32]
 80068a0:	9409      	str	r4, [sp, #36]	; 0x24
 80068a2:	9b1b      	ldr	r3, [sp, #108]	; 0x6c
 80068a4:	2b00      	cmp	r3, #0
 80068a6:	da00      	bge.n	80068aa <_dtoa_r+0x4a6>
 80068a8:	e172      	b.n	8006b90 <_dtoa_r+0x78c>
 80068aa:	9a02      	ldr	r2, [sp, #8]
 80068ac:	2a0e      	cmp	r2, #14
 80068ae:	dd00      	ble.n	80068b2 <_dtoa_r+0x4ae>
 80068b0:	e16e      	b.n	8006b90 <_dtoa_r+0x78c>
 80068b2:	4b78      	ldr	r3, [pc, #480]	; (8006a94 <_dtoa_r+0x690>)
 80068b4:	00d2      	lsls	r2, r2, #3
 80068b6:	189b      	adds	r3, r3, r2
 80068b8:	685c      	ldr	r4, [r3, #4]
 80068ba:	681b      	ldr	r3, [r3, #0]
 80068bc:	930a      	str	r3, [sp, #40]	; 0x28
 80068be:	940b      	str	r4, [sp, #44]	; 0x2c
 80068c0:	9b23      	ldr	r3, [sp, #140]	; 0x8c
 80068c2:	2b00      	cmp	r3, #0
 80068c4:	db00      	blt.n	80068c8 <_dtoa_r+0x4c4>
 80068c6:	e0f7      	b.n	8006ab8 <_dtoa_r+0x6b4>
 80068c8:	9b07      	ldr	r3, [sp, #28]
 80068ca:	2b00      	cmp	r3, #0
 80068cc:	dd00      	ble.n	80068d0 <_dtoa_r+0x4cc>
 80068ce:	e0f3      	b.n	8006ab8 <_dtoa_r+0x6b4>
 80068d0:	d000      	beq.n	80068d4 <_dtoa_r+0x4d0>
 80068d2:	e282      	b.n	8006dda <_dtoa_r+0x9d6>
 80068d4:	980a      	ldr	r0, [sp, #40]	; 0x28
 80068d6:	990b      	ldr	r1, [sp, #44]	; 0x2c
 80068d8:	2200      	movs	r2, #0
 80068da:	4b74      	ldr	r3, [pc, #464]	; (8006aac <_dtoa_r+0x6a8>)
 80068dc:	f7fb fbaa 	bl	8002034 <__aeabi_dmul>
 80068e0:	9a08      	ldr	r2, [sp, #32]
 80068e2:	9b09      	ldr	r3, [sp, #36]	; 0x24
 80068e4:	f7f9 fdd4 	bl	8000490 <__aeabi_dcmpge>
 80068e8:	9e07      	ldr	r6, [sp, #28]
 80068ea:	0035      	movs	r5, r6
 80068ec:	2800      	cmp	r0, #0
 80068ee:	d000      	beq.n	80068f2 <_dtoa_r+0x4ee>
 80068f0:	e259      	b.n	8006da6 <_dtoa_r+0x9a2>
 80068f2:	9b06      	ldr	r3, [sp, #24]
 80068f4:	9a06      	ldr	r2, [sp, #24]
 80068f6:	3301      	adds	r3, #1
 80068f8:	9308      	str	r3, [sp, #32]
 80068fa:	2331      	movs	r3, #49	; 0x31
 80068fc:	7013      	strb	r3, [r2, #0]
 80068fe:	9b02      	ldr	r3, [sp, #8]
 8006900:	3301      	adds	r3, #1
 8006902:	9302      	str	r3, [sp, #8]
 8006904:	e254      	b.n	8006db0 <_dtoa_r+0x9ac>
 8006906:	4234      	tst	r4, r6
 8006908:	d007      	beq.n	800691a <_dtoa_r+0x516>
 800690a:	9b10      	ldr	r3, [sp, #64]	; 0x40
 800690c:	3301      	adds	r3, #1
 800690e:	9310      	str	r3, [sp, #64]	; 0x40
 8006910:	682a      	ldr	r2, [r5, #0]
 8006912:	686b      	ldr	r3, [r5, #4]
 8006914:	f7fb fb8e 	bl	8002034 <__aeabi_dmul>
 8006918:	0033      	movs	r3, r6
 800691a:	1064      	asrs	r4, r4, #1
 800691c:	3508      	adds	r5, #8
 800691e:	e75a      	b.n	80067d6 <_dtoa_r+0x3d2>
 8006920:	9e02      	ldr	r6, [sp, #8]
 8006922:	9b07      	ldr	r3, [sp, #28]
 8006924:	e780      	b.n	8006828 <_dtoa_r+0x424>
 8006926:	9b14      	ldr	r3, [sp, #80]	; 0x50
 8006928:	990f      	ldr	r1, [sp, #60]	; 0x3c
 800692a:	1e5a      	subs	r2, r3, #1
 800692c:	4b59      	ldr	r3, [pc, #356]	; (8006a94 <_dtoa_r+0x690>)
 800692e:	00d2      	lsls	r2, r2, #3
 8006930:	189b      	adds	r3, r3, r2
 8006932:	681a      	ldr	r2, [r3, #0]
 8006934:	685b      	ldr	r3, [r3, #4]
 8006936:	2900      	cmp	r1, #0
 8006938:	d051      	beq.n	80069de <_dtoa_r+0x5da>
 800693a:	2000      	movs	r0, #0
 800693c:	495d      	ldr	r1, [pc, #372]	; (8006ab4 <_dtoa_r+0x6b0>)
 800693e:	f7fa ff77 	bl	8001830 <__aeabi_ddiv>
 8006942:	9a08      	ldr	r2, [sp, #32]
 8006944:	9b09      	ldr	r3, [sp, #36]	; 0x24
 8006946:	f7fb fde1 	bl	800250c <__aeabi_dsub>
 800694a:	9a06      	ldr	r2, [sp, #24]
 800694c:	9b06      	ldr	r3, [sp, #24]
 800694e:	4694      	mov	ip, r2
 8006950:	9317      	str	r3, [sp, #92]	; 0x5c
 8006952:	9b14      	ldr	r3, [sp, #80]	; 0x50
 8006954:	9010      	str	r0, [sp, #64]	; 0x40
 8006956:	9111      	str	r1, [sp, #68]	; 0x44
 8006958:	4463      	add	r3, ip
 800695a:	9319      	str	r3, [sp, #100]	; 0x64
 800695c:	0029      	movs	r1, r5
 800695e:	0020      	movs	r0, r4
 8006960:	f7fc f984 	bl	8002c6c <__aeabi_d2iz>
 8006964:	9014      	str	r0, [sp, #80]	; 0x50
 8006966:	f7fc f9b7 	bl	8002cd8 <__aeabi_i2d>
 800696a:	0002      	movs	r2, r0
 800696c:	000b      	movs	r3, r1
 800696e:	0020      	movs	r0, r4
 8006970:	0029      	movs	r1, r5
 8006972:	f7fb fdcb 	bl	800250c <__aeabi_dsub>
 8006976:	9b17      	ldr	r3, [sp, #92]	; 0x5c
 8006978:	9a17      	ldr	r2, [sp, #92]	; 0x5c
 800697a:	3301      	adds	r3, #1
 800697c:	9308      	str	r3, [sp, #32]
 800697e:	9b14      	ldr	r3, [sp, #80]	; 0x50
 8006980:	0004      	movs	r4, r0
 8006982:	3330      	adds	r3, #48	; 0x30
 8006984:	7013      	strb	r3, [r2, #0]
 8006986:	9a10      	ldr	r2, [sp, #64]	; 0x40
 8006988:	9b11      	ldr	r3, [sp, #68]	; 0x44
 800698a:	000d      	movs	r5, r1
 800698c:	f7f9 fd62 	bl	8000454 <__aeabi_dcmplt>
 8006990:	2800      	cmp	r0, #0
 8006992:	d175      	bne.n	8006a80 <_dtoa_r+0x67c>
 8006994:	0022      	movs	r2, r4
 8006996:	002b      	movs	r3, r5
 8006998:	2000      	movs	r0, #0
 800699a:	4940      	ldr	r1, [pc, #256]	; (8006a9c <_dtoa_r+0x698>)
 800699c:	f7fb fdb6 	bl	800250c <__aeabi_dsub>
 80069a0:	9a10      	ldr	r2, [sp, #64]	; 0x40
 80069a2:	9b11      	ldr	r3, [sp, #68]	; 0x44
 80069a4:	f7f9 fd56 	bl	8000454 <__aeabi_dcmplt>
 80069a8:	2800      	cmp	r0, #0
 80069aa:	d000      	beq.n	80069ae <_dtoa_r+0x5aa>
 80069ac:	e0d2      	b.n	8006b54 <_dtoa_r+0x750>
 80069ae:	9b19      	ldr	r3, [sp, #100]	; 0x64
 80069b0:	9a08      	ldr	r2, [sp, #32]
 80069b2:	4293      	cmp	r3, r2
 80069b4:	d100      	bne.n	80069b8 <_dtoa_r+0x5b4>
 80069b6:	e770      	b.n	800689a <_dtoa_r+0x496>
 80069b8:	9810      	ldr	r0, [sp, #64]	; 0x40
 80069ba:	9911      	ldr	r1, [sp, #68]	; 0x44
 80069bc:	2200      	movs	r2, #0
 80069be:	4b38      	ldr	r3, [pc, #224]	; (8006aa0 <_dtoa_r+0x69c>)
 80069c0:	f7fb fb38 	bl	8002034 <__aeabi_dmul>
 80069c4:	4b36      	ldr	r3, [pc, #216]	; (8006aa0 <_dtoa_r+0x69c>)
 80069c6:	9010      	str	r0, [sp, #64]	; 0x40
 80069c8:	9111      	str	r1, [sp, #68]	; 0x44
 80069ca:	2200      	movs	r2, #0
 80069cc:	0020      	movs	r0, r4
 80069ce:	0029      	movs	r1, r5
 80069d0:	f7fb fb30 	bl	8002034 <__aeabi_dmul>
 80069d4:	9b08      	ldr	r3, [sp, #32]
 80069d6:	0004      	movs	r4, r0
 80069d8:	000d      	movs	r5, r1
 80069da:	9317      	str	r3, [sp, #92]	; 0x5c
 80069dc:	e7be      	b.n	800695c <_dtoa_r+0x558>
 80069de:	9808      	ldr	r0, [sp, #32]
 80069e0:	9909      	ldr	r1, [sp, #36]	; 0x24
 80069e2:	f7fb fb27 	bl	8002034 <__aeabi_dmul>
 80069e6:	9a06      	ldr	r2, [sp, #24]
 80069e8:	9b06      	ldr	r3, [sp, #24]
 80069ea:	4694      	mov	ip, r2
 80069ec:	9308      	str	r3, [sp, #32]
 80069ee:	9b14      	ldr	r3, [sp, #80]	; 0x50
 80069f0:	9010      	str	r0, [sp, #64]	; 0x40
 80069f2:	9111      	str	r1, [sp, #68]	; 0x44
 80069f4:	4463      	add	r3, ip
 80069f6:	9319      	str	r3, [sp, #100]	; 0x64
 80069f8:	0029      	movs	r1, r5
 80069fa:	0020      	movs	r0, r4
 80069fc:	f7fc f936 	bl	8002c6c <__aeabi_d2iz>
 8006a00:	9017      	str	r0, [sp, #92]	; 0x5c
 8006a02:	f7fc f969 	bl	8002cd8 <__aeabi_i2d>
 8006a06:	0002      	movs	r2, r0
 8006a08:	000b      	movs	r3, r1
 8006a0a:	0020      	movs	r0, r4
 8006a0c:	0029      	movs	r1, r5
 8006a0e:	f7fb fd7d 	bl	800250c <__aeabi_dsub>
 8006a12:	9b17      	ldr	r3, [sp, #92]	; 0x5c
 8006a14:	9a08      	ldr	r2, [sp, #32]
 8006a16:	3330      	adds	r3, #48	; 0x30
 8006a18:	7013      	strb	r3, [r2, #0]
 8006a1a:	0013      	movs	r3, r2
 8006a1c:	9a19      	ldr	r2, [sp, #100]	; 0x64
 8006a1e:	3301      	adds	r3, #1
 8006a20:	0004      	movs	r4, r0
 8006a22:	000d      	movs	r5, r1
 8006a24:	9308      	str	r3, [sp, #32]
 8006a26:	4293      	cmp	r3, r2
 8006a28:	d12c      	bne.n	8006a84 <_dtoa_r+0x680>
 8006a2a:	9810      	ldr	r0, [sp, #64]	; 0x40
 8006a2c:	9911      	ldr	r1, [sp, #68]	; 0x44
 8006a2e:	9a06      	ldr	r2, [sp, #24]
 8006a30:	9b14      	ldr	r3, [sp, #80]	; 0x50
 8006a32:	4694      	mov	ip, r2
 8006a34:	4463      	add	r3, ip
 8006a36:	2200      	movs	r2, #0
 8006a38:	9308      	str	r3, [sp, #32]
 8006a3a:	4b1e      	ldr	r3, [pc, #120]	; (8006ab4 <_dtoa_r+0x6b0>)
 8006a3c:	f7fa fbbc 	bl	80011b8 <__aeabi_dadd>
 8006a40:	0002      	movs	r2, r0
 8006a42:	000b      	movs	r3, r1
 8006a44:	0020      	movs	r0, r4
 8006a46:	0029      	movs	r1, r5
 8006a48:	f7f9 fd18 	bl	800047c <__aeabi_dcmpgt>
 8006a4c:	2800      	cmp	r0, #0
 8006a4e:	d000      	beq.n	8006a52 <_dtoa_r+0x64e>
 8006a50:	e080      	b.n	8006b54 <_dtoa_r+0x750>
 8006a52:	9a10      	ldr	r2, [sp, #64]	; 0x40
 8006a54:	9b11      	ldr	r3, [sp, #68]	; 0x44
 8006a56:	2000      	movs	r0, #0
 8006a58:	4916      	ldr	r1, [pc, #88]	; (8006ab4 <_dtoa_r+0x6b0>)
 8006a5a:	f7fb fd57 	bl	800250c <__aeabi_dsub>
 8006a5e:	0002      	movs	r2, r0
 8006a60:	000b      	movs	r3, r1
 8006a62:	0020      	movs	r0, r4
 8006a64:	0029      	movs	r1, r5
 8006a66:	f7f9 fcf5 	bl	8000454 <__aeabi_dcmplt>
 8006a6a:	2800      	cmp	r0, #0
 8006a6c:	d100      	bne.n	8006a70 <_dtoa_r+0x66c>
 8006a6e:	e714      	b.n	800689a <_dtoa_r+0x496>
 8006a70:	9b08      	ldr	r3, [sp, #32]
 8006a72:	001a      	movs	r2, r3
 8006a74:	3a01      	subs	r2, #1
 8006a76:	9208      	str	r2, [sp, #32]
 8006a78:	7812      	ldrb	r2, [r2, #0]
 8006a7a:	2a30      	cmp	r2, #48	; 0x30
 8006a7c:	d0f8      	beq.n	8006a70 <_dtoa_r+0x66c>
 8006a7e:	9308      	str	r3, [sp, #32]
 8006a80:	9602      	str	r6, [sp, #8]
 8006a82:	e055      	b.n	8006b30 <_dtoa_r+0x72c>
 8006a84:	2200      	movs	r2, #0
 8006a86:	4b06      	ldr	r3, [pc, #24]	; (8006aa0 <_dtoa_r+0x69c>)
 8006a88:	f7fb fad4 	bl	8002034 <__aeabi_dmul>
 8006a8c:	0004      	movs	r4, r0
 8006a8e:	000d      	movs	r5, r1
 8006a90:	e7b2      	b.n	80069f8 <_dtoa_r+0x5f4>
 8006a92:	46c0      	nop			; (mov r8, r8)
 8006a94:	08009368 	.word	0x08009368
 8006a98:	08009340 	.word	0x08009340
 8006a9c:	3ff00000 	.word	0x3ff00000
 8006aa0:	40240000 	.word	0x40240000
 8006aa4:	401c0000 	.word	0x401c0000
 8006aa8:	fcc00000 	.word	0xfcc00000
 8006aac:	40140000 	.word	0x40140000
 8006ab0:	7cc00000 	.word	0x7cc00000
 8006ab4:	3fe00000 	.word	0x3fe00000
 8006ab8:	9b07      	ldr	r3, [sp, #28]
 8006aba:	9e06      	ldr	r6, [sp, #24]
 8006abc:	3b01      	subs	r3, #1
 8006abe:	199b      	adds	r3, r3, r6
 8006ac0:	930c      	str	r3, [sp, #48]	; 0x30
 8006ac2:	9c08      	ldr	r4, [sp, #32]
 8006ac4:	9d09      	ldr	r5, [sp, #36]	; 0x24
 8006ac6:	9a0a      	ldr	r2, [sp, #40]	; 0x28
 8006ac8:	9b0b      	ldr	r3, [sp, #44]	; 0x2c
 8006aca:	0020      	movs	r0, r4
 8006acc:	0029      	movs	r1, r5
 8006ace:	f7fa feaf 	bl	8001830 <__aeabi_ddiv>
 8006ad2:	f7fc f8cb 	bl	8002c6c <__aeabi_d2iz>
 8006ad6:	9007      	str	r0, [sp, #28]
 8006ad8:	f7fc f8fe 	bl	8002cd8 <__aeabi_i2d>
 8006adc:	9a0a      	ldr	r2, [sp, #40]	; 0x28
 8006ade:	9b0b      	ldr	r3, [sp, #44]	; 0x2c
 8006ae0:	f7fb faa8 	bl	8002034 <__aeabi_dmul>
 8006ae4:	0002      	movs	r2, r0
 8006ae6:	000b      	movs	r3, r1
 8006ae8:	0020      	movs	r0, r4
 8006aea:	0029      	movs	r1, r5
 8006aec:	f7fb fd0e 	bl	800250c <__aeabi_dsub>
 8006af0:	0033      	movs	r3, r6
 8006af2:	9a07      	ldr	r2, [sp, #28]
 8006af4:	3601      	adds	r6, #1
 8006af6:	3230      	adds	r2, #48	; 0x30
 8006af8:	701a      	strb	r2, [r3, #0]
 8006afa:	9a0c      	ldr	r2, [sp, #48]	; 0x30
 8006afc:	9608      	str	r6, [sp, #32]
 8006afe:	429a      	cmp	r2, r3
 8006b00:	d139      	bne.n	8006b76 <_dtoa_r+0x772>
 8006b02:	0002      	movs	r2, r0
 8006b04:	000b      	movs	r3, r1
 8006b06:	f7fa fb57 	bl	80011b8 <__aeabi_dadd>
 8006b0a:	9a0a      	ldr	r2, [sp, #40]	; 0x28
 8006b0c:	9b0b      	ldr	r3, [sp, #44]	; 0x2c
 8006b0e:	0004      	movs	r4, r0
 8006b10:	000d      	movs	r5, r1
 8006b12:	f7f9 fcb3 	bl	800047c <__aeabi_dcmpgt>
 8006b16:	2800      	cmp	r0, #0
 8006b18:	d11b      	bne.n	8006b52 <_dtoa_r+0x74e>
 8006b1a:	9a0a      	ldr	r2, [sp, #40]	; 0x28
 8006b1c:	9b0b      	ldr	r3, [sp, #44]	; 0x2c
 8006b1e:	0020      	movs	r0, r4
 8006b20:	0029      	movs	r1, r5
 8006b22:	f7f9 fc91 	bl	8000448 <__aeabi_dcmpeq>
 8006b26:	2800      	cmp	r0, #0
 8006b28:	d002      	beq.n	8006b30 <_dtoa_r+0x72c>
 8006b2a:	9b07      	ldr	r3, [sp, #28]
 8006b2c:	07db      	lsls	r3, r3, #31
 8006b2e:	d410      	bmi.n	8006b52 <_dtoa_r+0x74e>
 8006b30:	0038      	movs	r0, r7
 8006b32:	9905      	ldr	r1, [sp, #20]
 8006b34:	f000 fae6 	bl	8007104 <_Bfree>
 8006b38:	2300      	movs	r3, #0
 8006b3a:	9a08      	ldr	r2, [sp, #32]
 8006b3c:	9802      	ldr	r0, [sp, #8]
 8006b3e:	7013      	strb	r3, [r2, #0]
 8006b40:	9b24      	ldr	r3, [sp, #144]	; 0x90
 8006b42:	3001      	adds	r0, #1
 8006b44:	6018      	str	r0, [r3, #0]
 8006b46:	9b26      	ldr	r3, [sp, #152]	; 0x98
 8006b48:	2b00      	cmp	r3, #0
 8006b4a:	d100      	bne.n	8006b4e <_dtoa_r+0x74a>
 8006b4c:	e4a6      	b.n	800649c <_dtoa_r+0x98>
 8006b4e:	601a      	str	r2, [r3, #0]
 8006b50:	e4a4      	b.n	800649c <_dtoa_r+0x98>
 8006b52:	9e02      	ldr	r6, [sp, #8]
 8006b54:	9b08      	ldr	r3, [sp, #32]
 8006b56:	9308      	str	r3, [sp, #32]
 8006b58:	3b01      	subs	r3, #1
 8006b5a:	781a      	ldrb	r2, [r3, #0]
 8006b5c:	2a39      	cmp	r2, #57	; 0x39
 8006b5e:	d106      	bne.n	8006b6e <_dtoa_r+0x76a>
 8006b60:	9a06      	ldr	r2, [sp, #24]
 8006b62:	429a      	cmp	r2, r3
 8006b64:	d1f7      	bne.n	8006b56 <_dtoa_r+0x752>
 8006b66:	2230      	movs	r2, #48	; 0x30
 8006b68:	9906      	ldr	r1, [sp, #24]
 8006b6a:	3601      	adds	r6, #1
 8006b6c:	700a      	strb	r2, [r1, #0]
 8006b6e:	781a      	ldrb	r2, [r3, #0]
 8006b70:	3201      	adds	r2, #1
 8006b72:	701a      	strb	r2, [r3, #0]
 8006b74:	e784      	b.n	8006a80 <_dtoa_r+0x67c>
 8006b76:	2200      	movs	r2, #0
 8006b78:	4baa      	ldr	r3, [pc, #680]	; (8006e24 <_dtoa_r+0xa20>)
 8006b7a:	f7fb fa5b 	bl	8002034 <__aeabi_dmul>
 8006b7e:	2200      	movs	r2, #0
 8006b80:	2300      	movs	r3, #0
 8006b82:	0004      	movs	r4, r0
 8006b84:	000d      	movs	r5, r1
 8006b86:	f7f9 fc5f 	bl	8000448 <__aeabi_dcmpeq>
 8006b8a:	2800      	cmp	r0, #0
 8006b8c:	d09b      	beq.n	8006ac6 <_dtoa_r+0x6c2>
 8006b8e:	e7cf      	b.n	8006b30 <_dtoa_r+0x72c>
 8006b90:	9d0f      	ldr	r5, [sp, #60]	; 0x3c
 8006b92:	9e0e      	ldr	r6, [sp, #56]	; 0x38
 8006b94:	9c0a      	ldr	r4, [sp, #40]	; 0x28
 8006b96:	2d00      	cmp	r5, #0
 8006b98:	d012      	beq.n	8006bc0 <_dtoa_r+0x7bc>
 8006b9a:	9a22      	ldr	r2, [sp, #136]	; 0x88
 8006b9c:	2a01      	cmp	r2, #1
 8006b9e:	dc66      	bgt.n	8006c6e <_dtoa_r+0x86a>
 8006ba0:	9a18      	ldr	r2, [sp, #96]	; 0x60
 8006ba2:	2a00      	cmp	r2, #0
 8006ba4:	d05d      	beq.n	8006c62 <_dtoa_r+0x85e>
 8006ba6:	4aa0      	ldr	r2, [pc, #640]	; (8006e28 <_dtoa_r+0xa24>)
 8006ba8:	189b      	adds	r3, r3, r2
 8006baa:	9a0a      	ldr	r2, [sp, #40]	; 0x28
 8006bac:	2101      	movs	r1, #1
 8006bae:	18d2      	adds	r2, r2, r3
 8006bb0:	920a      	str	r2, [sp, #40]	; 0x28
 8006bb2:	9a0d      	ldr	r2, [sp, #52]	; 0x34
 8006bb4:	0038      	movs	r0, r7
 8006bb6:	18d3      	adds	r3, r2, r3
 8006bb8:	930d      	str	r3, [sp, #52]	; 0x34
 8006bba:	f000 fb53 	bl	8007264 <__i2b>
 8006bbe:	0005      	movs	r5, r0
 8006bc0:	2c00      	cmp	r4, #0
 8006bc2:	dd0e      	ble.n	8006be2 <_dtoa_r+0x7de>
 8006bc4:	9b0d      	ldr	r3, [sp, #52]	; 0x34
 8006bc6:	2b00      	cmp	r3, #0
 8006bc8:	dd0b      	ble.n	8006be2 <_dtoa_r+0x7de>
 8006bca:	9a0d      	ldr	r2, [sp, #52]	; 0x34
 8006bcc:	0023      	movs	r3, r4
 8006bce:	4294      	cmp	r4, r2
 8006bd0:	dd00      	ble.n	8006bd4 <_dtoa_r+0x7d0>
 8006bd2:	0013      	movs	r3, r2
 8006bd4:	9a0a      	ldr	r2, [sp, #40]	; 0x28
 8006bd6:	1ae4      	subs	r4, r4, r3
 8006bd8:	1ad2      	subs	r2, r2, r3
 8006bda:	920a      	str	r2, [sp, #40]	; 0x28
 8006bdc:	9a0d      	ldr	r2, [sp, #52]	; 0x34
 8006bde:	1ad3      	subs	r3, r2, r3
 8006be0:	930d      	str	r3, [sp, #52]	; 0x34
 8006be2:	9b0e      	ldr	r3, [sp, #56]	; 0x38
 8006be4:	2b00      	cmp	r3, #0
 8006be6:	d01f      	beq.n	8006c28 <_dtoa_r+0x824>
 8006be8:	9b0f      	ldr	r3, [sp, #60]	; 0x3c
 8006bea:	2b00      	cmp	r3, #0
 8006bec:	d054      	beq.n	8006c98 <_dtoa_r+0x894>
 8006bee:	2e00      	cmp	r6, #0
 8006bf0:	dd11      	ble.n	8006c16 <_dtoa_r+0x812>
 8006bf2:	0029      	movs	r1, r5
 8006bf4:	0032      	movs	r2, r6
 8006bf6:	0038      	movs	r0, r7
 8006bf8:	f000 fbfa 	bl	80073f0 <__pow5mult>
 8006bfc:	9a05      	ldr	r2, [sp, #20]
 8006bfe:	0001      	movs	r1, r0
 8006c00:	0005      	movs	r5, r0
 8006c02:	0038      	movs	r0, r7
 8006c04:	f000 fb44 	bl	8007290 <__multiply>
 8006c08:	9905      	ldr	r1, [sp, #20]
 8006c0a:	9014      	str	r0, [sp, #80]	; 0x50
 8006c0c:	0038      	movs	r0, r7
 8006c0e:	f000 fa79 	bl	8007104 <_Bfree>
 8006c12:	9b14      	ldr	r3, [sp, #80]	; 0x50
 8006c14:	9305      	str	r3, [sp, #20]
 8006c16:	9b0e      	ldr	r3, [sp, #56]	; 0x38
 8006c18:	1b9a      	subs	r2, r3, r6
 8006c1a:	42b3      	cmp	r3, r6
 8006c1c:	d004      	beq.n	8006c28 <_dtoa_r+0x824>
 8006c1e:	0038      	movs	r0, r7
 8006c20:	9905      	ldr	r1, [sp, #20]
 8006c22:	f000 fbe5 	bl	80073f0 <__pow5mult>
 8006c26:	9005      	str	r0, [sp, #20]
 8006c28:	2101      	movs	r1, #1
 8006c2a:	0038      	movs	r0, r7
 8006c2c:	f000 fb1a 	bl	8007264 <__i2b>
 8006c30:	9b15      	ldr	r3, [sp, #84]	; 0x54
 8006c32:	0006      	movs	r6, r0
 8006c34:	2b00      	cmp	r3, #0
 8006c36:	dd31      	ble.n	8006c9c <_dtoa_r+0x898>
 8006c38:	001a      	movs	r2, r3
 8006c3a:	0001      	movs	r1, r0
 8006c3c:	0038      	movs	r0, r7
 8006c3e:	f000 fbd7 	bl	80073f0 <__pow5mult>
 8006c42:	9b22      	ldr	r3, [sp, #136]	; 0x88
 8006c44:	0006      	movs	r6, r0
 8006c46:	2b01      	cmp	r3, #1
 8006c48:	dd2d      	ble.n	8006ca6 <_dtoa_r+0x8a2>
 8006c4a:	2300      	movs	r3, #0
 8006c4c:	930e      	str	r3, [sp, #56]	; 0x38
 8006c4e:	6933      	ldr	r3, [r6, #16]
 8006c50:	3303      	adds	r3, #3
 8006c52:	009b      	lsls	r3, r3, #2
 8006c54:	18f3      	adds	r3, r6, r3
 8006c56:	6858      	ldr	r0, [r3, #4]
 8006c58:	f000 fabc 	bl	80071d4 <__hi0bits>
 8006c5c:	2320      	movs	r3, #32
 8006c5e:	1a18      	subs	r0, r3, r0
 8006c60:	e039      	b.n	8006cd6 <_dtoa_r+0x8d2>
 8006c62:	2336      	movs	r3, #54	; 0x36
 8006c64:	9a1a      	ldr	r2, [sp, #104]	; 0x68
 8006c66:	9e0e      	ldr	r6, [sp, #56]	; 0x38
 8006c68:	9c0a      	ldr	r4, [sp, #40]	; 0x28
 8006c6a:	1a9b      	subs	r3, r3, r2
 8006c6c:	e79d      	b.n	8006baa <_dtoa_r+0x7a6>
 8006c6e:	9b07      	ldr	r3, [sp, #28]
 8006c70:	1e5e      	subs	r6, r3, #1
 8006c72:	9b0e      	ldr	r3, [sp, #56]	; 0x38
 8006c74:	42b3      	cmp	r3, r6
 8006c76:	db07      	blt.n	8006c88 <_dtoa_r+0x884>
 8006c78:	1b9e      	subs	r6, r3, r6
 8006c7a:	9b07      	ldr	r3, [sp, #28]
 8006c7c:	9c0a      	ldr	r4, [sp, #40]	; 0x28
 8006c7e:	2b00      	cmp	r3, #0
 8006c80:	da93      	bge.n	8006baa <_dtoa_r+0x7a6>
 8006c82:	1ae4      	subs	r4, r4, r3
 8006c84:	2300      	movs	r3, #0
 8006c86:	e790      	b.n	8006baa <_dtoa_r+0x7a6>
 8006c88:	9b0e      	ldr	r3, [sp, #56]	; 0x38
 8006c8a:	9a15      	ldr	r2, [sp, #84]	; 0x54
 8006c8c:	1af3      	subs	r3, r6, r3
 8006c8e:	18d3      	adds	r3, r2, r3
 8006c90:	960e      	str	r6, [sp, #56]	; 0x38
 8006c92:	9315      	str	r3, [sp, #84]	; 0x54
 8006c94:	2600      	movs	r6, #0
 8006c96:	e7f0      	b.n	8006c7a <_dtoa_r+0x876>
 8006c98:	9a0e      	ldr	r2, [sp, #56]	; 0x38
 8006c9a:	e7c0      	b.n	8006c1e <_dtoa_r+0x81a>
 8006c9c:	2300      	movs	r3, #0
 8006c9e:	930e      	str	r3, [sp, #56]	; 0x38
 8006ca0:	9b22      	ldr	r3, [sp, #136]	; 0x88
 8006ca2:	2b01      	cmp	r3, #1
 8006ca4:	dc13      	bgt.n	8006cce <_dtoa_r+0x8ca>
 8006ca6:	2300      	movs	r3, #0
 8006ca8:	930e      	str	r3, [sp, #56]	; 0x38
 8006caa:	9b08      	ldr	r3, [sp, #32]
 8006cac:	2b00      	cmp	r3, #0
 8006cae:	d10e      	bne.n	8006cce <_dtoa_r+0x8ca>
 8006cb0:	9b09      	ldr	r3, [sp, #36]	; 0x24
 8006cb2:	031b      	lsls	r3, r3, #12
 8006cb4:	d10b      	bne.n	8006cce <_dtoa_r+0x8ca>
 8006cb6:	4b5d      	ldr	r3, [pc, #372]	; (8006e2c <_dtoa_r+0xa28>)
 8006cb8:	9a09      	ldr	r2, [sp, #36]	; 0x24
 8006cba:	4213      	tst	r3, r2
 8006cbc:	d007      	beq.n	8006cce <_dtoa_r+0x8ca>
 8006cbe:	9b0a      	ldr	r3, [sp, #40]	; 0x28
 8006cc0:	3301      	adds	r3, #1
 8006cc2:	930a      	str	r3, [sp, #40]	; 0x28
 8006cc4:	9b0d      	ldr	r3, [sp, #52]	; 0x34
 8006cc6:	3301      	adds	r3, #1
 8006cc8:	930d      	str	r3, [sp, #52]	; 0x34
 8006cca:	2301      	movs	r3, #1
 8006ccc:	930e      	str	r3, [sp, #56]	; 0x38
 8006cce:	9b15      	ldr	r3, [sp, #84]	; 0x54
 8006cd0:	2001      	movs	r0, #1
 8006cd2:	2b00      	cmp	r3, #0
 8006cd4:	d1bb      	bne.n	8006c4e <_dtoa_r+0x84a>
 8006cd6:	9b0d      	ldr	r3, [sp, #52]	; 0x34
 8006cd8:	221f      	movs	r2, #31
 8006cda:	1818      	adds	r0, r3, r0
 8006cdc:	0003      	movs	r3, r0
 8006cde:	4013      	ands	r3, r2
 8006ce0:	4210      	tst	r0, r2
 8006ce2:	d046      	beq.n	8006d72 <_dtoa_r+0x96e>
 8006ce4:	3201      	adds	r2, #1
 8006ce6:	1ad2      	subs	r2, r2, r3
 8006ce8:	2a04      	cmp	r2, #4
 8006cea:	dd3f      	ble.n	8006d6c <_dtoa_r+0x968>
 8006cec:	221c      	movs	r2, #28
 8006cee:	1ad3      	subs	r3, r2, r3
 8006cf0:	9a0a      	ldr	r2, [sp, #40]	; 0x28
 8006cf2:	18e4      	adds	r4, r4, r3
 8006cf4:	18d2      	adds	r2, r2, r3
 8006cf6:	920a      	str	r2, [sp, #40]	; 0x28
 8006cf8:	9a0d      	ldr	r2, [sp, #52]	; 0x34
 8006cfa:	18d3      	adds	r3, r2, r3
 8006cfc:	930d      	str	r3, [sp, #52]	; 0x34
 8006cfe:	9b0a      	ldr	r3, [sp, #40]	; 0x28
 8006d00:	2b00      	cmp	r3, #0
 8006d02:	dd05      	ble.n	8006d10 <_dtoa_r+0x90c>
 8006d04:	001a      	movs	r2, r3
 8006d06:	0038      	movs	r0, r7
 8006d08:	9905      	ldr	r1, [sp, #20]
 8006d0a:	f000 fbcd 	bl	80074a8 <__lshift>
 8006d0e:	9005      	str	r0, [sp, #20]
 8006d10:	9b0d      	ldr	r3, [sp, #52]	; 0x34
 8006d12:	2b00      	cmp	r3, #0
 8006d14:	dd05      	ble.n	8006d22 <_dtoa_r+0x91e>
 8006d16:	0031      	movs	r1, r6
 8006d18:	001a      	movs	r2, r3
 8006d1a:	0038      	movs	r0, r7
 8006d1c:	f000 fbc4 	bl	80074a8 <__lshift>
 8006d20:	0006      	movs	r6, r0
 8006d22:	9b16      	ldr	r3, [sp, #88]	; 0x58
 8006d24:	2b00      	cmp	r3, #0
 8006d26:	d026      	beq.n	8006d76 <_dtoa_r+0x972>
 8006d28:	0031      	movs	r1, r6
 8006d2a:	9805      	ldr	r0, [sp, #20]
 8006d2c:	f000 fc2a 	bl	8007584 <__mcmp>
 8006d30:	2800      	cmp	r0, #0
 8006d32:	da20      	bge.n	8006d76 <_dtoa_r+0x972>
 8006d34:	9b02      	ldr	r3, [sp, #8]
 8006d36:	220a      	movs	r2, #10
 8006d38:	3b01      	subs	r3, #1
 8006d3a:	9302      	str	r3, [sp, #8]
 8006d3c:	0038      	movs	r0, r7
 8006d3e:	2300      	movs	r3, #0
 8006d40:	9905      	ldr	r1, [sp, #20]
 8006d42:	f000 fa03 	bl	800714c <__multadd>
 8006d46:	9b0f      	ldr	r3, [sp, #60]	; 0x3c
 8006d48:	9005      	str	r0, [sp, #20]
 8006d4a:	2b00      	cmp	r3, #0
 8006d4c:	d100      	bne.n	8006d50 <_dtoa_r+0x94c>
 8006d4e:	e166      	b.n	800701e <_dtoa_r+0xc1a>
 8006d50:	2300      	movs	r3, #0
 8006d52:	0029      	movs	r1, r5
 8006d54:	220a      	movs	r2, #10
 8006d56:	0038      	movs	r0, r7
 8006d58:	f000 f9f8 	bl	800714c <__multadd>
 8006d5c:	9b0c      	ldr	r3, [sp, #48]	; 0x30
 8006d5e:	0005      	movs	r5, r0
 8006d60:	2b00      	cmp	r3, #0
 8006d62:	dc47      	bgt.n	8006df4 <_dtoa_r+0x9f0>
 8006d64:	9b22      	ldr	r3, [sp, #136]	; 0x88
 8006d66:	2b02      	cmp	r3, #2
 8006d68:	dc0d      	bgt.n	8006d86 <_dtoa_r+0x982>
 8006d6a:	e043      	b.n	8006df4 <_dtoa_r+0x9f0>
 8006d6c:	2a04      	cmp	r2, #4
 8006d6e:	d0c6      	beq.n	8006cfe <_dtoa_r+0x8fa>
 8006d70:	0013      	movs	r3, r2
 8006d72:	331c      	adds	r3, #28
 8006d74:	e7bc      	b.n	8006cf0 <_dtoa_r+0x8ec>
 8006d76:	9b07      	ldr	r3, [sp, #28]
 8006d78:	2b00      	cmp	r3, #0
 8006d7a:	dc35      	bgt.n	8006de8 <_dtoa_r+0x9e4>
 8006d7c:	9b22      	ldr	r3, [sp, #136]	; 0x88
 8006d7e:	2b02      	cmp	r3, #2
 8006d80:	dd32      	ble.n	8006de8 <_dtoa_r+0x9e4>
 8006d82:	9b07      	ldr	r3, [sp, #28]
 8006d84:	930c      	str	r3, [sp, #48]	; 0x30
 8006d86:	9b0c      	ldr	r3, [sp, #48]	; 0x30
 8006d88:	2b00      	cmp	r3, #0
 8006d8a:	d10c      	bne.n	8006da6 <_dtoa_r+0x9a2>
 8006d8c:	0031      	movs	r1, r6
 8006d8e:	2205      	movs	r2, #5
 8006d90:	0038      	movs	r0, r7
 8006d92:	f000 f9db 	bl	800714c <__multadd>
 8006d96:	0006      	movs	r6, r0
 8006d98:	0001      	movs	r1, r0
 8006d9a:	9805      	ldr	r0, [sp, #20]
 8006d9c:	f000 fbf2 	bl	8007584 <__mcmp>
 8006da0:	2800      	cmp	r0, #0
 8006da2:	dd00      	ble.n	8006da6 <_dtoa_r+0x9a2>
 8006da4:	e5a5      	b.n	80068f2 <_dtoa_r+0x4ee>
 8006da6:	9b23      	ldr	r3, [sp, #140]	; 0x8c
 8006da8:	43db      	mvns	r3, r3
 8006daa:	9302      	str	r3, [sp, #8]
 8006dac:	9b06      	ldr	r3, [sp, #24]
 8006dae:	9308      	str	r3, [sp, #32]
 8006db0:	2400      	movs	r4, #0
 8006db2:	0031      	movs	r1, r6
 8006db4:	0038      	movs	r0, r7
 8006db6:	f000 f9a5 	bl	8007104 <_Bfree>
 8006dba:	2d00      	cmp	r5, #0
 8006dbc:	d100      	bne.n	8006dc0 <_dtoa_r+0x9bc>
 8006dbe:	e6b7      	b.n	8006b30 <_dtoa_r+0x72c>
 8006dc0:	2c00      	cmp	r4, #0
 8006dc2:	d005      	beq.n	8006dd0 <_dtoa_r+0x9cc>
 8006dc4:	42ac      	cmp	r4, r5
 8006dc6:	d003      	beq.n	8006dd0 <_dtoa_r+0x9cc>
 8006dc8:	0021      	movs	r1, r4
 8006dca:	0038      	movs	r0, r7
 8006dcc:	f000 f99a 	bl	8007104 <_Bfree>
 8006dd0:	0029      	movs	r1, r5
 8006dd2:	0038      	movs	r0, r7
 8006dd4:	f000 f996 	bl	8007104 <_Bfree>
 8006dd8:	e6aa      	b.n	8006b30 <_dtoa_r+0x72c>
 8006dda:	2600      	movs	r6, #0
 8006ddc:	0035      	movs	r5, r6
 8006dde:	e7e2      	b.n	8006da6 <_dtoa_r+0x9a2>
 8006de0:	9602      	str	r6, [sp, #8]
 8006de2:	9e14      	ldr	r6, [sp, #80]	; 0x50
 8006de4:	0035      	movs	r5, r6
 8006de6:	e584      	b.n	80068f2 <_dtoa_r+0x4ee>
 8006de8:	9b0f      	ldr	r3, [sp, #60]	; 0x3c
 8006dea:	2b00      	cmp	r3, #0
 8006dec:	d100      	bne.n	8006df0 <_dtoa_r+0x9ec>
 8006dee:	e0ce      	b.n	8006f8e <_dtoa_r+0xb8a>
 8006df0:	9b07      	ldr	r3, [sp, #28]
 8006df2:	930c      	str	r3, [sp, #48]	; 0x30
 8006df4:	2c00      	cmp	r4, #0
 8006df6:	dd05      	ble.n	8006e04 <_dtoa_r+0xa00>
 8006df8:	0029      	movs	r1, r5
 8006dfa:	0022      	movs	r2, r4
 8006dfc:	0038      	movs	r0, r7
 8006dfe:	f000 fb53 	bl	80074a8 <__lshift>
 8006e02:	0005      	movs	r5, r0
 8006e04:	9b0e      	ldr	r3, [sp, #56]	; 0x38
 8006e06:	0028      	movs	r0, r5
 8006e08:	2b00      	cmp	r3, #0
 8006e0a:	d022      	beq.n	8006e52 <_dtoa_r+0xa4e>
 8006e0c:	0038      	movs	r0, r7
 8006e0e:	6869      	ldr	r1, [r5, #4]
 8006e10:	f000 f934 	bl	800707c <_Balloc>
 8006e14:	1e04      	subs	r4, r0, #0
 8006e16:	d10f      	bne.n	8006e38 <_dtoa_r+0xa34>
 8006e18:	0002      	movs	r2, r0
 8006e1a:	4b05      	ldr	r3, [pc, #20]	; (8006e30 <_dtoa_r+0xa2c>)
 8006e1c:	4905      	ldr	r1, [pc, #20]	; (8006e34 <_dtoa_r+0xa30>)
 8006e1e:	f7ff fb06 	bl	800642e <_dtoa_r+0x2a>
 8006e22:	46c0      	nop			; (mov r8, r8)
 8006e24:	40240000 	.word	0x40240000
 8006e28:	00000433 	.word	0x00000433
 8006e2c:	7ff00000 	.word	0x7ff00000
 8006e30:	080092cf 	.word	0x080092cf
 8006e34:	000002ea 	.word	0x000002ea
 8006e38:	0029      	movs	r1, r5
 8006e3a:	692b      	ldr	r3, [r5, #16]
 8006e3c:	310c      	adds	r1, #12
 8006e3e:	1c9a      	adds	r2, r3, #2
 8006e40:	0092      	lsls	r2, r2, #2
 8006e42:	300c      	adds	r0, #12
 8006e44:	f000 f911 	bl	800706a <memcpy>
 8006e48:	2201      	movs	r2, #1
 8006e4a:	0021      	movs	r1, r4
 8006e4c:	0038      	movs	r0, r7
 8006e4e:	f000 fb2b 	bl	80074a8 <__lshift>
 8006e52:	9b06      	ldr	r3, [sp, #24]
 8006e54:	9a0c      	ldr	r2, [sp, #48]	; 0x30
 8006e56:	930a      	str	r3, [sp, #40]	; 0x28
 8006e58:	3b01      	subs	r3, #1
 8006e5a:	189b      	adds	r3, r3, r2
 8006e5c:	2201      	movs	r2, #1
 8006e5e:	002c      	movs	r4, r5
 8006e60:	0005      	movs	r5, r0
 8006e62:	9314      	str	r3, [sp, #80]	; 0x50
 8006e64:	9b08      	ldr	r3, [sp, #32]
 8006e66:	4013      	ands	r3, r2
 8006e68:	930f      	str	r3, [sp, #60]	; 0x3c
 8006e6a:	0031      	movs	r1, r6
 8006e6c:	9805      	ldr	r0, [sp, #20]
 8006e6e:	f7ff fa3d 	bl	80062ec <quorem>
 8006e72:	0003      	movs	r3, r0
 8006e74:	0021      	movs	r1, r4
 8006e76:	3330      	adds	r3, #48	; 0x30
 8006e78:	900d      	str	r0, [sp, #52]	; 0x34
 8006e7a:	9805      	ldr	r0, [sp, #20]
 8006e7c:	9307      	str	r3, [sp, #28]
 8006e7e:	f000 fb81 	bl	8007584 <__mcmp>
 8006e82:	002a      	movs	r2, r5
 8006e84:	900e      	str	r0, [sp, #56]	; 0x38
 8006e86:	0031      	movs	r1, r6
 8006e88:	0038      	movs	r0, r7
 8006e8a:	f000 fb97 	bl	80075bc <__mdiff>
 8006e8e:	68c3      	ldr	r3, [r0, #12]
 8006e90:	9008      	str	r0, [sp, #32]
 8006e92:	9310      	str	r3, [sp, #64]	; 0x40
 8006e94:	2301      	movs	r3, #1
 8006e96:	930c      	str	r3, [sp, #48]	; 0x30
 8006e98:	9b10      	ldr	r3, [sp, #64]	; 0x40
 8006e9a:	2b00      	cmp	r3, #0
 8006e9c:	d104      	bne.n	8006ea8 <_dtoa_r+0xaa4>
 8006e9e:	0001      	movs	r1, r0
 8006ea0:	9805      	ldr	r0, [sp, #20]
 8006ea2:	f000 fb6f 	bl	8007584 <__mcmp>
 8006ea6:	900c      	str	r0, [sp, #48]	; 0x30
 8006ea8:	0038      	movs	r0, r7
 8006eaa:	9908      	ldr	r1, [sp, #32]
 8006eac:	f000 f92a 	bl	8007104 <_Bfree>
 8006eb0:	9b0a      	ldr	r3, [sp, #40]	; 0x28
 8006eb2:	9a0c      	ldr	r2, [sp, #48]	; 0x30
 8006eb4:	3301      	adds	r3, #1
 8006eb6:	9308      	str	r3, [sp, #32]
 8006eb8:	9b22      	ldr	r3, [sp, #136]	; 0x88
 8006eba:	4313      	orrs	r3, r2
 8006ebc:	9a0f      	ldr	r2, [sp, #60]	; 0x3c
 8006ebe:	4313      	orrs	r3, r2
 8006ec0:	d10c      	bne.n	8006edc <_dtoa_r+0xad8>
 8006ec2:	9b07      	ldr	r3, [sp, #28]
 8006ec4:	2b39      	cmp	r3, #57	; 0x39
 8006ec6:	d026      	beq.n	8006f16 <_dtoa_r+0xb12>
 8006ec8:	9b0e      	ldr	r3, [sp, #56]	; 0x38
 8006eca:	2b00      	cmp	r3, #0
 8006ecc:	dd02      	ble.n	8006ed4 <_dtoa_r+0xad0>
 8006ece:	9b0d      	ldr	r3, [sp, #52]	; 0x34
 8006ed0:	3331      	adds	r3, #49	; 0x31
 8006ed2:	9307      	str	r3, [sp, #28]
 8006ed4:	9b0a      	ldr	r3, [sp, #40]	; 0x28
 8006ed6:	9a07      	ldr	r2, [sp, #28]
 8006ed8:	701a      	strb	r2, [r3, #0]
 8006eda:	e76a      	b.n	8006db2 <_dtoa_r+0x9ae>
 8006edc:	9b0e      	ldr	r3, [sp, #56]	; 0x38
 8006ede:	2b00      	cmp	r3, #0
 8006ee0:	db04      	blt.n	8006eec <_dtoa_r+0xae8>
 8006ee2:	9a22      	ldr	r2, [sp, #136]	; 0x88
 8006ee4:	4313      	orrs	r3, r2
 8006ee6:	9a0f      	ldr	r2, [sp, #60]	; 0x3c
 8006ee8:	4313      	orrs	r3, r2
 8006eea:	d11f      	bne.n	8006f2c <_dtoa_r+0xb28>
 8006eec:	9b0c      	ldr	r3, [sp, #48]	; 0x30
 8006eee:	2b00      	cmp	r3, #0
 8006ef0:	ddf0      	ble.n	8006ed4 <_dtoa_r+0xad0>
 8006ef2:	9905      	ldr	r1, [sp, #20]
 8006ef4:	2201      	movs	r2, #1
 8006ef6:	0038      	movs	r0, r7
 8006ef8:	f000 fad6 	bl	80074a8 <__lshift>
 8006efc:	0031      	movs	r1, r6
 8006efe:	9005      	str	r0, [sp, #20]
 8006f00:	f000 fb40 	bl	8007584 <__mcmp>
 8006f04:	2800      	cmp	r0, #0
 8006f06:	dc03      	bgt.n	8006f10 <_dtoa_r+0xb0c>
 8006f08:	d1e4      	bne.n	8006ed4 <_dtoa_r+0xad0>
 8006f0a:	9b07      	ldr	r3, [sp, #28]
 8006f0c:	07db      	lsls	r3, r3, #31
 8006f0e:	d5e1      	bpl.n	8006ed4 <_dtoa_r+0xad0>
 8006f10:	9b07      	ldr	r3, [sp, #28]
 8006f12:	2b39      	cmp	r3, #57	; 0x39
 8006f14:	d1db      	bne.n	8006ece <_dtoa_r+0xaca>
 8006f16:	2339      	movs	r3, #57	; 0x39
 8006f18:	9a0a      	ldr	r2, [sp, #40]	; 0x28
 8006f1a:	7013      	strb	r3, [r2, #0]
 8006f1c:	9b08      	ldr	r3, [sp, #32]
 8006f1e:	9308      	str	r3, [sp, #32]
 8006f20:	3b01      	subs	r3, #1
 8006f22:	781a      	ldrb	r2, [r3, #0]
 8006f24:	2a39      	cmp	r2, #57	; 0x39
 8006f26:	d068      	beq.n	8006ffa <_dtoa_r+0xbf6>
 8006f28:	3201      	adds	r2, #1
 8006f2a:	e7d5      	b.n	8006ed8 <_dtoa_r+0xad4>
 8006f2c:	9b0c      	ldr	r3, [sp, #48]	; 0x30
 8006f2e:	2b00      	cmp	r3, #0
 8006f30:	dd07      	ble.n	8006f42 <_dtoa_r+0xb3e>
 8006f32:	9b07      	ldr	r3, [sp, #28]
 8006f34:	2b39      	cmp	r3, #57	; 0x39
 8006f36:	d0ee      	beq.n	8006f16 <_dtoa_r+0xb12>
 8006f38:	9b07      	ldr	r3, [sp, #28]
 8006f3a:	9a0a      	ldr	r2, [sp, #40]	; 0x28
 8006f3c:	3301      	adds	r3, #1
 8006f3e:	7013      	strb	r3, [r2, #0]
 8006f40:	e737      	b.n	8006db2 <_dtoa_r+0x9ae>
 8006f42:	9b0a      	ldr	r3, [sp, #40]	; 0x28
 8006f44:	9a07      	ldr	r2, [sp, #28]
 8006f46:	701a      	strb	r2, [r3, #0]
 8006f48:	9b14      	ldr	r3, [sp, #80]	; 0x50
 8006f4a:	9a0a      	ldr	r2, [sp, #40]	; 0x28
 8006f4c:	4293      	cmp	r3, r2
 8006f4e:	d03e      	beq.n	8006fce <_dtoa_r+0xbca>
 8006f50:	2300      	movs	r3, #0
 8006f52:	220a      	movs	r2, #10
 8006f54:	9905      	ldr	r1, [sp, #20]
 8006f56:	0038      	movs	r0, r7
 8006f58:	f000 f8f8 	bl	800714c <__multadd>
 8006f5c:	2300      	movs	r3, #0
 8006f5e:	9005      	str	r0, [sp, #20]
 8006f60:	220a      	movs	r2, #10
 8006f62:	0021      	movs	r1, r4
 8006f64:	0038      	movs	r0, r7
 8006f66:	42ac      	cmp	r4, r5
 8006f68:	d106      	bne.n	8006f78 <_dtoa_r+0xb74>
 8006f6a:	f000 f8ef 	bl	800714c <__multadd>
 8006f6e:	0004      	movs	r4, r0
 8006f70:	0005      	movs	r5, r0
 8006f72:	9b08      	ldr	r3, [sp, #32]
 8006f74:	930a      	str	r3, [sp, #40]	; 0x28
 8006f76:	e778      	b.n	8006e6a <_dtoa_r+0xa66>
 8006f78:	f000 f8e8 	bl	800714c <__multadd>
 8006f7c:	0029      	movs	r1, r5
 8006f7e:	0004      	movs	r4, r0
 8006f80:	2300      	movs	r3, #0
 8006f82:	220a      	movs	r2, #10
 8006f84:	0038      	movs	r0, r7
 8006f86:	f000 f8e1 	bl	800714c <__multadd>
 8006f8a:	0005      	movs	r5, r0
 8006f8c:	e7f1      	b.n	8006f72 <_dtoa_r+0xb6e>
 8006f8e:	9b07      	ldr	r3, [sp, #28]
 8006f90:	930c      	str	r3, [sp, #48]	; 0x30
 8006f92:	2400      	movs	r4, #0
 8006f94:	0031      	movs	r1, r6
 8006f96:	9805      	ldr	r0, [sp, #20]
 8006f98:	f7ff f9a8 	bl	80062ec <quorem>
 8006f9c:	9b06      	ldr	r3, [sp, #24]
 8006f9e:	3030      	adds	r0, #48	; 0x30
 8006fa0:	5518      	strb	r0, [r3, r4]
 8006fa2:	9b0c      	ldr	r3, [sp, #48]	; 0x30
 8006fa4:	3401      	adds	r4, #1
 8006fa6:	9007      	str	r0, [sp, #28]
 8006fa8:	42a3      	cmp	r3, r4
 8006faa:	dd07      	ble.n	8006fbc <_dtoa_r+0xbb8>
 8006fac:	2300      	movs	r3, #0
 8006fae:	220a      	movs	r2, #10
 8006fb0:	0038      	movs	r0, r7
 8006fb2:	9905      	ldr	r1, [sp, #20]
 8006fb4:	f000 f8ca 	bl	800714c <__multadd>
 8006fb8:	9005      	str	r0, [sp, #20]
 8006fba:	e7eb      	b.n	8006f94 <_dtoa_r+0xb90>
 8006fbc:	9b0c      	ldr	r3, [sp, #48]	; 0x30
 8006fbe:	2001      	movs	r0, #1
 8006fc0:	2b00      	cmp	r3, #0
 8006fc2:	dd00      	ble.n	8006fc6 <_dtoa_r+0xbc2>
 8006fc4:	0018      	movs	r0, r3
 8006fc6:	2400      	movs	r4, #0
 8006fc8:	9b06      	ldr	r3, [sp, #24]
 8006fca:	181b      	adds	r3, r3, r0
 8006fcc:	9308      	str	r3, [sp, #32]
 8006fce:	9905      	ldr	r1, [sp, #20]
 8006fd0:	2201      	movs	r2, #1
 8006fd2:	0038      	movs	r0, r7
 8006fd4:	f000 fa68 	bl	80074a8 <__lshift>
 8006fd8:	0031      	movs	r1, r6
 8006fda:	9005      	str	r0, [sp, #20]
 8006fdc:	f000 fad2 	bl	8007584 <__mcmp>
 8006fe0:	2800      	cmp	r0, #0
 8006fe2:	dc9b      	bgt.n	8006f1c <_dtoa_r+0xb18>
 8006fe4:	d102      	bne.n	8006fec <_dtoa_r+0xbe8>
 8006fe6:	9b07      	ldr	r3, [sp, #28]
 8006fe8:	07db      	lsls	r3, r3, #31
 8006fea:	d497      	bmi.n	8006f1c <_dtoa_r+0xb18>
 8006fec:	9b08      	ldr	r3, [sp, #32]
 8006fee:	9308      	str	r3, [sp, #32]
 8006ff0:	3b01      	subs	r3, #1
 8006ff2:	781a      	ldrb	r2, [r3, #0]
 8006ff4:	2a30      	cmp	r2, #48	; 0x30
 8006ff6:	d0fa      	beq.n	8006fee <_dtoa_r+0xbea>
 8006ff8:	e6db      	b.n	8006db2 <_dtoa_r+0x9ae>
 8006ffa:	9a06      	ldr	r2, [sp, #24]
 8006ffc:	429a      	cmp	r2, r3
 8006ffe:	d18e      	bne.n	8006f1e <_dtoa_r+0xb1a>
 8007000:	9b02      	ldr	r3, [sp, #8]
 8007002:	3301      	adds	r3, #1
 8007004:	9302      	str	r3, [sp, #8]
 8007006:	2331      	movs	r3, #49	; 0x31
 8007008:	e799      	b.n	8006f3e <_dtoa_r+0xb3a>
 800700a:	4b09      	ldr	r3, [pc, #36]	; (8007030 <_dtoa_r+0xc2c>)
 800700c:	9a26      	ldr	r2, [sp, #152]	; 0x98
 800700e:	9306      	str	r3, [sp, #24]
 8007010:	4b08      	ldr	r3, [pc, #32]	; (8007034 <_dtoa_r+0xc30>)
 8007012:	2a00      	cmp	r2, #0
 8007014:	d001      	beq.n	800701a <_dtoa_r+0xc16>
 8007016:	f7ff fa3f 	bl	8006498 <_dtoa_r+0x94>
 800701a:	f7ff fa3f 	bl	800649c <_dtoa_r+0x98>
 800701e:	9b0c      	ldr	r3, [sp, #48]	; 0x30
 8007020:	2b00      	cmp	r3, #0
 8007022:	dcb6      	bgt.n	8006f92 <_dtoa_r+0xb8e>
 8007024:	9b22      	ldr	r3, [sp, #136]	; 0x88
 8007026:	2b02      	cmp	r3, #2
 8007028:	dd00      	ble.n	800702c <_dtoa_r+0xc28>
 800702a:	e6ac      	b.n	8006d86 <_dtoa_r+0x982>
 800702c:	e7b1      	b.n	8006f92 <_dtoa_r+0xb8e>
 800702e:	46c0      	nop			; (mov r8, r8)
 8007030:	08009250 	.word	0x08009250
 8007034:	08009258 	.word	0x08009258

08007038 <_localeconv_r>:
 8007038:	4800      	ldr	r0, [pc, #0]	; (800703c <_localeconv_r+0x4>)
 800703a:	4770      	bx	lr
 800703c:	20000160 	.word	0x20000160

08007040 <malloc>:
 8007040:	b510      	push	{r4, lr}
 8007042:	4b03      	ldr	r3, [pc, #12]	; (8007050 <malloc+0x10>)
 8007044:	0001      	movs	r1, r0
 8007046:	6818      	ldr	r0, [r3, #0]
 8007048:	f000 fc4c 	bl	80078e4 <_malloc_r>
 800704c:	bd10      	pop	{r4, pc}
 800704e:	46c0      	nop			; (mov r8, r8)
 8007050:	2000000c 	.word	0x2000000c

08007054 <memchr>:
 8007054:	b2c9      	uxtb	r1, r1
 8007056:	1882      	adds	r2, r0, r2
 8007058:	4290      	cmp	r0, r2
 800705a:	d101      	bne.n	8007060 <memchr+0xc>
 800705c:	2000      	movs	r0, #0
 800705e:	4770      	bx	lr
 8007060:	7803      	ldrb	r3, [r0, #0]
 8007062:	428b      	cmp	r3, r1
 8007064:	d0fb      	beq.n	800705e <memchr+0xa>
 8007066:	3001      	adds	r0, #1
 8007068:	e7f6      	b.n	8007058 <memchr+0x4>

0800706a <memcpy>:
 800706a:	2300      	movs	r3, #0
 800706c:	b510      	push	{r4, lr}
 800706e:	429a      	cmp	r2, r3
 8007070:	d100      	bne.n	8007074 <memcpy+0xa>
 8007072:	bd10      	pop	{r4, pc}
 8007074:	5ccc      	ldrb	r4, [r1, r3]
 8007076:	54c4      	strb	r4, [r0, r3]
 8007078:	3301      	adds	r3, #1
 800707a:	e7f8      	b.n	800706e <memcpy+0x4>

0800707c <_Balloc>:
 800707c:	b570      	push	{r4, r5, r6, lr}
 800707e:	6a45      	ldr	r5, [r0, #36]	; 0x24
 8007080:	0006      	movs	r6, r0
 8007082:	000c      	movs	r4, r1
 8007084:	2d00      	cmp	r5, #0
 8007086:	d10e      	bne.n	80070a6 <_Balloc+0x2a>
 8007088:	2010      	movs	r0, #16
 800708a:	f7ff ffd9 	bl	8007040 <malloc>
 800708e:	1e02      	subs	r2, r0, #0
 8007090:	6270      	str	r0, [r6, #36]	; 0x24
 8007092:	d104      	bne.n	800709e <_Balloc+0x22>
 8007094:	2166      	movs	r1, #102	; 0x66
 8007096:	4b19      	ldr	r3, [pc, #100]	; (80070fc <_Balloc+0x80>)
 8007098:	4819      	ldr	r0, [pc, #100]	; (8007100 <_Balloc+0x84>)
 800709a:	f000 fe0d 	bl	8007cb8 <__assert_func>
 800709e:	6045      	str	r5, [r0, #4]
 80070a0:	6085      	str	r5, [r0, #8]
 80070a2:	6005      	str	r5, [r0, #0]
 80070a4:	60c5      	str	r5, [r0, #12]
 80070a6:	6a75      	ldr	r5, [r6, #36]	; 0x24
 80070a8:	68eb      	ldr	r3, [r5, #12]
 80070aa:	2b00      	cmp	r3, #0
 80070ac:	d013      	beq.n	80070d6 <_Balloc+0x5a>
 80070ae:	6a73      	ldr	r3, [r6, #36]	; 0x24
 80070b0:	00a2      	lsls	r2, r4, #2
 80070b2:	68db      	ldr	r3, [r3, #12]
 80070b4:	189b      	adds	r3, r3, r2
 80070b6:	6818      	ldr	r0, [r3, #0]
 80070b8:	2800      	cmp	r0, #0
 80070ba:	d118      	bne.n	80070ee <_Balloc+0x72>
 80070bc:	2101      	movs	r1, #1
 80070be:	000d      	movs	r5, r1
 80070c0:	40a5      	lsls	r5, r4
 80070c2:	1d6a      	adds	r2, r5, #5
 80070c4:	0030      	movs	r0, r6
 80070c6:	0092      	lsls	r2, r2, #2
 80070c8:	f000 fb74 	bl	80077b4 <_calloc_r>
 80070cc:	2800      	cmp	r0, #0
 80070ce:	d00c      	beq.n	80070ea <_Balloc+0x6e>
 80070d0:	6044      	str	r4, [r0, #4]
 80070d2:	6085      	str	r5, [r0, #8]
 80070d4:	e00d      	b.n	80070f2 <_Balloc+0x76>
 80070d6:	2221      	movs	r2, #33	; 0x21
 80070d8:	2104      	movs	r1, #4
 80070da:	0030      	movs	r0, r6
 80070dc:	f000 fb6a 	bl	80077b4 <_calloc_r>
 80070e0:	6a73      	ldr	r3, [r6, #36]	; 0x24
 80070e2:	60e8      	str	r0, [r5, #12]
 80070e4:	68db      	ldr	r3, [r3, #12]
 80070e6:	2b00      	cmp	r3, #0
 80070e8:	d1e1      	bne.n	80070ae <_Balloc+0x32>
 80070ea:	2000      	movs	r0, #0
 80070ec:	bd70      	pop	{r4, r5, r6, pc}
 80070ee:	6802      	ldr	r2, [r0, #0]
 80070f0:	601a      	str	r2, [r3, #0]
 80070f2:	2300      	movs	r3, #0
 80070f4:	6103      	str	r3, [r0, #16]
 80070f6:	60c3      	str	r3, [r0, #12]
 80070f8:	e7f8      	b.n	80070ec <_Balloc+0x70>
 80070fa:	46c0      	nop			; (mov r8, r8)
 80070fc:	0800925d 	.word	0x0800925d
 8007100:	080092e0 	.word	0x080092e0

08007104 <_Bfree>:
 8007104:	b570      	push	{r4, r5, r6, lr}
 8007106:	6a46      	ldr	r6, [r0, #36]	; 0x24
 8007108:	0005      	movs	r5, r0
 800710a:	000c      	movs	r4, r1
 800710c:	2e00      	cmp	r6, #0
 800710e:	d10e      	bne.n	800712e <_Bfree+0x2a>
 8007110:	2010      	movs	r0, #16
 8007112:	f7ff ff95 	bl	8007040 <malloc>
 8007116:	1e02      	subs	r2, r0, #0
 8007118:	6268      	str	r0, [r5, #36]	; 0x24
 800711a:	d104      	bne.n	8007126 <_Bfree+0x22>
 800711c:	218a      	movs	r1, #138	; 0x8a
 800711e:	4b09      	ldr	r3, [pc, #36]	; (8007144 <_Bfree+0x40>)
 8007120:	4809      	ldr	r0, [pc, #36]	; (8007148 <_Bfree+0x44>)
 8007122:	f000 fdc9 	bl	8007cb8 <__assert_func>
 8007126:	6046      	str	r6, [r0, #4]
 8007128:	6086      	str	r6, [r0, #8]
 800712a:	6006      	str	r6, [r0, #0]
 800712c:	60c6      	str	r6, [r0, #12]
 800712e:	2c00      	cmp	r4, #0
 8007130:	d007      	beq.n	8007142 <_Bfree+0x3e>
 8007132:	6a6b      	ldr	r3, [r5, #36]	; 0x24
 8007134:	6862      	ldr	r2, [r4, #4]
 8007136:	68db      	ldr	r3, [r3, #12]
 8007138:	0092      	lsls	r2, r2, #2
 800713a:	189b      	adds	r3, r3, r2
 800713c:	681a      	ldr	r2, [r3, #0]
 800713e:	6022      	str	r2, [r4, #0]
 8007140:	601c      	str	r4, [r3, #0]
 8007142:	bd70      	pop	{r4, r5, r6, pc}
 8007144:	0800925d 	.word	0x0800925d
 8007148:	080092e0 	.word	0x080092e0

0800714c <__multadd>:
 800714c:	b5f7      	push	{r0, r1, r2, r4, r5, r6, r7, lr}
 800714e:	000e      	movs	r6, r1
 8007150:	9001      	str	r0, [sp, #4]
 8007152:	000c      	movs	r4, r1
 8007154:	001d      	movs	r5, r3
 8007156:	2000      	movs	r0, #0
 8007158:	690f      	ldr	r7, [r1, #16]
 800715a:	3614      	adds	r6, #20
 800715c:	6833      	ldr	r3, [r6, #0]
 800715e:	3001      	adds	r0, #1
 8007160:	b299      	uxth	r1, r3
 8007162:	4351      	muls	r1, r2
 8007164:	0c1b      	lsrs	r3, r3, #16
 8007166:	4353      	muls	r3, r2
 8007168:	1949      	adds	r1, r1, r5
 800716a:	0c0d      	lsrs	r5, r1, #16
 800716c:	195b      	adds	r3, r3, r5
 800716e:	0c1d      	lsrs	r5, r3, #16
 8007170:	b289      	uxth	r1, r1
 8007172:	041b      	lsls	r3, r3, #16
 8007174:	185b      	adds	r3, r3, r1
 8007176:	c608      	stmia	r6!, {r3}
 8007178:	4287      	cmp	r7, r0
 800717a:	dcef      	bgt.n	800715c <__multadd+0x10>
 800717c:	2d00      	cmp	r5, #0
 800717e:	d022      	beq.n	80071c6 <__multadd+0x7a>
 8007180:	68a3      	ldr	r3, [r4, #8]
 8007182:	42bb      	cmp	r3, r7
 8007184:	dc19      	bgt.n	80071ba <__multadd+0x6e>
 8007186:	6863      	ldr	r3, [r4, #4]
 8007188:	9801      	ldr	r0, [sp, #4]
 800718a:	1c59      	adds	r1, r3, #1
 800718c:	f7ff ff76 	bl	800707c <_Balloc>
 8007190:	1e06      	subs	r6, r0, #0
 8007192:	d105      	bne.n	80071a0 <__multadd+0x54>
 8007194:	0002      	movs	r2, r0
 8007196:	21b5      	movs	r1, #181	; 0xb5
 8007198:	4b0c      	ldr	r3, [pc, #48]	; (80071cc <__multadd+0x80>)
 800719a:	480d      	ldr	r0, [pc, #52]	; (80071d0 <__multadd+0x84>)
 800719c:	f000 fd8c 	bl	8007cb8 <__assert_func>
 80071a0:	0021      	movs	r1, r4
 80071a2:	6923      	ldr	r3, [r4, #16]
 80071a4:	310c      	adds	r1, #12
 80071a6:	1c9a      	adds	r2, r3, #2
 80071a8:	0092      	lsls	r2, r2, #2
 80071aa:	300c      	adds	r0, #12
 80071ac:	f7ff ff5d 	bl	800706a <memcpy>
 80071b0:	0021      	movs	r1, r4
 80071b2:	9801      	ldr	r0, [sp, #4]
 80071b4:	f7ff ffa6 	bl	8007104 <_Bfree>
 80071b8:	0034      	movs	r4, r6
 80071ba:	1d3b      	adds	r3, r7, #4
 80071bc:	009b      	lsls	r3, r3, #2
 80071be:	18e3      	adds	r3, r4, r3
 80071c0:	605d      	str	r5, [r3, #4]
 80071c2:	1c7b      	adds	r3, r7, #1
 80071c4:	6123      	str	r3, [r4, #16]
 80071c6:	0020      	movs	r0, r4
 80071c8:	bdfe      	pop	{r1, r2, r3, r4, r5, r6, r7, pc}
 80071ca:	46c0      	nop			; (mov r8, r8)
 80071cc:	080092cf 	.word	0x080092cf
 80071d0:	080092e0 	.word	0x080092e0

080071d4 <__hi0bits>:
 80071d4:	0003      	movs	r3, r0
 80071d6:	0c02      	lsrs	r2, r0, #16
 80071d8:	2000      	movs	r0, #0
 80071da:	4282      	cmp	r2, r0
 80071dc:	d101      	bne.n	80071e2 <__hi0bits+0xe>
 80071de:	041b      	lsls	r3, r3, #16
 80071e0:	3010      	adds	r0, #16
 80071e2:	0e1a      	lsrs	r2, r3, #24
 80071e4:	d101      	bne.n	80071ea <__hi0bits+0x16>
 80071e6:	3008      	adds	r0, #8
 80071e8:	021b      	lsls	r3, r3, #8
 80071ea:	0f1a      	lsrs	r2, r3, #28
 80071ec:	d101      	bne.n	80071f2 <__hi0bits+0x1e>
 80071ee:	3004      	adds	r0, #4
 80071f0:	011b      	lsls	r3, r3, #4
 80071f2:	0f9a      	lsrs	r2, r3, #30
 80071f4:	d101      	bne.n	80071fa <__hi0bits+0x26>
 80071f6:	3002      	adds	r0, #2
 80071f8:	009b      	lsls	r3, r3, #2
 80071fa:	2b00      	cmp	r3, #0
 80071fc:	db03      	blt.n	8007206 <__hi0bits+0x32>
 80071fe:	3001      	adds	r0, #1
 8007200:	005b      	lsls	r3, r3, #1
 8007202:	d400      	bmi.n	8007206 <__hi0bits+0x32>
 8007204:	2020      	movs	r0, #32
 8007206:	4770      	bx	lr

08007208 <__lo0bits>:
 8007208:	6803      	ldr	r3, [r0, #0]
 800720a:	0002      	movs	r2, r0
 800720c:	2107      	movs	r1, #7
 800720e:	0018      	movs	r0, r3
 8007210:	4008      	ands	r0, r1
 8007212:	420b      	tst	r3, r1
 8007214:	d00d      	beq.n	8007232 <__lo0bits+0x2a>
 8007216:	3906      	subs	r1, #6
 8007218:	2000      	movs	r0, #0
 800721a:	420b      	tst	r3, r1
 800721c:	d105      	bne.n	800722a <__lo0bits+0x22>
 800721e:	3002      	adds	r0, #2
 8007220:	4203      	tst	r3, r0
 8007222:	d003      	beq.n	800722c <__lo0bits+0x24>
 8007224:	40cb      	lsrs	r3, r1
 8007226:	0008      	movs	r0, r1
 8007228:	6013      	str	r3, [r2, #0]
 800722a:	4770      	bx	lr
 800722c:	089b      	lsrs	r3, r3, #2
 800722e:	6013      	str	r3, [r2, #0]
 8007230:	e7fb      	b.n	800722a <__lo0bits+0x22>
 8007232:	b299      	uxth	r1, r3
 8007234:	2900      	cmp	r1, #0
 8007236:	d101      	bne.n	800723c <__lo0bits+0x34>
 8007238:	2010      	movs	r0, #16
 800723a:	0c1b      	lsrs	r3, r3, #16
 800723c:	b2d9      	uxtb	r1, r3
 800723e:	2900      	cmp	r1, #0
 8007240:	d101      	bne.n	8007246 <__lo0bits+0x3e>
 8007242:	3008      	adds	r0, #8
 8007244:	0a1b      	lsrs	r3, r3, #8
 8007246:	0719      	lsls	r1, r3, #28
 8007248:	d101      	bne.n	800724e <__lo0bits+0x46>
 800724a:	3004      	adds	r0, #4
 800724c:	091b      	lsrs	r3, r3, #4
 800724e:	0799      	lsls	r1, r3, #30
 8007250:	d101      	bne.n	8007256 <__lo0bits+0x4e>
 8007252:	3002      	adds	r0, #2
 8007254:	089b      	lsrs	r3, r3, #2
 8007256:	07d9      	lsls	r1, r3, #31
 8007258:	d4e9      	bmi.n	800722e <__lo0bits+0x26>
 800725a:	3001      	adds	r0, #1
 800725c:	085b      	lsrs	r3, r3, #1
 800725e:	d1e6      	bne.n	800722e <__lo0bits+0x26>
 8007260:	2020      	movs	r0, #32
 8007262:	e7e2      	b.n	800722a <__lo0bits+0x22>

08007264 <__i2b>:
 8007264:	b510      	push	{r4, lr}
 8007266:	000c      	movs	r4, r1
 8007268:	2101      	movs	r1, #1
 800726a:	f7ff ff07 	bl	800707c <_Balloc>
 800726e:	2800      	cmp	r0, #0
 8007270:	d106      	bne.n	8007280 <__i2b+0x1c>
 8007272:	21a0      	movs	r1, #160	; 0xa0
 8007274:	0002      	movs	r2, r0
 8007276:	4b04      	ldr	r3, [pc, #16]	; (8007288 <__i2b+0x24>)
 8007278:	4804      	ldr	r0, [pc, #16]	; (800728c <__i2b+0x28>)
 800727a:	0049      	lsls	r1, r1, #1
 800727c:	f000 fd1c 	bl	8007cb8 <__assert_func>
 8007280:	2301      	movs	r3, #1
 8007282:	6144      	str	r4, [r0, #20]
 8007284:	6103      	str	r3, [r0, #16]
 8007286:	bd10      	pop	{r4, pc}
 8007288:	080092cf 	.word	0x080092cf
 800728c:	080092e0 	.word	0x080092e0

08007290 <__multiply>:
 8007290:	b5f0      	push	{r4, r5, r6, r7, lr}
 8007292:	690b      	ldr	r3, [r1, #16]
 8007294:	0014      	movs	r4, r2
 8007296:	6912      	ldr	r2, [r2, #16]
 8007298:	000d      	movs	r5, r1
 800729a:	b089      	sub	sp, #36	; 0x24
 800729c:	4293      	cmp	r3, r2
 800729e:	da01      	bge.n	80072a4 <__multiply+0x14>
 80072a0:	0025      	movs	r5, r4
 80072a2:	000c      	movs	r4, r1
 80072a4:	692f      	ldr	r7, [r5, #16]
 80072a6:	6926      	ldr	r6, [r4, #16]
 80072a8:	6869      	ldr	r1, [r5, #4]
 80072aa:	19bb      	adds	r3, r7, r6
 80072ac:	9302      	str	r3, [sp, #8]
 80072ae:	68ab      	ldr	r3, [r5, #8]
 80072b0:	19ba      	adds	r2, r7, r6
 80072b2:	4293      	cmp	r3, r2
 80072b4:	da00      	bge.n	80072b8 <__multiply+0x28>
 80072b6:	3101      	adds	r1, #1
 80072b8:	f7ff fee0 	bl	800707c <_Balloc>
 80072bc:	9001      	str	r0, [sp, #4]
 80072be:	2800      	cmp	r0, #0
 80072c0:	d106      	bne.n	80072d0 <__multiply+0x40>
 80072c2:	215e      	movs	r1, #94	; 0x5e
 80072c4:	0002      	movs	r2, r0
 80072c6:	4b48      	ldr	r3, [pc, #288]	; (80073e8 <__multiply+0x158>)
 80072c8:	4848      	ldr	r0, [pc, #288]	; (80073ec <__multiply+0x15c>)
 80072ca:	31ff      	adds	r1, #255	; 0xff
 80072cc:	f000 fcf4 	bl	8007cb8 <__assert_func>
 80072d0:	9b01      	ldr	r3, [sp, #4]
 80072d2:	2200      	movs	r2, #0
 80072d4:	3314      	adds	r3, #20
 80072d6:	469c      	mov	ip, r3
 80072d8:	19bb      	adds	r3, r7, r6
 80072da:	009b      	lsls	r3, r3, #2
 80072dc:	4463      	add	r3, ip
 80072de:	9303      	str	r3, [sp, #12]
 80072e0:	4663      	mov	r3, ip
 80072e2:	9903      	ldr	r1, [sp, #12]
 80072e4:	428b      	cmp	r3, r1
 80072e6:	d32c      	bcc.n	8007342 <__multiply+0xb2>
 80072e8:	002b      	movs	r3, r5
 80072ea:	0022      	movs	r2, r4
 80072ec:	3314      	adds	r3, #20
 80072ee:	00bf      	lsls	r7, r7, #2
 80072f0:	3214      	adds	r2, #20
 80072f2:	9306      	str	r3, [sp, #24]
 80072f4:	00b6      	lsls	r6, r6, #2
 80072f6:	19db      	adds	r3, r3, r7
 80072f8:	9304      	str	r3, [sp, #16]
 80072fa:	1993      	adds	r3, r2, r6
 80072fc:	9307      	str	r3, [sp, #28]
 80072fe:	2304      	movs	r3, #4
 8007300:	9305      	str	r3, [sp, #20]
 8007302:	002b      	movs	r3, r5
 8007304:	9904      	ldr	r1, [sp, #16]
 8007306:	3315      	adds	r3, #21
 8007308:	9200      	str	r2, [sp, #0]
 800730a:	4299      	cmp	r1, r3
 800730c:	d305      	bcc.n	800731a <__multiply+0x8a>
 800730e:	1b4b      	subs	r3, r1, r5
 8007310:	3b15      	subs	r3, #21
 8007312:	089b      	lsrs	r3, r3, #2
 8007314:	3301      	adds	r3, #1
 8007316:	009b      	lsls	r3, r3, #2
 8007318:	9305      	str	r3, [sp, #20]
 800731a:	9b07      	ldr	r3, [sp, #28]
 800731c:	9a00      	ldr	r2, [sp, #0]
 800731e:	429a      	cmp	r2, r3
 8007320:	d311      	bcc.n	8007346 <__multiply+0xb6>
 8007322:	9b02      	ldr	r3, [sp, #8]
 8007324:	2b00      	cmp	r3, #0
 8007326:	dd06      	ble.n	8007336 <__multiply+0xa6>
 8007328:	9b03      	ldr	r3, [sp, #12]
 800732a:	3b04      	subs	r3, #4
 800732c:	9303      	str	r3, [sp, #12]
 800732e:	681b      	ldr	r3, [r3, #0]
 8007330:	9300      	str	r3, [sp, #0]
 8007332:	2b00      	cmp	r3, #0
 8007334:	d053      	beq.n	80073de <__multiply+0x14e>
 8007336:	9b01      	ldr	r3, [sp, #4]
 8007338:	9a02      	ldr	r2, [sp, #8]
 800733a:	0018      	movs	r0, r3
 800733c:	611a      	str	r2, [r3, #16]
 800733e:	b009      	add	sp, #36	; 0x24
 8007340:	bdf0      	pop	{r4, r5, r6, r7, pc}
 8007342:	c304      	stmia	r3!, {r2}
 8007344:	e7cd      	b.n	80072e2 <__multiply+0x52>
 8007346:	9b00      	ldr	r3, [sp, #0]
 8007348:	681b      	ldr	r3, [r3, #0]
 800734a:	b298      	uxth	r0, r3
 800734c:	2800      	cmp	r0, #0
 800734e:	d01b      	beq.n	8007388 <__multiply+0xf8>
 8007350:	4667      	mov	r7, ip
 8007352:	2400      	movs	r4, #0
 8007354:	9e06      	ldr	r6, [sp, #24]
 8007356:	ce02      	ldmia	r6!, {r1}
 8007358:	683a      	ldr	r2, [r7, #0]
 800735a:	b28b      	uxth	r3, r1
 800735c:	4343      	muls	r3, r0
 800735e:	b292      	uxth	r2, r2
 8007360:	189b      	adds	r3, r3, r2
 8007362:	191b      	adds	r3, r3, r4
 8007364:	0c0c      	lsrs	r4, r1, #16
 8007366:	4344      	muls	r4, r0
 8007368:	683a      	ldr	r2, [r7, #0]
 800736a:	0c11      	lsrs	r1, r2, #16
 800736c:	1861      	adds	r1, r4, r1
 800736e:	0c1c      	lsrs	r4, r3, #16
 8007370:	1909      	adds	r1, r1, r4
 8007372:	0c0c      	lsrs	r4, r1, #16
 8007374:	b29b      	uxth	r3, r3
 8007376:	0409      	lsls	r1, r1, #16
 8007378:	430b      	orrs	r3, r1
 800737a:	c708      	stmia	r7!, {r3}
 800737c:	9b04      	ldr	r3, [sp, #16]
 800737e:	42b3      	cmp	r3, r6
 8007380:	d8e9      	bhi.n	8007356 <__multiply+0xc6>
 8007382:	4663      	mov	r3, ip
 8007384:	9a05      	ldr	r2, [sp, #20]
 8007386:	509c      	str	r4, [r3, r2]
 8007388:	9b00      	ldr	r3, [sp, #0]
 800738a:	681b      	ldr	r3, [r3, #0]
 800738c:	0c1e      	lsrs	r6, r3, #16
 800738e:	d020      	beq.n	80073d2 <__multiply+0x142>
 8007390:	4663      	mov	r3, ip
 8007392:	002c      	movs	r4, r5
 8007394:	4660      	mov	r0, ip
 8007396:	2700      	movs	r7, #0
 8007398:	681b      	ldr	r3, [r3, #0]
 800739a:	3414      	adds	r4, #20
 800739c:	6822      	ldr	r2, [r4, #0]
 800739e:	b29b      	uxth	r3, r3
 80073a0:	b291      	uxth	r1, r2
 80073a2:	4371      	muls	r1, r6
 80073a4:	6802      	ldr	r2, [r0, #0]
 80073a6:	0c12      	lsrs	r2, r2, #16
 80073a8:	1889      	adds	r1, r1, r2
 80073aa:	19cf      	adds	r7, r1, r7
 80073ac:	0439      	lsls	r1, r7, #16
 80073ae:	430b      	orrs	r3, r1
 80073b0:	6003      	str	r3, [r0, #0]
 80073b2:	cc02      	ldmia	r4!, {r1}
 80073b4:	6843      	ldr	r3, [r0, #4]
 80073b6:	0c09      	lsrs	r1, r1, #16
 80073b8:	4371      	muls	r1, r6
 80073ba:	b29b      	uxth	r3, r3
 80073bc:	0c3f      	lsrs	r7, r7, #16
 80073be:	18cb      	adds	r3, r1, r3
 80073c0:	9a04      	ldr	r2, [sp, #16]
 80073c2:	19db      	adds	r3, r3, r7
 80073c4:	0c1f      	lsrs	r7, r3, #16
 80073c6:	3004      	adds	r0, #4
 80073c8:	42a2      	cmp	r2, r4
 80073ca:	d8e7      	bhi.n	800739c <__multiply+0x10c>
 80073cc:	4662      	mov	r2, ip
 80073ce:	9905      	ldr	r1, [sp, #20]
 80073d0:	5053      	str	r3, [r2, r1]
 80073d2:	9b00      	ldr	r3, [sp, #0]
 80073d4:	3304      	adds	r3, #4
 80073d6:	9300      	str	r3, [sp, #0]
 80073d8:	2304      	movs	r3, #4
 80073da:	449c      	add	ip, r3
 80073dc:	e79d      	b.n	800731a <__multiply+0x8a>
 80073de:	9b02      	ldr	r3, [sp, #8]
 80073e0:	3b01      	subs	r3, #1
 80073e2:	9302      	str	r3, [sp, #8]
 80073e4:	e79d      	b.n	8007322 <__multiply+0x92>
 80073e6:	46c0      	nop			; (mov r8, r8)
 80073e8:	080092cf 	.word	0x080092cf
 80073ec:	080092e0 	.word	0x080092e0

080073f0 <__pow5mult>:
 80073f0:	b5f7      	push	{r0, r1, r2, r4, r5, r6, r7, lr}
 80073f2:	2303      	movs	r3, #3
 80073f4:	0015      	movs	r5, r2
 80073f6:	0007      	movs	r7, r0
 80073f8:	000e      	movs	r6, r1
 80073fa:	401a      	ands	r2, r3
 80073fc:	421d      	tst	r5, r3
 80073fe:	d008      	beq.n	8007412 <__pow5mult+0x22>
 8007400:	4925      	ldr	r1, [pc, #148]	; (8007498 <__pow5mult+0xa8>)
 8007402:	3a01      	subs	r2, #1
 8007404:	0092      	lsls	r2, r2, #2
 8007406:	5852      	ldr	r2, [r2, r1]
 8007408:	2300      	movs	r3, #0
 800740a:	0031      	movs	r1, r6
 800740c:	f7ff fe9e 	bl	800714c <__multadd>
 8007410:	0006      	movs	r6, r0
 8007412:	10ad      	asrs	r5, r5, #2
 8007414:	d03d      	beq.n	8007492 <__pow5mult+0xa2>
 8007416:	6a7c      	ldr	r4, [r7, #36]	; 0x24
 8007418:	2c00      	cmp	r4, #0
 800741a:	d10f      	bne.n	800743c <__pow5mult+0x4c>
 800741c:	2010      	movs	r0, #16
 800741e:	f7ff fe0f 	bl	8007040 <malloc>
 8007422:	1e02      	subs	r2, r0, #0
 8007424:	6278      	str	r0, [r7, #36]	; 0x24
 8007426:	d105      	bne.n	8007434 <__pow5mult+0x44>
 8007428:	21d7      	movs	r1, #215	; 0xd7
 800742a:	4b1c      	ldr	r3, [pc, #112]	; (800749c <__pow5mult+0xac>)
 800742c:	481c      	ldr	r0, [pc, #112]	; (80074a0 <__pow5mult+0xb0>)
 800742e:	0049      	lsls	r1, r1, #1
 8007430:	f000 fc42 	bl	8007cb8 <__assert_func>
 8007434:	6044      	str	r4, [r0, #4]
 8007436:	6084      	str	r4, [r0, #8]
 8007438:	6004      	str	r4, [r0, #0]
 800743a:	60c4      	str	r4, [r0, #12]
 800743c:	6a7b      	ldr	r3, [r7, #36]	; 0x24
 800743e:	689c      	ldr	r4, [r3, #8]
 8007440:	9301      	str	r3, [sp, #4]
 8007442:	2c00      	cmp	r4, #0
 8007444:	d108      	bne.n	8007458 <__pow5mult+0x68>
 8007446:	0038      	movs	r0, r7
 8007448:	4916      	ldr	r1, [pc, #88]	; (80074a4 <__pow5mult+0xb4>)
 800744a:	f7ff ff0b 	bl	8007264 <__i2b>
 800744e:	9b01      	ldr	r3, [sp, #4]
 8007450:	0004      	movs	r4, r0
 8007452:	6098      	str	r0, [r3, #8]
 8007454:	2300      	movs	r3, #0
 8007456:	6003      	str	r3, [r0, #0]
 8007458:	2301      	movs	r3, #1
 800745a:	421d      	tst	r5, r3
 800745c:	d00a      	beq.n	8007474 <__pow5mult+0x84>
 800745e:	0031      	movs	r1, r6
 8007460:	0022      	movs	r2, r4
 8007462:	0038      	movs	r0, r7
 8007464:	f7ff ff14 	bl	8007290 <__multiply>
 8007468:	0031      	movs	r1, r6
 800746a:	9001      	str	r0, [sp, #4]
 800746c:	0038      	movs	r0, r7
 800746e:	f7ff fe49 	bl	8007104 <_Bfree>
 8007472:	9e01      	ldr	r6, [sp, #4]
 8007474:	106d      	asrs	r5, r5, #1
 8007476:	d00c      	beq.n	8007492 <__pow5mult+0xa2>
 8007478:	6820      	ldr	r0, [r4, #0]
 800747a:	2800      	cmp	r0, #0
 800747c:	d107      	bne.n	800748e <__pow5mult+0x9e>
 800747e:	0022      	movs	r2, r4
 8007480:	0021      	movs	r1, r4
 8007482:	0038      	movs	r0, r7
 8007484:	f7ff ff04 	bl	8007290 <__multiply>
 8007488:	2300      	movs	r3, #0
 800748a:	6020      	str	r0, [r4, #0]
 800748c:	6003      	str	r3, [r0, #0]
 800748e:	0004      	movs	r4, r0
 8007490:	e7e2      	b.n	8007458 <__pow5mult+0x68>
 8007492:	0030      	movs	r0, r6
 8007494:	bdfe      	pop	{r1, r2, r3, r4, r5, r6, r7, pc}
 8007496:	46c0      	nop			; (mov r8, r8)
 8007498:	08009430 	.word	0x08009430
 800749c:	0800925d 	.word	0x0800925d
 80074a0:	080092e0 	.word	0x080092e0
 80074a4:	00000271 	.word	0x00000271

080074a8 <__lshift>:
 80074a8:	b5f0      	push	{r4, r5, r6, r7, lr}
 80074aa:	000c      	movs	r4, r1
 80074ac:	0017      	movs	r7, r2
 80074ae:	6923      	ldr	r3, [r4, #16]
 80074b0:	1155      	asrs	r5, r2, #5
 80074b2:	b087      	sub	sp, #28
 80074b4:	18eb      	adds	r3, r5, r3
 80074b6:	9302      	str	r3, [sp, #8]
 80074b8:	3301      	adds	r3, #1
 80074ba:	9301      	str	r3, [sp, #4]
 80074bc:	6849      	ldr	r1, [r1, #4]
 80074be:	68a3      	ldr	r3, [r4, #8]
 80074c0:	9004      	str	r0, [sp, #16]
 80074c2:	9a01      	ldr	r2, [sp, #4]
 80074c4:	4293      	cmp	r3, r2
 80074c6:	db10      	blt.n	80074ea <__lshift+0x42>
 80074c8:	9804      	ldr	r0, [sp, #16]
 80074ca:	f7ff fdd7 	bl	800707c <_Balloc>
 80074ce:	2300      	movs	r3, #0
 80074d0:	0002      	movs	r2, r0
 80074d2:	0006      	movs	r6, r0
 80074d4:	0019      	movs	r1, r3
 80074d6:	3214      	adds	r2, #20
 80074d8:	4298      	cmp	r0, r3
 80074da:	d10c      	bne.n	80074f6 <__lshift+0x4e>
 80074dc:	21da      	movs	r1, #218	; 0xda
 80074de:	0002      	movs	r2, r0
 80074e0:	4b26      	ldr	r3, [pc, #152]	; (800757c <__lshift+0xd4>)
 80074e2:	4827      	ldr	r0, [pc, #156]	; (8007580 <__lshift+0xd8>)
 80074e4:	31ff      	adds	r1, #255	; 0xff
 80074e6:	f000 fbe7 	bl	8007cb8 <__assert_func>
 80074ea:	3101      	adds	r1, #1
 80074ec:	005b      	lsls	r3, r3, #1
 80074ee:	e7e8      	b.n	80074c2 <__lshift+0x1a>
 80074f0:	0098      	lsls	r0, r3, #2
 80074f2:	5011      	str	r1, [r2, r0]
 80074f4:	3301      	adds	r3, #1
 80074f6:	42ab      	cmp	r3, r5
 80074f8:	dbfa      	blt.n	80074f0 <__lshift+0x48>
 80074fa:	43eb      	mvns	r3, r5
 80074fc:	17db      	asrs	r3, r3, #31
 80074fe:	401d      	ands	r5, r3
 8007500:	211f      	movs	r1, #31
 8007502:	0023      	movs	r3, r4
 8007504:	0038      	movs	r0, r7
 8007506:	00ad      	lsls	r5, r5, #2
 8007508:	1955      	adds	r5, r2, r5
 800750a:	6922      	ldr	r2, [r4, #16]
 800750c:	3314      	adds	r3, #20
 800750e:	0092      	lsls	r2, r2, #2
 8007510:	4008      	ands	r0, r1
 8007512:	4684      	mov	ip, r0
 8007514:	189a      	adds	r2, r3, r2
 8007516:	420f      	tst	r7, r1
 8007518:	d02a      	beq.n	8007570 <__lshift+0xc8>
 800751a:	3101      	adds	r1, #1
 800751c:	1a09      	subs	r1, r1, r0
 800751e:	9105      	str	r1, [sp, #20]
 8007520:	2100      	movs	r1, #0
 8007522:	9503      	str	r5, [sp, #12]
 8007524:	4667      	mov	r7, ip
 8007526:	6818      	ldr	r0, [r3, #0]
 8007528:	40b8      	lsls	r0, r7
 800752a:	4301      	orrs	r1, r0
 800752c:	9803      	ldr	r0, [sp, #12]
 800752e:	c002      	stmia	r0!, {r1}
 8007530:	cb02      	ldmia	r3!, {r1}
 8007532:	9003      	str	r0, [sp, #12]
 8007534:	9805      	ldr	r0, [sp, #20]
 8007536:	40c1      	lsrs	r1, r0
 8007538:	429a      	cmp	r2, r3
 800753a:	d8f3      	bhi.n	8007524 <__lshift+0x7c>
 800753c:	0020      	movs	r0, r4
 800753e:	3015      	adds	r0, #21
 8007540:	2304      	movs	r3, #4
 8007542:	4282      	cmp	r2, r0
 8007544:	d304      	bcc.n	8007550 <__lshift+0xa8>
 8007546:	1b13      	subs	r3, r2, r4
 8007548:	3b15      	subs	r3, #21
 800754a:	089b      	lsrs	r3, r3, #2
 800754c:	3301      	adds	r3, #1
 800754e:	009b      	lsls	r3, r3, #2
 8007550:	50e9      	str	r1, [r5, r3]
 8007552:	2900      	cmp	r1, #0
 8007554:	d002      	beq.n	800755c <__lshift+0xb4>
 8007556:	9b02      	ldr	r3, [sp, #8]
 8007558:	3302      	adds	r3, #2
 800755a:	9301      	str	r3, [sp, #4]
 800755c:	9b01      	ldr	r3, [sp, #4]
 800755e:	9804      	ldr	r0, [sp, #16]
 8007560:	3b01      	subs	r3, #1
 8007562:	0021      	movs	r1, r4
 8007564:	6133      	str	r3, [r6, #16]
 8007566:	f7ff fdcd 	bl	8007104 <_Bfree>
 800756a:	0030      	movs	r0, r6
 800756c:	b007      	add	sp, #28
 800756e:	bdf0      	pop	{r4, r5, r6, r7, pc}
 8007570:	cb02      	ldmia	r3!, {r1}
 8007572:	c502      	stmia	r5!, {r1}
 8007574:	429a      	cmp	r2, r3
 8007576:	d8fb      	bhi.n	8007570 <__lshift+0xc8>
 8007578:	e7f0      	b.n	800755c <__lshift+0xb4>
 800757a:	46c0      	nop			; (mov r8, r8)
 800757c:	080092cf 	.word	0x080092cf
 8007580:	080092e0 	.word	0x080092e0

08007584 <__mcmp>:
 8007584:	6902      	ldr	r2, [r0, #16]
 8007586:	690b      	ldr	r3, [r1, #16]
 8007588:	b530      	push	{r4, r5, lr}
 800758a:	0004      	movs	r4, r0
 800758c:	1ad0      	subs	r0, r2, r3
 800758e:	429a      	cmp	r2, r3
 8007590:	d10d      	bne.n	80075ae <__mcmp+0x2a>
 8007592:	009b      	lsls	r3, r3, #2
 8007594:	3414      	adds	r4, #20
 8007596:	3114      	adds	r1, #20
 8007598:	18e2      	adds	r2, r4, r3
 800759a:	18c9      	adds	r1, r1, r3
 800759c:	3a04      	subs	r2, #4
 800759e:	3904      	subs	r1, #4
 80075a0:	6815      	ldr	r5, [r2, #0]
 80075a2:	680b      	ldr	r3, [r1, #0]
 80075a4:	429d      	cmp	r5, r3
 80075a6:	d003      	beq.n	80075b0 <__mcmp+0x2c>
 80075a8:	2001      	movs	r0, #1
 80075aa:	429d      	cmp	r5, r3
 80075ac:	d303      	bcc.n	80075b6 <__mcmp+0x32>
 80075ae:	bd30      	pop	{r4, r5, pc}
 80075b0:	4294      	cmp	r4, r2
 80075b2:	d3f3      	bcc.n	800759c <__mcmp+0x18>
 80075b4:	e7fb      	b.n	80075ae <__mcmp+0x2a>
 80075b6:	4240      	negs	r0, r0
 80075b8:	e7f9      	b.n	80075ae <__mcmp+0x2a>
	...

080075bc <__mdiff>:
 80075bc:	b5f0      	push	{r4, r5, r6, r7, lr}
 80075be:	000e      	movs	r6, r1
 80075c0:	0007      	movs	r7, r0
 80075c2:	0011      	movs	r1, r2
 80075c4:	0030      	movs	r0, r6
 80075c6:	b087      	sub	sp, #28
 80075c8:	0014      	movs	r4, r2
 80075ca:	f7ff ffdb 	bl	8007584 <__mcmp>
 80075ce:	1e05      	subs	r5, r0, #0
 80075d0:	d110      	bne.n	80075f4 <__mdiff+0x38>
 80075d2:	0001      	movs	r1, r0
 80075d4:	0038      	movs	r0, r7
 80075d6:	f7ff fd51 	bl	800707c <_Balloc>
 80075da:	1e02      	subs	r2, r0, #0
 80075dc:	d104      	bne.n	80075e8 <__mdiff+0x2c>
 80075de:	4b40      	ldr	r3, [pc, #256]	; (80076e0 <__mdiff+0x124>)
 80075e0:	4940      	ldr	r1, [pc, #256]	; (80076e4 <__mdiff+0x128>)
 80075e2:	4841      	ldr	r0, [pc, #260]	; (80076e8 <__mdiff+0x12c>)
 80075e4:	f000 fb68 	bl	8007cb8 <__assert_func>
 80075e8:	2301      	movs	r3, #1
 80075ea:	6145      	str	r5, [r0, #20]
 80075ec:	6103      	str	r3, [r0, #16]
 80075ee:	0010      	movs	r0, r2
 80075f0:	b007      	add	sp, #28
 80075f2:	bdf0      	pop	{r4, r5, r6, r7, pc}
 80075f4:	2301      	movs	r3, #1
 80075f6:	9301      	str	r3, [sp, #4]
 80075f8:	2800      	cmp	r0, #0
 80075fa:	db04      	blt.n	8007606 <__mdiff+0x4a>
 80075fc:	0023      	movs	r3, r4
 80075fe:	0034      	movs	r4, r6
 8007600:	001e      	movs	r6, r3
 8007602:	2300      	movs	r3, #0
 8007604:	9301      	str	r3, [sp, #4]
 8007606:	0038      	movs	r0, r7
 8007608:	6861      	ldr	r1, [r4, #4]
 800760a:	f7ff fd37 	bl	800707c <_Balloc>
 800760e:	1e02      	subs	r2, r0, #0
 8007610:	d103      	bne.n	800761a <__mdiff+0x5e>
 8007612:	2190      	movs	r1, #144	; 0x90
 8007614:	4b32      	ldr	r3, [pc, #200]	; (80076e0 <__mdiff+0x124>)
 8007616:	0089      	lsls	r1, r1, #2
 8007618:	e7e3      	b.n	80075e2 <__mdiff+0x26>
 800761a:	9b01      	ldr	r3, [sp, #4]
 800761c:	2700      	movs	r7, #0
 800761e:	60c3      	str	r3, [r0, #12]
 8007620:	6920      	ldr	r0, [r4, #16]
 8007622:	3414      	adds	r4, #20
 8007624:	9401      	str	r4, [sp, #4]
 8007626:	9b01      	ldr	r3, [sp, #4]
 8007628:	0084      	lsls	r4, r0, #2
 800762a:	191b      	adds	r3, r3, r4
 800762c:	0034      	movs	r4, r6
 800762e:	9302      	str	r3, [sp, #8]
 8007630:	6933      	ldr	r3, [r6, #16]
 8007632:	3414      	adds	r4, #20
 8007634:	0099      	lsls	r1, r3, #2
 8007636:	1863      	adds	r3, r4, r1
 8007638:	9303      	str	r3, [sp, #12]
 800763a:	0013      	movs	r3, r2
 800763c:	3314      	adds	r3, #20
 800763e:	469c      	mov	ip, r3
 8007640:	9305      	str	r3, [sp, #20]
 8007642:	9b01      	ldr	r3, [sp, #4]
 8007644:	9304      	str	r3, [sp, #16]
 8007646:	9b04      	ldr	r3, [sp, #16]
 8007648:	cc02      	ldmia	r4!, {r1}
 800764a:	cb20      	ldmia	r3!, {r5}
 800764c:	9304      	str	r3, [sp, #16]
 800764e:	b2ab      	uxth	r3, r5
 8007650:	19df      	adds	r7, r3, r7
 8007652:	b28b      	uxth	r3, r1
 8007654:	1afb      	subs	r3, r7, r3
 8007656:	0c09      	lsrs	r1, r1, #16
 8007658:	0c2d      	lsrs	r5, r5, #16
 800765a:	1a6d      	subs	r5, r5, r1
 800765c:	1419      	asrs	r1, r3, #16
 800765e:	186d      	adds	r5, r5, r1
 8007660:	4661      	mov	r1, ip
 8007662:	142f      	asrs	r7, r5, #16
 8007664:	b29b      	uxth	r3, r3
 8007666:	042d      	lsls	r5, r5, #16
 8007668:	432b      	orrs	r3, r5
 800766a:	c108      	stmia	r1!, {r3}
 800766c:	9b03      	ldr	r3, [sp, #12]
 800766e:	468c      	mov	ip, r1
 8007670:	42a3      	cmp	r3, r4
 8007672:	d8e8      	bhi.n	8007646 <__mdiff+0x8a>
 8007674:	0031      	movs	r1, r6
 8007676:	9c03      	ldr	r4, [sp, #12]
 8007678:	3115      	adds	r1, #21
 800767a:	2304      	movs	r3, #4
 800767c:	428c      	cmp	r4, r1
 800767e:	d304      	bcc.n	800768a <__mdiff+0xce>
 8007680:	1ba3      	subs	r3, r4, r6
 8007682:	3b15      	subs	r3, #21
 8007684:	089b      	lsrs	r3, r3, #2
 8007686:	3301      	adds	r3, #1
 8007688:	009b      	lsls	r3, r3, #2
 800768a:	9901      	ldr	r1, [sp, #4]
 800768c:	18cc      	adds	r4, r1, r3
 800768e:	9905      	ldr	r1, [sp, #20]
 8007690:	0026      	movs	r6, r4
 8007692:	18cb      	adds	r3, r1, r3
 8007694:	469c      	mov	ip, r3
 8007696:	9902      	ldr	r1, [sp, #8]
 8007698:	428e      	cmp	r6, r1
 800769a:	d310      	bcc.n	80076be <__mdiff+0x102>
 800769c:	9e02      	ldr	r6, [sp, #8]
 800769e:	1ee1      	subs	r1, r4, #3
 80076a0:	2500      	movs	r5, #0
 80076a2:	428e      	cmp	r6, r1
 80076a4:	d304      	bcc.n	80076b0 <__mdiff+0xf4>
 80076a6:	0031      	movs	r1, r6
 80076a8:	3103      	adds	r1, #3
 80076aa:	1b0c      	subs	r4, r1, r4
 80076ac:	08a4      	lsrs	r4, r4, #2
 80076ae:	00a5      	lsls	r5, r4, #2
 80076b0:	195b      	adds	r3, r3, r5
 80076b2:	3b04      	subs	r3, #4
 80076b4:	6819      	ldr	r1, [r3, #0]
 80076b6:	2900      	cmp	r1, #0
 80076b8:	d00f      	beq.n	80076da <__mdiff+0x11e>
 80076ba:	6110      	str	r0, [r2, #16]
 80076bc:	e797      	b.n	80075ee <__mdiff+0x32>
 80076be:	ce02      	ldmia	r6!, {r1}
 80076c0:	b28d      	uxth	r5, r1
 80076c2:	19ed      	adds	r5, r5, r7
 80076c4:	0c0f      	lsrs	r7, r1, #16
 80076c6:	1429      	asrs	r1, r5, #16
 80076c8:	1879      	adds	r1, r7, r1
 80076ca:	140f      	asrs	r7, r1, #16
 80076cc:	b2ad      	uxth	r5, r5
 80076ce:	0409      	lsls	r1, r1, #16
 80076d0:	430d      	orrs	r5, r1
 80076d2:	4661      	mov	r1, ip
 80076d4:	c120      	stmia	r1!, {r5}
 80076d6:	468c      	mov	ip, r1
 80076d8:	e7dd      	b.n	8007696 <__mdiff+0xda>
 80076da:	3801      	subs	r0, #1
 80076dc:	e7e9      	b.n	80076b2 <__mdiff+0xf6>
 80076de:	46c0      	nop			; (mov r8, r8)
 80076e0:	080092cf 	.word	0x080092cf
 80076e4:	00000232 	.word	0x00000232
 80076e8:	080092e0 	.word	0x080092e0

080076ec <__d2b>:
 80076ec:	b5f7      	push	{r0, r1, r2, r4, r5, r6, r7, lr}
 80076ee:	2101      	movs	r1, #1
 80076f0:	0014      	movs	r4, r2
 80076f2:	001e      	movs	r6, r3
 80076f4:	9f08      	ldr	r7, [sp, #32]
 80076f6:	f7ff fcc1 	bl	800707c <_Balloc>
 80076fa:	1e05      	subs	r5, r0, #0
 80076fc:	d105      	bne.n	800770a <__d2b+0x1e>
 80076fe:	0002      	movs	r2, r0
 8007700:	4b26      	ldr	r3, [pc, #152]	; (800779c <__d2b+0xb0>)
 8007702:	4927      	ldr	r1, [pc, #156]	; (80077a0 <__d2b+0xb4>)
 8007704:	4827      	ldr	r0, [pc, #156]	; (80077a4 <__d2b+0xb8>)
 8007706:	f000 fad7 	bl	8007cb8 <__assert_func>
 800770a:	0333      	lsls	r3, r6, #12
 800770c:	0076      	lsls	r6, r6, #1
 800770e:	0b1b      	lsrs	r3, r3, #12
 8007710:	0d76      	lsrs	r6, r6, #21
 8007712:	d124      	bne.n	800775e <__d2b+0x72>
 8007714:	9301      	str	r3, [sp, #4]
 8007716:	2c00      	cmp	r4, #0
 8007718:	d027      	beq.n	800776a <__d2b+0x7e>
 800771a:	4668      	mov	r0, sp
 800771c:	9400      	str	r4, [sp, #0]
 800771e:	f7ff fd73 	bl	8007208 <__lo0bits>
 8007722:	9c00      	ldr	r4, [sp, #0]
 8007724:	2800      	cmp	r0, #0
 8007726:	d01e      	beq.n	8007766 <__d2b+0x7a>
 8007728:	9b01      	ldr	r3, [sp, #4]
 800772a:	2120      	movs	r1, #32
 800772c:	001a      	movs	r2, r3
 800772e:	1a09      	subs	r1, r1, r0
 8007730:	408a      	lsls	r2, r1
 8007732:	40c3      	lsrs	r3, r0
 8007734:	4322      	orrs	r2, r4
 8007736:	616a      	str	r2, [r5, #20]
 8007738:	9301      	str	r3, [sp, #4]
 800773a:	9c01      	ldr	r4, [sp, #4]
 800773c:	61ac      	str	r4, [r5, #24]
 800773e:	1e63      	subs	r3, r4, #1
 8007740:	419c      	sbcs	r4, r3
 8007742:	3401      	adds	r4, #1
 8007744:	612c      	str	r4, [r5, #16]
 8007746:	2e00      	cmp	r6, #0
 8007748:	d018      	beq.n	800777c <__d2b+0x90>
 800774a:	4b17      	ldr	r3, [pc, #92]	; (80077a8 <__d2b+0xbc>)
 800774c:	18f6      	adds	r6, r6, r3
 800774e:	2335      	movs	r3, #53	; 0x35
 8007750:	1836      	adds	r6, r6, r0
 8007752:	1a18      	subs	r0, r3, r0
 8007754:	9b09      	ldr	r3, [sp, #36]	; 0x24
 8007756:	603e      	str	r6, [r7, #0]
 8007758:	6018      	str	r0, [r3, #0]
 800775a:	0028      	movs	r0, r5
 800775c:	bdfe      	pop	{r1, r2, r3, r4, r5, r6, r7, pc}
 800775e:	2280      	movs	r2, #128	; 0x80
 8007760:	0352      	lsls	r2, r2, #13
 8007762:	4313      	orrs	r3, r2
 8007764:	e7d6      	b.n	8007714 <__d2b+0x28>
 8007766:	616c      	str	r4, [r5, #20]
 8007768:	e7e7      	b.n	800773a <__d2b+0x4e>
 800776a:	a801      	add	r0, sp, #4
 800776c:	f7ff fd4c 	bl	8007208 <__lo0bits>
 8007770:	2401      	movs	r4, #1
 8007772:	9b01      	ldr	r3, [sp, #4]
 8007774:	612c      	str	r4, [r5, #16]
 8007776:	616b      	str	r3, [r5, #20]
 8007778:	3020      	adds	r0, #32
 800777a:	e7e4      	b.n	8007746 <__d2b+0x5a>
 800777c:	4b0b      	ldr	r3, [pc, #44]	; (80077ac <__d2b+0xc0>)
 800777e:	18c0      	adds	r0, r0, r3
 8007780:	4b0b      	ldr	r3, [pc, #44]	; (80077b0 <__d2b+0xc4>)
 8007782:	6038      	str	r0, [r7, #0]
 8007784:	18e3      	adds	r3, r4, r3
 8007786:	009b      	lsls	r3, r3, #2
 8007788:	18eb      	adds	r3, r5, r3
 800778a:	6958      	ldr	r0, [r3, #20]
 800778c:	f7ff fd22 	bl	80071d4 <__hi0bits>
 8007790:	0164      	lsls	r4, r4, #5
 8007792:	9b09      	ldr	r3, [sp, #36]	; 0x24
 8007794:	1a24      	subs	r4, r4, r0
 8007796:	601c      	str	r4, [r3, #0]
 8007798:	e7df      	b.n	800775a <__d2b+0x6e>
 800779a:	46c0      	nop			; (mov r8, r8)
 800779c:	080092cf 	.word	0x080092cf
 80077a0:	0000030a 	.word	0x0000030a
 80077a4:	080092e0 	.word	0x080092e0
 80077a8:	fffffbcd 	.word	0xfffffbcd
 80077ac:	fffffbce 	.word	0xfffffbce
 80077b0:	3fffffff 	.word	0x3fffffff

080077b4 <_calloc_r>:
 80077b4:	b570      	push	{r4, r5, r6, lr}
 80077b6:	0c13      	lsrs	r3, r2, #16
 80077b8:	0c0d      	lsrs	r5, r1, #16
 80077ba:	d11e      	bne.n	80077fa <_calloc_r+0x46>
 80077bc:	2b00      	cmp	r3, #0
 80077be:	d10c      	bne.n	80077da <_calloc_r+0x26>
 80077c0:	b289      	uxth	r1, r1
 80077c2:	b294      	uxth	r4, r2
 80077c4:	434c      	muls	r4, r1
 80077c6:	0021      	movs	r1, r4
 80077c8:	f000 f88c 	bl	80078e4 <_malloc_r>
 80077cc:	1e05      	subs	r5, r0, #0
 80077ce:	d01b      	beq.n	8007808 <_calloc_r+0x54>
 80077d0:	0022      	movs	r2, r4
 80077d2:	2100      	movs	r1, #0
 80077d4:	f7fe f8f4 	bl	80059c0 <memset>
 80077d8:	e016      	b.n	8007808 <_calloc_r+0x54>
 80077da:	1c1d      	adds	r5, r3, #0
 80077dc:	1c0b      	adds	r3, r1, #0
 80077de:	b292      	uxth	r2, r2
 80077e0:	b289      	uxth	r1, r1
 80077e2:	b29c      	uxth	r4, r3
 80077e4:	4351      	muls	r1, r2
 80077e6:	b2ab      	uxth	r3, r5
 80077e8:	4363      	muls	r3, r4
 80077ea:	0c0c      	lsrs	r4, r1, #16
 80077ec:	191c      	adds	r4, r3, r4
 80077ee:	0c22      	lsrs	r2, r4, #16
 80077f0:	d107      	bne.n	8007802 <_calloc_r+0x4e>
 80077f2:	0424      	lsls	r4, r4, #16
 80077f4:	b289      	uxth	r1, r1
 80077f6:	430c      	orrs	r4, r1
 80077f8:	e7e5      	b.n	80077c6 <_calloc_r+0x12>
 80077fa:	2b00      	cmp	r3, #0
 80077fc:	d101      	bne.n	8007802 <_calloc_r+0x4e>
 80077fe:	1c13      	adds	r3, r2, #0
 8007800:	e7ed      	b.n	80077de <_calloc_r+0x2a>
 8007802:	230c      	movs	r3, #12
 8007804:	2500      	movs	r5, #0
 8007806:	6003      	str	r3, [r0, #0]
 8007808:	0028      	movs	r0, r5
 800780a:	bd70      	pop	{r4, r5, r6, pc}

0800780c <_free_r>:
 800780c:	b570      	push	{r4, r5, r6, lr}
 800780e:	0005      	movs	r5, r0
 8007810:	2900      	cmp	r1, #0
 8007812:	d010      	beq.n	8007836 <_free_r+0x2a>
 8007814:	1f0c      	subs	r4, r1, #4
 8007816:	6823      	ldr	r3, [r4, #0]
 8007818:	2b00      	cmp	r3, #0
 800781a:	da00      	bge.n	800781e <_free_r+0x12>
 800781c:	18e4      	adds	r4, r4, r3
 800781e:	0028      	movs	r0, r5
 8007820:	f000 fa9e 	bl	8007d60 <__malloc_lock>
 8007824:	4a1d      	ldr	r2, [pc, #116]	; (800789c <_free_r+0x90>)
 8007826:	6813      	ldr	r3, [r2, #0]
 8007828:	2b00      	cmp	r3, #0
 800782a:	d105      	bne.n	8007838 <_free_r+0x2c>
 800782c:	6063      	str	r3, [r4, #4]
 800782e:	6014      	str	r4, [r2, #0]
 8007830:	0028      	movs	r0, r5
 8007832:	f000 fa9d 	bl	8007d70 <__malloc_unlock>
 8007836:	bd70      	pop	{r4, r5, r6, pc}
 8007838:	42a3      	cmp	r3, r4
 800783a:	d908      	bls.n	800784e <_free_r+0x42>
 800783c:	6821      	ldr	r1, [r4, #0]
 800783e:	1860      	adds	r0, r4, r1
 8007840:	4283      	cmp	r3, r0
 8007842:	d1f3      	bne.n	800782c <_free_r+0x20>
 8007844:	6818      	ldr	r0, [r3, #0]
 8007846:	685b      	ldr	r3, [r3, #4]
 8007848:	1841      	adds	r1, r0, r1
 800784a:	6021      	str	r1, [r4, #0]
 800784c:	e7ee      	b.n	800782c <_free_r+0x20>
 800784e:	001a      	movs	r2, r3
 8007850:	685b      	ldr	r3, [r3, #4]
 8007852:	2b00      	cmp	r3, #0
 8007854:	d001      	beq.n	800785a <_free_r+0x4e>
 8007856:	42a3      	cmp	r3, r4
 8007858:	d9f9      	bls.n	800784e <_free_r+0x42>
 800785a:	6811      	ldr	r1, [r2, #0]
 800785c:	1850      	adds	r0, r2, r1
 800785e:	42a0      	cmp	r0, r4
 8007860:	d10b      	bne.n	800787a <_free_r+0x6e>
 8007862:	6820      	ldr	r0, [r4, #0]
 8007864:	1809      	adds	r1, r1, r0
 8007866:	1850      	adds	r0, r2, r1
 8007868:	6011      	str	r1, [r2, #0]
 800786a:	4283      	cmp	r3, r0
 800786c:	d1e0      	bne.n	8007830 <_free_r+0x24>
 800786e:	6818      	ldr	r0, [r3, #0]
 8007870:	685b      	ldr	r3, [r3, #4]
 8007872:	1841      	adds	r1, r0, r1
 8007874:	6011      	str	r1, [r2, #0]
 8007876:	6053      	str	r3, [r2, #4]
 8007878:	e7da      	b.n	8007830 <_free_r+0x24>
 800787a:	42a0      	cmp	r0, r4
 800787c:	d902      	bls.n	8007884 <_free_r+0x78>
 800787e:	230c      	movs	r3, #12
 8007880:	602b      	str	r3, [r5, #0]
 8007882:	e7d5      	b.n	8007830 <_free_r+0x24>
 8007884:	6821      	ldr	r1, [r4, #0]
 8007886:	1860      	adds	r0, r4, r1
 8007888:	4283      	cmp	r3, r0
 800788a:	d103      	bne.n	8007894 <_free_r+0x88>
 800788c:	6818      	ldr	r0, [r3, #0]
 800788e:	685b      	ldr	r3, [r3, #4]
 8007890:	1841      	adds	r1, r0, r1
 8007892:	6021      	str	r1, [r4, #0]
 8007894:	6063      	str	r3, [r4, #4]
 8007896:	6054      	str	r4, [r2, #4]
 8007898:	e7ca      	b.n	8007830 <_free_r+0x24>
 800789a:	46c0      	nop			; (mov r8, r8)
 800789c:	200002a0 	.word	0x200002a0

080078a0 <sbrk_aligned>:
 80078a0:	b570      	push	{r4, r5, r6, lr}
 80078a2:	4e0f      	ldr	r6, [pc, #60]	; (80078e0 <sbrk_aligned+0x40>)
 80078a4:	000d      	movs	r5, r1
 80078a6:	6831      	ldr	r1, [r6, #0]
 80078a8:	0004      	movs	r4, r0
 80078aa:	2900      	cmp	r1, #0
 80078ac:	d102      	bne.n	80078b4 <sbrk_aligned+0x14>
 80078ae:	f000 f9f1 	bl	8007c94 <_sbrk_r>
 80078b2:	6030      	str	r0, [r6, #0]
 80078b4:	0029      	movs	r1, r5
 80078b6:	0020      	movs	r0, r4
 80078b8:	f000 f9ec 	bl	8007c94 <_sbrk_r>
 80078bc:	1c43      	adds	r3, r0, #1
 80078be:	d00a      	beq.n	80078d6 <sbrk_aligned+0x36>
 80078c0:	2303      	movs	r3, #3
 80078c2:	1cc5      	adds	r5, r0, #3
 80078c4:	439d      	bics	r5, r3
 80078c6:	42a8      	cmp	r0, r5
 80078c8:	d007      	beq.n	80078da <sbrk_aligned+0x3a>
 80078ca:	1a29      	subs	r1, r5, r0
 80078cc:	0020      	movs	r0, r4
 80078ce:	f000 f9e1 	bl	8007c94 <_sbrk_r>
 80078d2:	1c43      	adds	r3, r0, #1
 80078d4:	d101      	bne.n	80078da <sbrk_aligned+0x3a>
 80078d6:	2501      	movs	r5, #1
 80078d8:	426d      	negs	r5, r5
 80078da:	0028      	movs	r0, r5
 80078dc:	bd70      	pop	{r4, r5, r6, pc}
 80078de:	46c0      	nop			; (mov r8, r8)
 80078e0:	200002a4 	.word	0x200002a4

080078e4 <_malloc_r>:
 80078e4:	b5f7      	push	{r0, r1, r2, r4, r5, r6, r7, lr}
 80078e6:	2203      	movs	r2, #3
 80078e8:	1ccb      	adds	r3, r1, #3
 80078ea:	4393      	bics	r3, r2
 80078ec:	3308      	adds	r3, #8
 80078ee:	0006      	movs	r6, r0
 80078f0:	001f      	movs	r7, r3
 80078f2:	2b0c      	cmp	r3, #12
 80078f4:	d232      	bcs.n	800795c <_malloc_r+0x78>
 80078f6:	270c      	movs	r7, #12
 80078f8:	42b9      	cmp	r1, r7
 80078fa:	d831      	bhi.n	8007960 <_malloc_r+0x7c>
 80078fc:	0030      	movs	r0, r6
 80078fe:	f000 fa2f 	bl	8007d60 <__malloc_lock>
 8007902:	4d32      	ldr	r5, [pc, #200]	; (80079cc <_malloc_r+0xe8>)
 8007904:	682b      	ldr	r3, [r5, #0]
 8007906:	001c      	movs	r4, r3
 8007908:	2c00      	cmp	r4, #0
 800790a:	d12e      	bne.n	800796a <_malloc_r+0x86>
 800790c:	0039      	movs	r1, r7
 800790e:	0030      	movs	r0, r6
 8007910:	f7ff ffc6 	bl	80078a0 <sbrk_aligned>
 8007914:	0004      	movs	r4, r0
 8007916:	1c43      	adds	r3, r0, #1
 8007918:	d11e      	bne.n	8007958 <_malloc_r+0x74>
 800791a:	682c      	ldr	r4, [r5, #0]
 800791c:	0025      	movs	r5, r4
 800791e:	2d00      	cmp	r5, #0
 8007920:	d14a      	bne.n	80079b8 <_malloc_r+0xd4>
 8007922:	6823      	ldr	r3, [r4, #0]
 8007924:	0029      	movs	r1, r5
 8007926:	18e3      	adds	r3, r4, r3
 8007928:	0030      	movs	r0, r6
 800792a:	9301      	str	r3, [sp, #4]
 800792c:	f000 f9b2 	bl	8007c94 <_sbrk_r>
 8007930:	9b01      	ldr	r3, [sp, #4]
 8007932:	4283      	cmp	r3, r0
 8007934:	d143      	bne.n	80079be <_malloc_r+0xda>
 8007936:	6823      	ldr	r3, [r4, #0]
 8007938:	3703      	adds	r7, #3
 800793a:	1aff      	subs	r7, r7, r3
 800793c:	2303      	movs	r3, #3
 800793e:	439f      	bics	r7, r3
 8007940:	3708      	adds	r7, #8
 8007942:	2f0c      	cmp	r7, #12
 8007944:	d200      	bcs.n	8007948 <_malloc_r+0x64>
 8007946:	270c      	movs	r7, #12
 8007948:	0039      	movs	r1, r7
 800794a:	0030      	movs	r0, r6
 800794c:	f7ff ffa8 	bl	80078a0 <sbrk_aligned>
 8007950:	1c43      	adds	r3, r0, #1
 8007952:	d034      	beq.n	80079be <_malloc_r+0xda>
 8007954:	6823      	ldr	r3, [r4, #0]
 8007956:	19df      	adds	r7, r3, r7
 8007958:	6027      	str	r7, [r4, #0]
 800795a:	e013      	b.n	8007984 <_malloc_r+0xa0>
 800795c:	2b00      	cmp	r3, #0
 800795e:	dacb      	bge.n	80078f8 <_malloc_r+0x14>
 8007960:	230c      	movs	r3, #12
 8007962:	2500      	movs	r5, #0
 8007964:	6033      	str	r3, [r6, #0]
 8007966:	0028      	movs	r0, r5
 8007968:	bdfe      	pop	{r1, r2, r3, r4, r5, r6, r7, pc}
 800796a:	6822      	ldr	r2, [r4, #0]
 800796c:	1bd1      	subs	r1, r2, r7
 800796e:	d420      	bmi.n	80079b2 <_malloc_r+0xce>
 8007970:	290b      	cmp	r1, #11
 8007972:	d917      	bls.n	80079a4 <_malloc_r+0xc0>
 8007974:	19e2      	adds	r2, r4, r7
 8007976:	6027      	str	r7, [r4, #0]
 8007978:	42a3      	cmp	r3, r4
 800797a:	d111      	bne.n	80079a0 <_malloc_r+0xbc>
 800797c:	602a      	str	r2, [r5, #0]
 800797e:	6863      	ldr	r3, [r4, #4]
 8007980:	6011      	str	r1, [r2, #0]
 8007982:	6053      	str	r3, [r2, #4]
 8007984:	0030      	movs	r0, r6
 8007986:	0025      	movs	r5, r4
 8007988:	f000 f9f2 	bl	8007d70 <__malloc_unlock>
 800798c:	2207      	movs	r2, #7
 800798e:	350b      	adds	r5, #11
 8007990:	1d23      	adds	r3, r4, #4
 8007992:	4395      	bics	r5, r2
 8007994:	1aea      	subs	r2, r5, r3
 8007996:	429d      	cmp	r5, r3
 8007998:	d0e5      	beq.n	8007966 <_malloc_r+0x82>
 800799a:	1b5b      	subs	r3, r3, r5
 800799c:	50a3      	str	r3, [r4, r2]
 800799e:	e7e2      	b.n	8007966 <_malloc_r+0x82>
 80079a0:	605a      	str	r2, [r3, #4]
 80079a2:	e7ec      	b.n	800797e <_malloc_r+0x9a>
 80079a4:	6862      	ldr	r2, [r4, #4]
 80079a6:	42a3      	cmp	r3, r4
 80079a8:	d101      	bne.n	80079ae <_malloc_r+0xca>
 80079aa:	602a      	str	r2, [r5, #0]
 80079ac:	e7ea      	b.n	8007984 <_malloc_r+0xa0>
 80079ae:	605a      	str	r2, [r3, #4]
 80079b0:	e7e8      	b.n	8007984 <_malloc_r+0xa0>
 80079b2:	0023      	movs	r3, r4
 80079b4:	6864      	ldr	r4, [r4, #4]
 80079b6:	e7a7      	b.n	8007908 <_malloc_r+0x24>
 80079b8:	002c      	movs	r4, r5
 80079ba:	686d      	ldr	r5, [r5, #4]
 80079bc:	e7af      	b.n	800791e <_malloc_r+0x3a>
 80079be:	230c      	movs	r3, #12
 80079c0:	0030      	movs	r0, r6
 80079c2:	6033      	str	r3, [r6, #0]
 80079c4:	f000 f9d4 	bl	8007d70 <__malloc_unlock>
 80079c8:	e7cd      	b.n	8007966 <_malloc_r+0x82>
 80079ca:	46c0      	nop			; (mov r8, r8)
 80079cc:	200002a0 	.word	0x200002a0

080079d0 <__ssputs_r>:
 80079d0:	b5f0      	push	{r4, r5, r6, r7, lr}
 80079d2:	688e      	ldr	r6, [r1, #8]
 80079d4:	b085      	sub	sp, #20
 80079d6:	0007      	movs	r7, r0
 80079d8:	000c      	movs	r4, r1
 80079da:	9203      	str	r2, [sp, #12]
 80079dc:	9301      	str	r3, [sp, #4]
 80079de:	429e      	cmp	r6, r3
 80079e0:	d83c      	bhi.n	8007a5c <__ssputs_r+0x8c>
 80079e2:	2390      	movs	r3, #144	; 0x90
 80079e4:	898a      	ldrh	r2, [r1, #12]
 80079e6:	00db      	lsls	r3, r3, #3
 80079e8:	421a      	tst	r2, r3
 80079ea:	d034      	beq.n	8007a56 <__ssputs_r+0x86>
 80079ec:	6909      	ldr	r1, [r1, #16]
 80079ee:	6823      	ldr	r3, [r4, #0]
 80079f0:	6960      	ldr	r0, [r4, #20]
 80079f2:	1a5b      	subs	r3, r3, r1
 80079f4:	9302      	str	r3, [sp, #8]
 80079f6:	2303      	movs	r3, #3
 80079f8:	4343      	muls	r3, r0
 80079fa:	0fdd      	lsrs	r5, r3, #31
 80079fc:	18ed      	adds	r5, r5, r3
 80079fe:	9b01      	ldr	r3, [sp, #4]
 8007a00:	9802      	ldr	r0, [sp, #8]
 8007a02:	3301      	adds	r3, #1
 8007a04:	181b      	adds	r3, r3, r0
 8007a06:	106d      	asrs	r5, r5, #1
 8007a08:	42ab      	cmp	r3, r5
 8007a0a:	d900      	bls.n	8007a0e <__ssputs_r+0x3e>
 8007a0c:	001d      	movs	r5, r3
 8007a0e:	0553      	lsls	r3, r2, #21
 8007a10:	d532      	bpl.n	8007a78 <__ssputs_r+0xa8>
 8007a12:	0029      	movs	r1, r5
 8007a14:	0038      	movs	r0, r7
 8007a16:	f7ff ff65 	bl	80078e4 <_malloc_r>
 8007a1a:	1e06      	subs	r6, r0, #0
 8007a1c:	d109      	bne.n	8007a32 <__ssputs_r+0x62>
 8007a1e:	230c      	movs	r3, #12
 8007a20:	603b      	str	r3, [r7, #0]
 8007a22:	2340      	movs	r3, #64	; 0x40
 8007a24:	2001      	movs	r0, #1
 8007a26:	89a2      	ldrh	r2, [r4, #12]
 8007a28:	4240      	negs	r0, r0
 8007a2a:	4313      	orrs	r3, r2
 8007a2c:	81a3      	strh	r3, [r4, #12]
 8007a2e:	b005      	add	sp, #20
 8007a30:	bdf0      	pop	{r4, r5, r6, r7, pc}
 8007a32:	9a02      	ldr	r2, [sp, #8]
 8007a34:	6921      	ldr	r1, [r4, #16]
 8007a36:	f7ff fb18 	bl	800706a <memcpy>
 8007a3a:	89a3      	ldrh	r3, [r4, #12]
 8007a3c:	4a14      	ldr	r2, [pc, #80]	; (8007a90 <__ssputs_r+0xc0>)
 8007a3e:	401a      	ands	r2, r3
 8007a40:	2380      	movs	r3, #128	; 0x80
 8007a42:	4313      	orrs	r3, r2
 8007a44:	81a3      	strh	r3, [r4, #12]
 8007a46:	9b02      	ldr	r3, [sp, #8]
 8007a48:	6126      	str	r6, [r4, #16]
 8007a4a:	18f6      	adds	r6, r6, r3
 8007a4c:	6026      	str	r6, [r4, #0]
 8007a4e:	6165      	str	r5, [r4, #20]
 8007a50:	9e01      	ldr	r6, [sp, #4]
 8007a52:	1aed      	subs	r5, r5, r3
 8007a54:	60a5      	str	r5, [r4, #8]
 8007a56:	9b01      	ldr	r3, [sp, #4]
 8007a58:	429e      	cmp	r6, r3
 8007a5a:	d900      	bls.n	8007a5e <__ssputs_r+0x8e>
 8007a5c:	9e01      	ldr	r6, [sp, #4]
 8007a5e:	0032      	movs	r2, r6
 8007a60:	9903      	ldr	r1, [sp, #12]
 8007a62:	6820      	ldr	r0, [r4, #0]
 8007a64:	f000 f968 	bl	8007d38 <memmove>
 8007a68:	68a3      	ldr	r3, [r4, #8]
 8007a6a:	2000      	movs	r0, #0
 8007a6c:	1b9b      	subs	r3, r3, r6
 8007a6e:	60a3      	str	r3, [r4, #8]
 8007a70:	6823      	ldr	r3, [r4, #0]
 8007a72:	199e      	adds	r6, r3, r6
 8007a74:	6026      	str	r6, [r4, #0]
 8007a76:	e7da      	b.n	8007a2e <__ssputs_r+0x5e>
 8007a78:	002a      	movs	r2, r5
 8007a7a:	0038      	movs	r0, r7
 8007a7c:	f000 f980 	bl	8007d80 <_realloc_r>
 8007a80:	1e06      	subs	r6, r0, #0
 8007a82:	d1e0      	bne.n	8007a46 <__ssputs_r+0x76>
 8007a84:	0038      	movs	r0, r7
 8007a86:	6921      	ldr	r1, [r4, #16]
 8007a88:	f7ff fec0 	bl	800780c <_free_r>
 8007a8c:	e7c7      	b.n	8007a1e <__ssputs_r+0x4e>
 8007a8e:	46c0      	nop			; (mov r8, r8)
 8007a90:	fffffb7f 	.word	0xfffffb7f

08007a94 <_svfiprintf_r>:
 8007a94:	b5f0      	push	{r4, r5, r6, r7, lr}
 8007a96:	b0a1      	sub	sp, #132	; 0x84
 8007a98:	9003      	str	r0, [sp, #12]
 8007a9a:	001d      	movs	r5, r3
 8007a9c:	898b      	ldrh	r3, [r1, #12]
 8007a9e:	000f      	movs	r7, r1
 8007aa0:	0016      	movs	r6, r2
 8007aa2:	061b      	lsls	r3, r3, #24
 8007aa4:	d511      	bpl.n	8007aca <_svfiprintf_r+0x36>
 8007aa6:	690b      	ldr	r3, [r1, #16]
 8007aa8:	2b00      	cmp	r3, #0
 8007aaa:	d10e      	bne.n	8007aca <_svfiprintf_r+0x36>
 8007aac:	2140      	movs	r1, #64	; 0x40
 8007aae:	f7ff ff19 	bl	80078e4 <_malloc_r>
 8007ab2:	6038      	str	r0, [r7, #0]
 8007ab4:	6138      	str	r0, [r7, #16]
 8007ab6:	2800      	cmp	r0, #0
 8007ab8:	d105      	bne.n	8007ac6 <_svfiprintf_r+0x32>
 8007aba:	230c      	movs	r3, #12
 8007abc:	9a03      	ldr	r2, [sp, #12]
 8007abe:	3801      	subs	r0, #1
 8007ac0:	6013      	str	r3, [r2, #0]
 8007ac2:	b021      	add	sp, #132	; 0x84
 8007ac4:	bdf0      	pop	{r4, r5, r6, r7, pc}
 8007ac6:	2340      	movs	r3, #64	; 0x40
 8007ac8:	617b      	str	r3, [r7, #20]
 8007aca:	2300      	movs	r3, #0
 8007acc:	ac08      	add	r4, sp, #32
 8007ace:	6163      	str	r3, [r4, #20]
 8007ad0:	3320      	adds	r3, #32
 8007ad2:	7663      	strb	r3, [r4, #25]
 8007ad4:	3310      	adds	r3, #16
 8007ad6:	76a3      	strb	r3, [r4, #26]
 8007ad8:	9507      	str	r5, [sp, #28]
 8007ada:	0035      	movs	r5, r6
 8007adc:	782b      	ldrb	r3, [r5, #0]
 8007ade:	2b00      	cmp	r3, #0
 8007ae0:	d001      	beq.n	8007ae6 <_svfiprintf_r+0x52>
 8007ae2:	2b25      	cmp	r3, #37	; 0x25
 8007ae4:	d147      	bne.n	8007b76 <_svfiprintf_r+0xe2>
 8007ae6:	1bab      	subs	r3, r5, r6
 8007ae8:	9305      	str	r3, [sp, #20]
 8007aea:	42b5      	cmp	r5, r6
 8007aec:	d00c      	beq.n	8007b08 <_svfiprintf_r+0x74>
 8007aee:	0032      	movs	r2, r6
 8007af0:	0039      	movs	r1, r7
 8007af2:	9803      	ldr	r0, [sp, #12]
 8007af4:	f7ff ff6c 	bl	80079d0 <__ssputs_r>
 8007af8:	1c43      	adds	r3, r0, #1
 8007afa:	d100      	bne.n	8007afe <_svfiprintf_r+0x6a>
 8007afc:	e0ae      	b.n	8007c5c <_svfiprintf_r+0x1c8>
 8007afe:	6962      	ldr	r2, [r4, #20]
 8007b00:	9b05      	ldr	r3, [sp, #20]
 8007b02:	4694      	mov	ip, r2
 8007b04:	4463      	add	r3, ip
 8007b06:	6163      	str	r3, [r4, #20]
 8007b08:	782b      	ldrb	r3, [r5, #0]
 8007b0a:	2b00      	cmp	r3, #0
 8007b0c:	d100      	bne.n	8007b10 <_svfiprintf_r+0x7c>
 8007b0e:	e0a5      	b.n	8007c5c <_svfiprintf_r+0x1c8>
 8007b10:	2201      	movs	r2, #1
 8007b12:	2300      	movs	r3, #0
 8007b14:	4252      	negs	r2, r2
 8007b16:	6062      	str	r2, [r4, #4]
 8007b18:	a904      	add	r1, sp, #16
 8007b1a:	3254      	adds	r2, #84	; 0x54
 8007b1c:	1852      	adds	r2, r2, r1
 8007b1e:	1c6e      	adds	r6, r5, #1
 8007b20:	6023      	str	r3, [r4, #0]
 8007b22:	60e3      	str	r3, [r4, #12]
 8007b24:	60a3      	str	r3, [r4, #8]
 8007b26:	7013      	strb	r3, [r2, #0]
 8007b28:	65a3      	str	r3, [r4, #88]	; 0x58
 8007b2a:	2205      	movs	r2, #5
 8007b2c:	7831      	ldrb	r1, [r6, #0]
 8007b2e:	4854      	ldr	r0, [pc, #336]	; (8007c80 <_svfiprintf_r+0x1ec>)
 8007b30:	f7ff fa90 	bl	8007054 <memchr>
 8007b34:	1c75      	adds	r5, r6, #1
 8007b36:	2800      	cmp	r0, #0
 8007b38:	d11f      	bne.n	8007b7a <_svfiprintf_r+0xe6>
 8007b3a:	6822      	ldr	r2, [r4, #0]
 8007b3c:	06d3      	lsls	r3, r2, #27
 8007b3e:	d504      	bpl.n	8007b4a <_svfiprintf_r+0xb6>
 8007b40:	2353      	movs	r3, #83	; 0x53
 8007b42:	a904      	add	r1, sp, #16
 8007b44:	185b      	adds	r3, r3, r1
 8007b46:	2120      	movs	r1, #32
 8007b48:	7019      	strb	r1, [r3, #0]
 8007b4a:	0713      	lsls	r3, r2, #28
 8007b4c:	d504      	bpl.n	8007b58 <_svfiprintf_r+0xc4>
 8007b4e:	2353      	movs	r3, #83	; 0x53
 8007b50:	a904      	add	r1, sp, #16
 8007b52:	185b      	adds	r3, r3, r1
 8007b54:	212b      	movs	r1, #43	; 0x2b
 8007b56:	7019      	strb	r1, [r3, #0]
 8007b58:	7833      	ldrb	r3, [r6, #0]
 8007b5a:	2b2a      	cmp	r3, #42	; 0x2a
 8007b5c:	d016      	beq.n	8007b8c <_svfiprintf_r+0xf8>
 8007b5e:	0035      	movs	r5, r6
 8007b60:	2100      	movs	r1, #0
 8007b62:	200a      	movs	r0, #10
 8007b64:	68e3      	ldr	r3, [r4, #12]
 8007b66:	782a      	ldrb	r2, [r5, #0]
 8007b68:	1c6e      	adds	r6, r5, #1
 8007b6a:	3a30      	subs	r2, #48	; 0x30
 8007b6c:	2a09      	cmp	r2, #9
 8007b6e:	d94e      	bls.n	8007c0e <_svfiprintf_r+0x17a>
 8007b70:	2900      	cmp	r1, #0
 8007b72:	d111      	bne.n	8007b98 <_svfiprintf_r+0x104>
 8007b74:	e017      	b.n	8007ba6 <_svfiprintf_r+0x112>
 8007b76:	3501      	adds	r5, #1
 8007b78:	e7b0      	b.n	8007adc <_svfiprintf_r+0x48>
 8007b7a:	4b41      	ldr	r3, [pc, #260]	; (8007c80 <_svfiprintf_r+0x1ec>)
 8007b7c:	6822      	ldr	r2, [r4, #0]
 8007b7e:	1ac0      	subs	r0, r0, r3
 8007b80:	2301      	movs	r3, #1
 8007b82:	4083      	lsls	r3, r0
 8007b84:	4313      	orrs	r3, r2
 8007b86:	002e      	movs	r6, r5
 8007b88:	6023      	str	r3, [r4, #0]
 8007b8a:	e7ce      	b.n	8007b2a <_svfiprintf_r+0x96>
 8007b8c:	9b07      	ldr	r3, [sp, #28]
 8007b8e:	1d19      	adds	r1, r3, #4
 8007b90:	681b      	ldr	r3, [r3, #0]
 8007b92:	9107      	str	r1, [sp, #28]
 8007b94:	2b00      	cmp	r3, #0
 8007b96:	db01      	blt.n	8007b9c <_svfiprintf_r+0x108>
 8007b98:	930b      	str	r3, [sp, #44]	; 0x2c
 8007b9a:	e004      	b.n	8007ba6 <_svfiprintf_r+0x112>
 8007b9c:	425b      	negs	r3, r3
 8007b9e:	60e3      	str	r3, [r4, #12]
 8007ba0:	2302      	movs	r3, #2
 8007ba2:	4313      	orrs	r3, r2
 8007ba4:	6023      	str	r3, [r4, #0]
 8007ba6:	782b      	ldrb	r3, [r5, #0]
 8007ba8:	2b2e      	cmp	r3, #46	; 0x2e
 8007baa:	d10a      	bne.n	8007bc2 <_svfiprintf_r+0x12e>
 8007bac:	786b      	ldrb	r3, [r5, #1]
 8007bae:	2b2a      	cmp	r3, #42	; 0x2a
 8007bb0:	d135      	bne.n	8007c1e <_svfiprintf_r+0x18a>
 8007bb2:	9b07      	ldr	r3, [sp, #28]
 8007bb4:	3502      	adds	r5, #2
 8007bb6:	1d1a      	adds	r2, r3, #4
 8007bb8:	681b      	ldr	r3, [r3, #0]
 8007bba:	9207      	str	r2, [sp, #28]
 8007bbc:	2b00      	cmp	r3, #0
 8007bbe:	db2b      	blt.n	8007c18 <_svfiprintf_r+0x184>
 8007bc0:	9309      	str	r3, [sp, #36]	; 0x24
 8007bc2:	4e30      	ldr	r6, [pc, #192]	; (8007c84 <_svfiprintf_r+0x1f0>)
 8007bc4:	2203      	movs	r2, #3
 8007bc6:	0030      	movs	r0, r6
 8007bc8:	7829      	ldrb	r1, [r5, #0]
 8007bca:	f7ff fa43 	bl	8007054 <memchr>
 8007bce:	2800      	cmp	r0, #0
 8007bd0:	d006      	beq.n	8007be0 <_svfiprintf_r+0x14c>
 8007bd2:	2340      	movs	r3, #64	; 0x40
 8007bd4:	1b80      	subs	r0, r0, r6
 8007bd6:	4083      	lsls	r3, r0
 8007bd8:	6822      	ldr	r2, [r4, #0]
 8007bda:	3501      	adds	r5, #1
 8007bdc:	4313      	orrs	r3, r2
 8007bde:	6023      	str	r3, [r4, #0]
 8007be0:	7829      	ldrb	r1, [r5, #0]
 8007be2:	2206      	movs	r2, #6
 8007be4:	4828      	ldr	r0, [pc, #160]	; (8007c88 <_svfiprintf_r+0x1f4>)
 8007be6:	1c6e      	adds	r6, r5, #1
 8007be8:	7621      	strb	r1, [r4, #24]
 8007bea:	f7ff fa33 	bl	8007054 <memchr>
 8007bee:	2800      	cmp	r0, #0
 8007bf0:	d03c      	beq.n	8007c6c <_svfiprintf_r+0x1d8>
 8007bf2:	4b26      	ldr	r3, [pc, #152]	; (8007c8c <_svfiprintf_r+0x1f8>)
 8007bf4:	2b00      	cmp	r3, #0
 8007bf6:	d125      	bne.n	8007c44 <_svfiprintf_r+0x1b0>
 8007bf8:	2207      	movs	r2, #7
 8007bfa:	9b07      	ldr	r3, [sp, #28]
 8007bfc:	3307      	adds	r3, #7
 8007bfe:	4393      	bics	r3, r2
 8007c00:	3308      	adds	r3, #8
 8007c02:	9307      	str	r3, [sp, #28]
 8007c04:	6963      	ldr	r3, [r4, #20]
 8007c06:	9a04      	ldr	r2, [sp, #16]
 8007c08:	189b      	adds	r3, r3, r2
 8007c0a:	6163      	str	r3, [r4, #20]
 8007c0c:	e765      	b.n	8007ada <_svfiprintf_r+0x46>
 8007c0e:	4343      	muls	r3, r0
 8007c10:	0035      	movs	r5, r6
 8007c12:	2101      	movs	r1, #1
 8007c14:	189b      	adds	r3, r3, r2
 8007c16:	e7a6      	b.n	8007b66 <_svfiprintf_r+0xd2>
 8007c18:	2301      	movs	r3, #1
 8007c1a:	425b      	negs	r3, r3
 8007c1c:	e7d0      	b.n	8007bc0 <_svfiprintf_r+0x12c>
 8007c1e:	2300      	movs	r3, #0
 8007c20:	200a      	movs	r0, #10
 8007c22:	001a      	movs	r2, r3
 8007c24:	3501      	adds	r5, #1
 8007c26:	6063      	str	r3, [r4, #4]
 8007c28:	7829      	ldrb	r1, [r5, #0]
 8007c2a:	1c6e      	adds	r6, r5, #1
 8007c2c:	3930      	subs	r1, #48	; 0x30
 8007c2e:	2909      	cmp	r1, #9
 8007c30:	d903      	bls.n	8007c3a <_svfiprintf_r+0x1a6>
 8007c32:	2b00      	cmp	r3, #0
 8007c34:	d0c5      	beq.n	8007bc2 <_svfiprintf_r+0x12e>
 8007c36:	9209      	str	r2, [sp, #36]	; 0x24
 8007c38:	e7c3      	b.n	8007bc2 <_svfiprintf_r+0x12e>
 8007c3a:	4342      	muls	r2, r0
 8007c3c:	0035      	movs	r5, r6
 8007c3e:	2301      	movs	r3, #1
 8007c40:	1852      	adds	r2, r2, r1
 8007c42:	e7f1      	b.n	8007c28 <_svfiprintf_r+0x194>
 8007c44:	ab07      	add	r3, sp, #28
 8007c46:	9300      	str	r3, [sp, #0]
 8007c48:	003a      	movs	r2, r7
 8007c4a:	0021      	movs	r1, r4
 8007c4c:	4b10      	ldr	r3, [pc, #64]	; (8007c90 <_svfiprintf_r+0x1fc>)
 8007c4e:	9803      	ldr	r0, [sp, #12]
 8007c50:	f7fd ff68 	bl	8005b24 <_printf_float>
 8007c54:	9004      	str	r0, [sp, #16]
 8007c56:	9b04      	ldr	r3, [sp, #16]
 8007c58:	3301      	adds	r3, #1
 8007c5a:	d1d3      	bne.n	8007c04 <_svfiprintf_r+0x170>
 8007c5c:	89bb      	ldrh	r3, [r7, #12]
 8007c5e:	980d      	ldr	r0, [sp, #52]	; 0x34
 8007c60:	065b      	lsls	r3, r3, #25
 8007c62:	d400      	bmi.n	8007c66 <_svfiprintf_r+0x1d2>
 8007c64:	e72d      	b.n	8007ac2 <_svfiprintf_r+0x2e>
 8007c66:	2001      	movs	r0, #1
 8007c68:	4240      	negs	r0, r0
 8007c6a:	e72a      	b.n	8007ac2 <_svfiprintf_r+0x2e>
 8007c6c:	ab07      	add	r3, sp, #28
 8007c6e:	9300      	str	r3, [sp, #0]
 8007c70:	003a      	movs	r2, r7
 8007c72:	0021      	movs	r1, r4
 8007c74:	4b06      	ldr	r3, [pc, #24]	; (8007c90 <_svfiprintf_r+0x1fc>)
 8007c76:	9803      	ldr	r0, [sp, #12]
 8007c78:	f7fe fa06 	bl	8006088 <_printf_i>
 8007c7c:	e7ea      	b.n	8007c54 <_svfiprintf_r+0x1c0>
 8007c7e:	46c0      	nop			; (mov r8, r8)
 8007c80:	0800943c 	.word	0x0800943c
 8007c84:	08009442 	.word	0x08009442
 8007c88:	08009446 	.word	0x08009446
 8007c8c:	08005b25 	.word	0x08005b25
 8007c90:	080079d1 	.word	0x080079d1

08007c94 <_sbrk_r>:
 8007c94:	2300      	movs	r3, #0
 8007c96:	b570      	push	{r4, r5, r6, lr}
 8007c98:	4d06      	ldr	r5, [pc, #24]	; (8007cb4 <_sbrk_r+0x20>)
 8007c9a:	0004      	movs	r4, r0
 8007c9c:	0008      	movs	r0, r1
 8007c9e:	602b      	str	r3, [r5, #0]
 8007ca0:	f7fc fe3a 	bl	8004918 <_sbrk>
 8007ca4:	1c43      	adds	r3, r0, #1
 8007ca6:	d103      	bne.n	8007cb0 <_sbrk_r+0x1c>
 8007ca8:	682b      	ldr	r3, [r5, #0]
 8007caa:	2b00      	cmp	r3, #0
 8007cac:	d000      	beq.n	8007cb0 <_sbrk_r+0x1c>
 8007cae:	6023      	str	r3, [r4, #0]
 8007cb0:	bd70      	pop	{r4, r5, r6, pc}
 8007cb2:	46c0      	nop			; (mov r8, r8)
 8007cb4:	200002a8 	.word	0x200002a8

08007cb8 <__assert_func>:
 8007cb8:	b530      	push	{r4, r5, lr}
 8007cba:	0014      	movs	r4, r2
 8007cbc:	001a      	movs	r2, r3
 8007cbe:	4b09      	ldr	r3, [pc, #36]	; (8007ce4 <__assert_func+0x2c>)
 8007cc0:	0005      	movs	r5, r0
 8007cc2:	681b      	ldr	r3, [r3, #0]
 8007cc4:	b085      	sub	sp, #20
 8007cc6:	68d8      	ldr	r0, [r3, #12]
 8007cc8:	4b07      	ldr	r3, [pc, #28]	; (8007ce8 <__assert_func+0x30>)
 8007cca:	2c00      	cmp	r4, #0
 8007ccc:	d101      	bne.n	8007cd2 <__assert_func+0x1a>
 8007cce:	4b07      	ldr	r3, [pc, #28]	; (8007cec <__assert_func+0x34>)
 8007cd0:	001c      	movs	r4, r3
 8007cd2:	9301      	str	r3, [sp, #4]
 8007cd4:	9100      	str	r1, [sp, #0]
 8007cd6:	002b      	movs	r3, r5
 8007cd8:	4905      	ldr	r1, [pc, #20]	; (8007cf0 <__assert_func+0x38>)
 8007cda:	9402      	str	r4, [sp, #8]
 8007cdc:	f000 f80a 	bl	8007cf4 <fiprintf>
 8007ce0:	f000 faba 	bl	8008258 <abort>
 8007ce4:	2000000c 	.word	0x2000000c
 8007ce8:	0800944d 	.word	0x0800944d
 8007cec:	08009488 	.word	0x08009488
 8007cf0:	0800945a 	.word	0x0800945a

08007cf4 <fiprintf>:
 8007cf4:	b40e      	push	{r1, r2, r3}
 8007cf6:	b503      	push	{r0, r1, lr}
 8007cf8:	0001      	movs	r1, r0
 8007cfa:	ab03      	add	r3, sp, #12
 8007cfc:	4804      	ldr	r0, [pc, #16]	; (8007d10 <fiprintf+0x1c>)
 8007cfe:	cb04      	ldmia	r3!, {r2}
 8007d00:	6800      	ldr	r0, [r0, #0]
 8007d02:	9301      	str	r3, [sp, #4]
 8007d04:	f000 f892 	bl	8007e2c <_vfiprintf_r>
 8007d08:	b002      	add	sp, #8
 8007d0a:	bc08      	pop	{r3}
 8007d0c:	b003      	add	sp, #12
 8007d0e:	4718      	bx	r3
 8007d10:	2000000c 	.word	0x2000000c

08007d14 <__ascii_mbtowc>:
 8007d14:	b082      	sub	sp, #8
 8007d16:	2900      	cmp	r1, #0
 8007d18:	d100      	bne.n	8007d1c <__ascii_mbtowc+0x8>
 8007d1a:	a901      	add	r1, sp, #4
 8007d1c:	1e10      	subs	r0, r2, #0
 8007d1e:	d006      	beq.n	8007d2e <__ascii_mbtowc+0x1a>
 8007d20:	2b00      	cmp	r3, #0
 8007d22:	d006      	beq.n	8007d32 <__ascii_mbtowc+0x1e>
 8007d24:	7813      	ldrb	r3, [r2, #0]
 8007d26:	600b      	str	r3, [r1, #0]
 8007d28:	7810      	ldrb	r0, [r2, #0]
 8007d2a:	1e43      	subs	r3, r0, #1
 8007d2c:	4198      	sbcs	r0, r3
 8007d2e:	b002      	add	sp, #8
 8007d30:	4770      	bx	lr
 8007d32:	2002      	movs	r0, #2
 8007d34:	4240      	negs	r0, r0
 8007d36:	e7fa      	b.n	8007d2e <__ascii_mbtowc+0x1a>

08007d38 <memmove>:
 8007d38:	b510      	push	{r4, lr}
 8007d3a:	4288      	cmp	r0, r1
 8007d3c:	d902      	bls.n	8007d44 <memmove+0xc>
 8007d3e:	188b      	adds	r3, r1, r2
 8007d40:	4298      	cmp	r0, r3
 8007d42:	d303      	bcc.n	8007d4c <memmove+0x14>
 8007d44:	2300      	movs	r3, #0
 8007d46:	e007      	b.n	8007d58 <memmove+0x20>
 8007d48:	5c8b      	ldrb	r3, [r1, r2]
 8007d4a:	5483      	strb	r3, [r0, r2]
 8007d4c:	3a01      	subs	r2, #1
 8007d4e:	d2fb      	bcs.n	8007d48 <memmove+0x10>
 8007d50:	bd10      	pop	{r4, pc}
 8007d52:	5ccc      	ldrb	r4, [r1, r3]
 8007d54:	54c4      	strb	r4, [r0, r3]
 8007d56:	3301      	adds	r3, #1
 8007d58:	429a      	cmp	r2, r3
 8007d5a:	d1fa      	bne.n	8007d52 <memmove+0x1a>
 8007d5c:	e7f8      	b.n	8007d50 <memmove+0x18>
	...

08007d60 <__malloc_lock>:
 8007d60:	b510      	push	{r4, lr}
 8007d62:	4802      	ldr	r0, [pc, #8]	; (8007d6c <__malloc_lock+0xc>)
 8007d64:	f000 fc4f 	bl	8008606 <__retarget_lock_acquire_recursive>
 8007d68:	bd10      	pop	{r4, pc}
 8007d6a:	46c0      	nop			; (mov r8, r8)
 8007d6c:	200002ac 	.word	0x200002ac

08007d70 <__malloc_unlock>:
 8007d70:	b510      	push	{r4, lr}
 8007d72:	4802      	ldr	r0, [pc, #8]	; (8007d7c <__malloc_unlock+0xc>)
 8007d74:	f000 fc48 	bl	8008608 <__retarget_lock_release_recursive>
 8007d78:	bd10      	pop	{r4, pc}
 8007d7a:	46c0      	nop			; (mov r8, r8)
 8007d7c:	200002ac 	.word	0x200002ac

08007d80 <_realloc_r>:
 8007d80:	b5f7      	push	{r0, r1, r2, r4, r5, r6, r7, lr}
 8007d82:	0007      	movs	r7, r0
 8007d84:	000e      	movs	r6, r1
 8007d86:	0014      	movs	r4, r2
 8007d88:	2900      	cmp	r1, #0
 8007d8a:	d105      	bne.n	8007d98 <_realloc_r+0x18>
 8007d8c:	0011      	movs	r1, r2
 8007d8e:	f7ff fda9 	bl	80078e4 <_malloc_r>
 8007d92:	0005      	movs	r5, r0
 8007d94:	0028      	movs	r0, r5
 8007d96:	bdfe      	pop	{r1, r2, r3, r4, r5, r6, r7, pc}
 8007d98:	2a00      	cmp	r2, #0
 8007d9a:	d103      	bne.n	8007da4 <_realloc_r+0x24>
 8007d9c:	f7ff fd36 	bl	800780c <_free_r>
 8007da0:	0025      	movs	r5, r4
 8007da2:	e7f7      	b.n	8007d94 <_realloc_r+0x14>
 8007da4:	f000 fc9e 	bl	80086e4 <_malloc_usable_size_r>
 8007da8:	9001      	str	r0, [sp, #4]
 8007daa:	4284      	cmp	r4, r0
 8007dac:	d803      	bhi.n	8007db6 <_realloc_r+0x36>
 8007dae:	0035      	movs	r5, r6
 8007db0:	0843      	lsrs	r3, r0, #1
 8007db2:	42a3      	cmp	r3, r4
 8007db4:	d3ee      	bcc.n	8007d94 <_realloc_r+0x14>
 8007db6:	0021      	movs	r1, r4
 8007db8:	0038      	movs	r0, r7
 8007dba:	f7ff fd93 	bl	80078e4 <_malloc_r>
 8007dbe:	1e05      	subs	r5, r0, #0
 8007dc0:	d0e8      	beq.n	8007d94 <_realloc_r+0x14>
 8007dc2:	9b01      	ldr	r3, [sp, #4]
 8007dc4:	0022      	movs	r2, r4
 8007dc6:	429c      	cmp	r4, r3
 8007dc8:	d900      	bls.n	8007dcc <_realloc_r+0x4c>
 8007dca:	001a      	movs	r2, r3
 8007dcc:	0031      	movs	r1, r6
 8007dce:	0028      	movs	r0, r5
 8007dd0:	f7ff f94b 	bl	800706a <memcpy>
 8007dd4:	0031      	movs	r1, r6
 8007dd6:	0038      	movs	r0, r7
 8007dd8:	f7ff fd18 	bl	800780c <_free_r>
 8007ddc:	e7da      	b.n	8007d94 <_realloc_r+0x14>

08007dde <__sfputc_r>:
 8007dde:	6893      	ldr	r3, [r2, #8]
 8007de0:	b510      	push	{r4, lr}
 8007de2:	3b01      	subs	r3, #1
 8007de4:	6093      	str	r3, [r2, #8]
 8007de6:	2b00      	cmp	r3, #0
 8007de8:	da04      	bge.n	8007df4 <__sfputc_r+0x16>
 8007dea:	6994      	ldr	r4, [r2, #24]
 8007dec:	42a3      	cmp	r3, r4
 8007dee:	db07      	blt.n	8007e00 <__sfputc_r+0x22>
 8007df0:	290a      	cmp	r1, #10
 8007df2:	d005      	beq.n	8007e00 <__sfputc_r+0x22>
 8007df4:	6813      	ldr	r3, [r2, #0]
 8007df6:	1c58      	adds	r0, r3, #1
 8007df8:	6010      	str	r0, [r2, #0]
 8007dfa:	7019      	strb	r1, [r3, #0]
 8007dfc:	0008      	movs	r0, r1
 8007dfe:	bd10      	pop	{r4, pc}
 8007e00:	f000 f94e 	bl	80080a0 <__swbuf_r>
 8007e04:	0001      	movs	r1, r0
 8007e06:	e7f9      	b.n	8007dfc <__sfputc_r+0x1e>

08007e08 <__sfputs_r>:
 8007e08:	b5f8      	push	{r3, r4, r5, r6, r7, lr}
 8007e0a:	0006      	movs	r6, r0
 8007e0c:	000f      	movs	r7, r1
 8007e0e:	0014      	movs	r4, r2
 8007e10:	18d5      	adds	r5, r2, r3
 8007e12:	42ac      	cmp	r4, r5
 8007e14:	d101      	bne.n	8007e1a <__sfputs_r+0x12>
 8007e16:	2000      	movs	r0, #0
 8007e18:	e007      	b.n	8007e2a <__sfputs_r+0x22>
 8007e1a:	7821      	ldrb	r1, [r4, #0]
 8007e1c:	003a      	movs	r2, r7
 8007e1e:	0030      	movs	r0, r6
 8007e20:	f7ff ffdd 	bl	8007dde <__sfputc_r>
 8007e24:	3401      	adds	r4, #1
 8007e26:	1c43      	adds	r3, r0, #1
 8007e28:	d1f3      	bne.n	8007e12 <__sfputs_r+0xa>
 8007e2a:	bdf8      	pop	{r3, r4, r5, r6, r7, pc}

08007e2c <_vfiprintf_r>:
 8007e2c:	b5f0      	push	{r4, r5, r6, r7, lr}
 8007e2e:	b0a1      	sub	sp, #132	; 0x84
 8007e30:	0006      	movs	r6, r0
 8007e32:	000c      	movs	r4, r1
 8007e34:	001f      	movs	r7, r3
 8007e36:	9203      	str	r2, [sp, #12]
 8007e38:	2800      	cmp	r0, #0
 8007e3a:	d004      	beq.n	8007e46 <_vfiprintf_r+0x1a>
 8007e3c:	6983      	ldr	r3, [r0, #24]
 8007e3e:	2b00      	cmp	r3, #0
 8007e40:	d101      	bne.n	8007e46 <_vfiprintf_r+0x1a>
 8007e42:	f000 fb3f 	bl	80084c4 <__sinit>
 8007e46:	4b8e      	ldr	r3, [pc, #568]	; (8008080 <_vfiprintf_r+0x254>)
 8007e48:	429c      	cmp	r4, r3
 8007e4a:	d11c      	bne.n	8007e86 <_vfiprintf_r+0x5a>
 8007e4c:	6874      	ldr	r4, [r6, #4]
 8007e4e:	6e63      	ldr	r3, [r4, #100]	; 0x64
 8007e50:	07db      	lsls	r3, r3, #31
 8007e52:	d405      	bmi.n	8007e60 <_vfiprintf_r+0x34>
 8007e54:	89a3      	ldrh	r3, [r4, #12]
 8007e56:	059b      	lsls	r3, r3, #22
 8007e58:	d402      	bmi.n	8007e60 <_vfiprintf_r+0x34>
 8007e5a:	6da0      	ldr	r0, [r4, #88]	; 0x58
 8007e5c:	f000 fbd3 	bl	8008606 <__retarget_lock_acquire_recursive>
 8007e60:	89a3      	ldrh	r3, [r4, #12]
 8007e62:	071b      	lsls	r3, r3, #28
 8007e64:	d502      	bpl.n	8007e6c <_vfiprintf_r+0x40>
 8007e66:	6923      	ldr	r3, [r4, #16]
 8007e68:	2b00      	cmp	r3, #0
 8007e6a:	d11d      	bne.n	8007ea8 <_vfiprintf_r+0x7c>
 8007e6c:	0021      	movs	r1, r4
 8007e6e:	0030      	movs	r0, r6
 8007e70:	f000 f97a 	bl	8008168 <__swsetup_r>
 8007e74:	2800      	cmp	r0, #0
 8007e76:	d017      	beq.n	8007ea8 <_vfiprintf_r+0x7c>
 8007e78:	6e63      	ldr	r3, [r4, #100]	; 0x64
 8007e7a:	07db      	lsls	r3, r3, #31
 8007e7c:	d50d      	bpl.n	8007e9a <_vfiprintf_r+0x6e>
 8007e7e:	2001      	movs	r0, #1
 8007e80:	4240      	negs	r0, r0
 8007e82:	b021      	add	sp, #132	; 0x84
 8007e84:	bdf0      	pop	{r4, r5, r6, r7, pc}
 8007e86:	4b7f      	ldr	r3, [pc, #508]	; (8008084 <_vfiprintf_r+0x258>)
 8007e88:	429c      	cmp	r4, r3
 8007e8a:	d101      	bne.n	8007e90 <_vfiprintf_r+0x64>
 8007e8c:	68b4      	ldr	r4, [r6, #8]
 8007e8e:	e7de      	b.n	8007e4e <_vfiprintf_r+0x22>
 8007e90:	4b7d      	ldr	r3, [pc, #500]	; (8008088 <_vfiprintf_r+0x25c>)
 8007e92:	429c      	cmp	r4, r3
 8007e94:	d1db      	bne.n	8007e4e <_vfiprintf_r+0x22>
 8007e96:	68f4      	ldr	r4, [r6, #12]
 8007e98:	e7d9      	b.n	8007e4e <_vfiprintf_r+0x22>
 8007e9a:	89a3      	ldrh	r3, [r4, #12]
 8007e9c:	059b      	lsls	r3, r3, #22
 8007e9e:	d4ee      	bmi.n	8007e7e <_vfiprintf_r+0x52>
 8007ea0:	6da0      	ldr	r0, [r4, #88]	; 0x58
 8007ea2:	f000 fbb1 	bl	8008608 <__retarget_lock_release_recursive>
 8007ea6:	e7ea      	b.n	8007e7e <_vfiprintf_r+0x52>
 8007ea8:	2300      	movs	r3, #0
 8007eaa:	ad08      	add	r5, sp, #32
 8007eac:	616b      	str	r3, [r5, #20]
 8007eae:	3320      	adds	r3, #32
 8007eb0:	766b      	strb	r3, [r5, #25]
 8007eb2:	3310      	adds	r3, #16
 8007eb4:	76ab      	strb	r3, [r5, #26]
 8007eb6:	9707      	str	r7, [sp, #28]
 8007eb8:	9f03      	ldr	r7, [sp, #12]
 8007eba:	783b      	ldrb	r3, [r7, #0]
 8007ebc:	2b00      	cmp	r3, #0
 8007ebe:	d001      	beq.n	8007ec4 <_vfiprintf_r+0x98>
 8007ec0:	2b25      	cmp	r3, #37	; 0x25
 8007ec2:	d14e      	bne.n	8007f62 <_vfiprintf_r+0x136>
 8007ec4:	9b03      	ldr	r3, [sp, #12]
 8007ec6:	1afb      	subs	r3, r7, r3
 8007ec8:	9305      	str	r3, [sp, #20]
 8007eca:	9b03      	ldr	r3, [sp, #12]
 8007ecc:	429f      	cmp	r7, r3
 8007ece:	d00d      	beq.n	8007eec <_vfiprintf_r+0xc0>
 8007ed0:	9b05      	ldr	r3, [sp, #20]
 8007ed2:	0021      	movs	r1, r4
 8007ed4:	0030      	movs	r0, r6
 8007ed6:	9a03      	ldr	r2, [sp, #12]
 8007ed8:	f7ff ff96 	bl	8007e08 <__sfputs_r>
 8007edc:	1c43      	adds	r3, r0, #1
 8007ede:	d100      	bne.n	8007ee2 <_vfiprintf_r+0xb6>
 8007ee0:	e0b5      	b.n	800804e <_vfiprintf_r+0x222>
 8007ee2:	696a      	ldr	r2, [r5, #20]
 8007ee4:	9b05      	ldr	r3, [sp, #20]
 8007ee6:	4694      	mov	ip, r2
 8007ee8:	4463      	add	r3, ip
 8007eea:	616b      	str	r3, [r5, #20]
 8007eec:	783b      	ldrb	r3, [r7, #0]
 8007eee:	2b00      	cmp	r3, #0
 8007ef0:	d100      	bne.n	8007ef4 <_vfiprintf_r+0xc8>
 8007ef2:	e0ac      	b.n	800804e <_vfiprintf_r+0x222>
 8007ef4:	2201      	movs	r2, #1
 8007ef6:	1c7b      	adds	r3, r7, #1
 8007ef8:	9303      	str	r3, [sp, #12]
 8007efa:	2300      	movs	r3, #0
 8007efc:	4252      	negs	r2, r2
 8007efe:	606a      	str	r2, [r5, #4]
 8007f00:	a904      	add	r1, sp, #16
 8007f02:	3254      	adds	r2, #84	; 0x54
 8007f04:	1852      	adds	r2, r2, r1
 8007f06:	602b      	str	r3, [r5, #0]
 8007f08:	60eb      	str	r3, [r5, #12]
 8007f0a:	60ab      	str	r3, [r5, #8]
 8007f0c:	7013      	strb	r3, [r2, #0]
 8007f0e:	65ab      	str	r3, [r5, #88]	; 0x58
 8007f10:	9b03      	ldr	r3, [sp, #12]
 8007f12:	2205      	movs	r2, #5
 8007f14:	7819      	ldrb	r1, [r3, #0]
 8007f16:	485d      	ldr	r0, [pc, #372]	; (800808c <_vfiprintf_r+0x260>)
 8007f18:	f7ff f89c 	bl	8007054 <memchr>
 8007f1c:	9b03      	ldr	r3, [sp, #12]
 8007f1e:	1c5f      	adds	r7, r3, #1
 8007f20:	2800      	cmp	r0, #0
 8007f22:	d120      	bne.n	8007f66 <_vfiprintf_r+0x13a>
 8007f24:	682a      	ldr	r2, [r5, #0]
 8007f26:	06d3      	lsls	r3, r2, #27
 8007f28:	d504      	bpl.n	8007f34 <_vfiprintf_r+0x108>
 8007f2a:	2353      	movs	r3, #83	; 0x53
 8007f2c:	a904      	add	r1, sp, #16
 8007f2e:	185b      	adds	r3, r3, r1
 8007f30:	2120      	movs	r1, #32
 8007f32:	7019      	strb	r1, [r3, #0]
 8007f34:	0713      	lsls	r3, r2, #28
 8007f36:	d504      	bpl.n	8007f42 <_vfiprintf_r+0x116>
 8007f38:	2353      	movs	r3, #83	; 0x53
 8007f3a:	a904      	add	r1, sp, #16
 8007f3c:	185b      	adds	r3, r3, r1
 8007f3e:	212b      	movs	r1, #43	; 0x2b
 8007f40:	7019      	strb	r1, [r3, #0]
 8007f42:	9b03      	ldr	r3, [sp, #12]
 8007f44:	781b      	ldrb	r3, [r3, #0]
 8007f46:	2b2a      	cmp	r3, #42	; 0x2a
 8007f48:	d016      	beq.n	8007f78 <_vfiprintf_r+0x14c>
 8007f4a:	2100      	movs	r1, #0
 8007f4c:	68eb      	ldr	r3, [r5, #12]
 8007f4e:	9f03      	ldr	r7, [sp, #12]
 8007f50:	783a      	ldrb	r2, [r7, #0]
 8007f52:	1c78      	adds	r0, r7, #1
 8007f54:	3a30      	subs	r2, #48	; 0x30
 8007f56:	4684      	mov	ip, r0
 8007f58:	2a09      	cmp	r2, #9
 8007f5a:	d94f      	bls.n	8007ffc <_vfiprintf_r+0x1d0>
 8007f5c:	2900      	cmp	r1, #0
 8007f5e:	d111      	bne.n	8007f84 <_vfiprintf_r+0x158>
 8007f60:	e017      	b.n	8007f92 <_vfiprintf_r+0x166>
 8007f62:	3701      	adds	r7, #1
 8007f64:	e7a9      	b.n	8007eba <_vfiprintf_r+0x8e>
 8007f66:	4b49      	ldr	r3, [pc, #292]	; (800808c <_vfiprintf_r+0x260>)
 8007f68:	682a      	ldr	r2, [r5, #0]
 8007f6a:	1ac0      	subs	r0, r0, r3
 8007f6c:	2301      	movs	r3, #1
 8007f6e:	4083      	lsls	r3, r0
 8007f70:	4313      	orrs	r3, r2
 8007f72:	602b      	str	r3, [r5, #0]
 8007f74:	9703      	str	r7, [sp, #12]
 8007f76:	e7cb      	b.n	8007f10 <_vfiprintf_r+0xe4>
 8007f78:	9b07      	ldr	r3, [sp, #28]
 8007f7a:	1d19      	adds	r1, r3, #4
 8007f7c:	681b      	ldr	r3, [r3, #0]
 8007f7e:	9107      	str	r1, [sp, #28]
 8007f80:	2b00      	cmp	r3, #0
 8007f82:	db01      	blt.n	8007f88 <_vfiprintf_r+0x15c>
 8007f84:	930b      	str	r3, [sp, #44]	; 0x2c
 8007f86:	e004      	b.n	8007f92 <_vfiprintf_r+0x166>
 8007f88:	425b      	negs	r3, r3
 8007f8a:	60eb      	str	r3, [r5, #12]
 8007f8c:	2302      	movs	r3, #2
 8007f8e:	4313      	orrs	r3, r2
 8007f90:	602b      	str	r3, [r5, #0]
 8007f92:	783b      	ldrb	r3, [r7, #0]
 8007f94:	2b2e      	cmp	r3, #46	; 0x2e
 8007f96:	d10a      	bne.n	8007fae <_vfiprintf_r+0x182>
 8007f98:	787b      	ldrb	r3, [r7, #1]
 8007f9a:	2b2a      	cmp	r3, #42	; 0x2a
 8007f9c:	d137      	bne.n	800800e <_vfiprintf_r+0x1e2>
 8007f9e:	9b07      	ldr	r3, [sp, #28]
 8007fa0:	3702      	adds	r7, #2
 8007fa2:	1d1a      	adds	r2, r3, #4
 8007fa4:	681b      	ldr	r3, [r3, #0]
 8007fa6:	9207      	str	r2, [sp, #28]
 8007fa8:	2b00      	cmp	r3, #0
 8007faa:	db2d      	blt.n	8008008 <_vfiprintf_r+0x1dc>
 8007fac:	9309      	str	r3, [sp, #36]	; 0x24
 8007fae:	2203      	movs	r2, #3
 8007fb0:	7839      	ldrb	r1, [r7, #0]
 8007fb2:	4837      	ldr	r0, [pc, #220]	; (8008090 <_vfiprintf_r+0x264>)
 8007fb4:	f7ff f84e 	bl	8007054 <memchr>
 8007fb8:	2800      	cmp	r0, #0
 8007fba:	d007      	beq.n	8007fcc <_vfiprintf_r+0x1a0>
 8007fbc:	4b34      	ldr	r3, [pc, #208]	; (8008090 <_vfiprintf_r+0x264>)
 8007fbe:	682a      	ldr	r2, [r5, #0]
 8007fc0:	1ac0      	subs	r0, r0, r3
 8007fc2:	2340      	movs	r3, #64	; 0x40
 8007fc4:	4083      	lsls	r3, r0
 8007fc6:	4313      	orrs	r3, r2
 8007fc8:	3701      	adds	r7, #1
 8007fca:	602b      	str	r3, [r5, #0]
 8007fcc:	7839      	ldrb	r1, [r7, #0]
 8007fce:	1c7b      	adds	r3, r7, #1
 8007fd0:	2206      	movs	r2, #6
 8007fd2:	4830      	ldr	r0, [pc, #192]	; (8008094 <_vfiprintf_r+0x268>)
 8007fd4:	9303      	str	r3, [sp, #12]
 8007fd6:	7629      	strb	r1, [r5, #24]
 8007fd8:	f7ff f83c 	bl	8007054 <memchr>
 8007fdc:	2800      	cmp	r0, #0
 8007fde:	d045      	beq.n	800806c <_vfiprintf_r+0x240>
 8007fe0:	4b2d      	ldr	r3, [pc, #180]	; (8008098 <_vfiprintf_r+0x26c>)
 8007fe2:	2b00      	cmp	r3, #0
 8007fe4:	d127      	bne.n	8008036 <_vfiprintf_r+0x20a>
 8007fe6:	2207      	movs	r2, #7
 8007fe8:	9b07      	ldr	r3, [sp, #28]
 8007fea:	3307      	adds	r3, #7
 8007fec:	4393      	bics	r3, r2
 8007fee:	3308      	adds	r3, #8
 8007ff0:	9307      	str	r3, [sp, #28]
 8007ff2:	696b      	ldr	r3, [r5, #20]
 8007ff4:	9a04      	ldr	r2, [sp, #16]
 8007ff6:	189b      	adds	r3, r3, r2
 8007ff8:	616b      	str	r3, [r5, #20]
 8007ffa:	e75d      	b.n	8007eb8 <_vfiprintf_r+0x8c>
 8007ffc:	210a      	movs	r1, #10
 8007ffe:	434b      	muls	r3, r1
 8008000:	4667      	mov	r7, ip
 8008002:	189b      	adds	r3, r3, r2
 8008004:	3909      	subs	r1, #9
 8008006:	e7a3      	b.n	8007f50 <_vfiprintf_r+0x124>
 8008008:	2301      	movs	r3, #1
 800800a:	425b      	negs	r3, r3
 800800c:	e7ce      	b.n	8007fac <_vfiprintf_r+0x180>
 800800e:	2300      	movs	r3, #0
 8008010:	001a      	movs	r2, r3
 8008012:	3701      	adds	r7, #1
 8008014:	606b      	str	r3, [r5, #4]
 8008016:	7839      	ldrb	r1, [r7, #0]
 8008018:	1c78      	adds	r0, r7, #1
 800801a:	3930      	subs	r1, #48	; 0x30
 800801c:	4684      	mov	ip, r0
 800801e:	2909      	cmp	r1, #9
 8008020:	d903      	bls.n	800802a <_vfiprintf_r+0x1fe>
 8008022:	2b00      	cmp	r3, #0
 8008024:	d0c3      	beq.n	8007fae <_vfiprintf_r+0x182>
 8008026:	9209      	str	r2, [sp, #36]	; 0x24
 8008028:	e7c1      	b.n	8007fae <_vfiprintf_r+0x182>
 800802a:	230a      	movs	r3, #10
 800802c:	435a      	muls	r2, r3
 800802e:	4667      	mov	r7, ip
 8008030:	1852      	adds	r2, r2, r1
 8008032:	3b09      	subs	r3, #9
 8008034:	e7ef      	b.n	8008016 <_vfiprintf_r+0x1ea>
 8008036:	ab07      	add	r3, sp, #28
 8008038:	9300      	str	r3, [sp, #0]
 800803a:	0022      	movs	r2, r4
 800803c:	0029      	movs	r1, r5
 800803e:	0030      	movs	r0, r6
 8008040:	4b16      	ldr	r3, [pc, #88]	; (800809c <_vfiprintf_r+0x270>)
 8008042:	f7fd fd6f 	bl	8005b24 <_printf_float>
 8008046:	9004      	str	r0, [sp, #16]
 8008048:	9b04      	ldr	r3, [sp, #16]
 800804a:	3301      	adds	r3, #1
 800804c:	d1d1      	bne.n	8007ff2 <_vfiprintf_r+0x1c6>
 800804e:	6e63      	ldr	r3, [r4, #100]	; 0x64
 8008050:	07db      	lsls	r3, r3, #31
 8008052:	d405      	bmi.n	8008060 <_vfiprintf_r+0x234>
 8008054:	89a3      	ldrh	r3, [r4, #12]
 8008056:	059b      	lsls	r3, r3, #22
 8008058:	d402      	bmi.n	8008060 <_vfiprintf_r+0x234>
 800805a:	6da0      	ldr	r0, [r4, #88]	; 0x58
 800805c:	f000 fad4 	bl	8008608 <__retarget_lock_release_recursive>
 8008060:	89a3      	ldrh	r3, [r4, #12]
 8008062:	065b      	lsls	r3, r3, #25
 8008064:	d500      	bpl.n	8008068 <_vfiprintf_r+0x23c>
 8008066:	e70a      	b.n	8007e7e <_vfiprintf_r+0x52>
 8008068:	980d      	ldr	r0, [sp, #52]	; 0x34
 800806a:	e70a      	b.n	8007e82 <_vfiprintf_r+0x56>
 800806c:	ab07      	add	r3, sp, #28
 800806e:	9300      	str	r3, [sp, #0]
 8008070:	0022      	movs	r2, r4
 8008072:	0029      	movs	r1, r5
 8008074:	0030      	movs	r0, r6
 8008076:	4b09      	ldr	r3, [pc, #36]	; (800809c <_vfiprintf_r+0x270>)
 8008078:	f7fe f806 	bl	8006088 <_printf_i>
 800807c:	e7e3      	b.n	8008046 <_vfiprintf_r+0x21a>
 800807e:	46c0      	nop			; (mov r8, r8)
 8008080:	080095b4 	.word	0x080095b4
 8008084:	080095d4 	.word	0x080095d4
 8008088:	08009594 	.word	0x08009594
 800808c:	0800943c 	.word	0x0800943c
 8008090:	08009442 	.word	0x08009442
 8008094:	08009446 	.word	0x08009446
 8008098:	08005b25 	.word	0x08005b25
 800809c:	08007e09 	.word	0x08007e09

080080a0 <__swbuf_r>:
 80080a0:	b5f8      	push	{r3, r4, r5, r6, r7, lr}
 80080a2:	0005      	movs	r5, r0
 80080a4:	000e      	movs	r6, r1
 80080a6:	0014      	movs	r4, r2
 80080a8:	2800      	cmp	r0, #0
 80080aa:	d004      	beq.n	80080b6 <__swbuf_r+0x16>
 80080ac:	6983      	ldr	r3, [r0, #24]
 80080ae:	2b00      	cmp	r3, #0
 80080b0:	d101      	bne.n	80080b6 <__swbuf_r+0x16>
 80080b2:	f000 fa07 	bl	80084c4 <__sinit>
 80080b6:	4b22      	ldr	r3, [pc, #136]	; (8008140 <__swbuf_r+0xa0>)
 80080b8:	429c      	cmp	r4, r3
 80080ba:	d12e      	bne.n	800811a <__swbuf_r+0x7a>
 80080bc:	686c      	ldr	r4, [r5, #4]
 80080be:	69a3      	ldr	r3, [r4, #24]
 80080c0:	60a3      	str	r3, [r4, #8]
 80080c2:	89a3      	ldrh	r3, [r4, #12]
 80080c4:	071b      	lsls	r3, r3, #28
 80080c6:	d532      	bpl.n	800812e <__swbuf_r+0x8e>
 80080c8:	6923      	ldr	r3, [r4, #16]
 80080ca:	2b00      	cmp	r3, #0
 80080cc:	d02f      	beq.n	800812e <__swbuf_r+0x8e>
 80080ce:	6823      	ldr	r3, [r4, #0]
 80080d0:	6922      	ldr	r2, [r4, #16]
 80080d2:	b2f7      	uxtb	r7, r6
 80080d4:	1a98      	subs	r0, r3, r2
 80080d6:	6963      	ldr	r3, [r4, #20]
 80080d8:	b2f6      	uxtb	r6, r6
 80080da:	4283      	cmp	r3, r0
 80080dc:	dc05      	bgt.n	80080ea <__swbuf_r+0x4a>
 80080de:	0021      	movs	r1, r4
 80080e0:	0028      	movs	r0, r5
 80080e2:	f000 f94d 	bl	8008380 <_fflush_r>
 80080e6:	2800      	cmp	r0, #0
 80080e8:	d127      	bne.n	800813a <__swbuf_r+0x9a>
 80080ea:	68a3      	ldr	r3, [r4, #8]
 80080ec:	3001      	adds	r0, #1
 80080ee:	3b01      	subs	r3, #1
 80080f0:	60a3      	str	r3, [r4, #8]
 80080f2:	6823      	ldr	r3, [r4, #0]
 80080f4:	1c5a      	adds	r2, r3, #1
 80080f6:	6022      	str	r2, [r4, #0]
 80080f8:	701f      	strb	r7, [r3, #0]
 80080fa:	6963      	ldr	r3, [r4, #20]
 80080fc:	4283      	cmp	r3, r0
 80080fe:	d004      	beq.n	800810a <__swbuf_r+0x6a>
 8008100:	89a3      	ldrh	r3, [r4, #12]
 8008102:	07db      	lsls	r3, r3, #31
 8008104:	d507      	bpl.n	8008116 <__swbuf_r+0x76>
 8008106:	2e0a      	cmp	r6, #10
 8008108:	d105      	bne.n	8008116 <__swbuf_r+0x76>
 800810a:	0021      	movs	r1, r4
 800810c:	0028      	movs	r0, r5
 800810e:	f000 f937 	bl	8008380 <_fflush_r>
 8008112:	2800      	cmp	r0, #0
 8008114:	d111      	bne.n	800813a <__swbuf_r+0x9a>
 8008116:	0030      	movs	r0, r6
 8008118:	bdf8      	pop	{r3, r4, r5, r6, r7, pc}
 800811a:	4b0a      	ldr	r3, [pc, #40]	; (8008144 <__swbuf_r+0xa4>)
 800811c:	429c      	cmp	r4, r3
 800811e:	d101      	bne.n	8008124 <__swbuf_r+0x84>
 8008120:	68ac      	ldr	r4, [r5, #8]
 8008122:	e7cc      	b.n	80080be <__swbuf_r+0x1e>
 8008124:	4b08      	ldr	r3, [pc, #32]	; (8008148 <__swbuf_r+0xa8>)
 8008126:	429c      	cmp	r4, r3
 8008128:	d1c9      	bne.n	80080be <__swbuf_r+0x1e>
 800812a:	68ec      	ldr	r4, [r5, #12]
 800812c:	e7c7      	b.n	80080be <__swbuf_r+0x1e>
 800812e:	0021      	movs	r1, r4
 8008130:	0028      	movs	r0, r5
 8008132:	f000 f819 	bl	8008168 <__swsetup_r>
 8008136:	2800      	cmp	r0, #0
 8008138:	d0c9      	beq.n	80080ce <__swbuf_r+0x2e>
 800813a:	2601      	movs	r6, #1
 800813c:	4276      	negs	r6, r6
 800813e:	e7ea      	b.n	8008116 <__swbuf_r+0x76>
 8008140:	080095b4 	.word	0x080095b4
 8008144:	080095d4 	.word	0x080095d4
 8008148:	08009594 	.word	0x08009594

0800814c <__ascii_wctomb>:
 800814c:	0003      	movs	r3, r0
 800814e:	1e08      	subs	r0, r1, #0
 8008150:	d005      	beq.n	800815e <__ascii_wctomb+0x12>
 8008152:	2aff      	cmp	r2, #255	; 0xff
 8008154:	d904      	bls.n	8008160 <__ascii_wctomb+0x14>
 8008156:	228a      	movs	r2, #138	; 0x8a
 8008158:	2001      	movs	r0, #1
 800815a:	601a      	str	r2, [r3, #0]
 800815c:	4240      	negs	r0, r0
 800815e:	4770      	bx	lr
 8008160:	2001      	movs	r0, #1
 8008162:	700a      	strb	r2, [r1, #0]
 8008164:	e7fb      	b.n	800815e <__ascii_wctomb+0x12>
	...

08008168 <__swsetup_r>:
 8008168:	4b37      	ldr	r3, [pc, #220]	; (8008248 <__swsetup_r+0xe0>)
 800816a:	b570      	push	{r4, r5, r6, lr}
 800816c:	681d      	ldr	r5, [r3, #0]
 800816e:	0006      	movs	r6, r0
 8008170:	000c      	movs	r4, r1
 8008172:	2d00      	cmp	r5, #0
 8008174:	d005      	beq.n	8008182 <__swsetup_r+0x1a>
 8008176:	69ab      	ldr	r3, [r5, #24]
 8008178:	2b00      	cmp	r3, #0
 800817a:	d102      	bne.n	8008182 <__swsetup_r+0x1a>
 800817c:	0028      	movs	r0, r5
 800817e:	f000 f9a1 	bl	80084c4 <__sinit>
 8008182:	4b32      	ldr	r3, [pc, #200]	; (800824c <__swsetup_r+0xe4>)
 8008184:	429c      	cmp	r4, r3
 8008186:	d10f      	bne.n	80081a8 <__swsetup_r+0x40>
 8008188:	686c      	ldr	r4, [r5, #4]
 800818a:	230c      	movs	r3, #12
 800818c:	5ee2      	ldrsh	r2, [r4, r3]
 800818e:	b293      	uxth	r3, r2
 8008190:	0711      	lsls	r1, r2, #28
 8008192:	d42d      	bmi.n	80081f0 <__swsetup_r+0x88>
 8008194:	06d9      	lsls	r1, r3, #27
 8008196:	d411      	bmi.n	80081bc <__swsetup_r+0x54>
 8008198:	2309      	movs	r3, #9
 800819a:	2001      	movs	r0, #1
 800819c:	6033      	str	r3, [r6, #0]
 800819e:	3337      	adds	r3, #55	; 0x37
 80081a0:	4313      	orrs	r3, r2
 80081a2:	81a3      	strh	r3, [r4, #12]
 80081a4:	4240      	negs	r0, r0
 80081a6:	bd70      	pop	{r4, r5, r6, pc}
 80081a8:	4b29      	ldr	r3, [pc, #164]	; (8008250 <__swsetup_r+0xe8>)
 80081aa:	429c      	cmp	r4, r3
 80081ac:	d101      	bne.n	80081b2 <__swsetup_r+0x4a>
 80081ae:	68ac      	ldr	r4, [r5, #8]
 80081b0:	e7eb      	b.n	800818a <__swsetup_r+0x22>
 80081b2:	4b28      	ldr	r3, [pc, #160]	; (8008254 <__swsetup_r+0xec>)
 80081b4:	429c      	cmp	r4, r3
 80081b6:	d1e8      	bne.n	800818a <__swsetup_r+0x22>
 80081b8:	68ec      	ldr	r4, [r5, #12]
 80081ba:	e7e6      	b.n	800818a <__swsetup_r+0x22>
 80081bc:	075b      	lsls	r3, r3, #29
 80081be:	d513      	bpl.n	80081e8 <__swsetup_r+0x80>
 80081c0:	6b61      	ldr	r1, [r4, #52]	; 0x34
 80081c2:	2900      	cmp	r1, #0
 80081c4:	d008      	beq.n	80081d8 <__swsetup_r+0x70>
 80081c6:	0023      	movs	r3, r4
 80081c8:	3344      	adds	r3, #68	; 0x44
 80081ca:	4299      	cmp	r1, r3
 80081cc:	d002      	beq.n	80081d4 <__swsetup_r+0x6c>
 80081ce:	0030      	movs	r0, r6
 80081d0:	f7ff fb1c 	bl	800780c <_free_r>
 80081d4:	2300      	movs	r3, #0
 80081d6:	6363      	str	r3, [r4, #52]	; 0x34
 80081d8:	2224      	movs	r2, #36	; 0x24
 80081da:	89a3      	ldrh	r3, [r4, #12]
 80081dc:	4393      	bics	r3, r2
 80081de:	81a3      	strh	r3, [r4, #12]
 80081e0:	2300      	movs	r3, #0
 80081e2:	6063      	str	r3, [r4, #4]
 80081e4:	6923      	ldr	r3, [r4, #16]
 80081e6:	6023      	str	r3, [r4, #0]
 80081e8:	2308      	movs	r3, #8
 80081ea:	89a2      	ldrh	r2, [r4, #12]
 80081ec:	4313      	orrs	r3, r2
 80081ee:	81a3      	strh	r3, [r4, #12]
 80081f0:	6923      	ldr	r3, [r4, #16]
 80081f2:	2b00      	cmp	r3, #0
 80081f4:	d10b      	bne.n	800820e <__swsetup_r+0xa6>
 80081f6:	21a0      	movs	r1, #160	; 0xa0
 80081f8:	2280      	movs	r2, #128	; 0x80
 80081fa:	89a3      	ldrh	r3, [r4, #12]
 80081fc:	0089      	lsls	r1, r1, #2
 80081fe:	0092      	lsls	r2, r2, #2
 8008200:	400b      	ands	r3, r1
 8008202:	4293      	cmp	r3, r2
 8008204:	d003      	beq.n	800820e <__swsetup_r+0xa6>
 8008206:	0021      	movs	r1, r4
 8008208:	0030      	movs	r0, r6
 800820a:	f000 fa27 	bl	800865c <__smakebuf_r>
 800820e:	220c      	movs	r2, #12
 8008210:	5ea3      	ldrsh	r3, [r4, r2]
 8008212:	2001      	movs	r0, #1
 8008214:	001a      	movs	r2, r3
 8008216:	b299      	uxth	r1, r3
 8008218:	4002      	ands	r2, r0
 800821a:	4203      	tst	r3, r0
 800821c:	d00f      	beq.n	800823e <__swsetup_r+0xd6>
 800821e:	2200      	movs	r2, #0
 8008220:	60a2      	str	r2, [r4, #8]
 8008222:	6962      	ldr	r2, [r4, #20]
 8008224:	4252      	negs	r2, r2
 8008226:	61a2      	str	r2, [r4, #24]
 8008228:	2000      	movs	r0, #0
 800822a:	6922      	ldr	r2, [r4, #16]
 800822c:	4282      	cmp	r2, r0
 800822e:	d1ba      	bne.n	80081a6 <__swsetup_r+0x3e>
 8008230:	060a      	lsls	r2, r1, #24
 8008232:	d5b8      	bpl.n	80081a6 <__swsetup_r+0x3e>
 8008234:	2240      	movs	r2, #64	; 0x40
 8008236:	4313      	orrs	r3, r2
 8008238:	81a3      	strh	r3, [r4, #12]
 800823a:	3801      	subs	r0, #1
 800823c:	e7b3      	b.n	80081a6 <__swsetup_r+0x3e>
 800823e:	0788      	lsls	r0, r1, #30
 8008240:	d400      	bmi.n	8008244 <__swsetup_r+0xdc>
 8008242:	6962      	ldr	r2, [r4, #20]
 8008244:	60a2      	str	r2, [r4, #8]
 8008246:	e7ef      	b.n	8008228 <__swsetup_r+0xc0>
 8008248:	2000000c 	.word	0x2000000c
 800824c:	080095b4 	.word	0x080095b4
 8008250:	080095d4 	.word	0x080095d4
 8008254:	08009594 	.word	0x08009594

08008258 <abort>:
 8008258:	2006      	movs	r0, #6
 800825a:	b510      	push	{r4, lr}
 800825c:	f000 fa74 	bl	8008748 <raise>
 8008260:	2001      	movs	r0, #1
 8008262:	f7fc fae8 	bl	8004836 <_exit>
	...

08008268 <__sflush_r>:
 8008268:	b5f7      	push	{r0, r1, r2, r4, r5, r6, r7, lr}
 800826a:	898b      	ldrh	r3, [r1, #12]
 800826c:	0005      	movs	r5, r0
 800826e:	000c      	movs	r4, r1
 8008270:	071a      	lsls	r2, r3, #28
 8008272:	d45f      	bmi.n	8008334 <__sflush_r+0xcc>
 8008274:	684a      	ldr	r2, [r1, #4]
 8008276:	2a00      	cmp	r2, #0
 8008278:	dc04      	bgt.n	8008284 <__sflush_r+0x1c>
 800827a:	6c0a      	ldr	r2, [r1, #64]	; 0x40
 800827c:	2a00      	cmp	r2, #0
 800827e:	dc01      	bgt.n	8008284 <__sflush_r+0x1c>
 8008280:	2000      	movs	r0, #0
 8008282:	bdfe      	pop	{r1, r2, r3, r4, r5, r6, r7, pc}
 8008284:	6ae7      	ldr	r7, [r4, #44]	; 0x2c
 8008286:	2f00      	cmp	r7, #0
 8008288:	d0fa      	beq.n	8008280 <__sflush_r+0x18>
 800828a:	2200      	movs	r2, #0
 800828c:	2180      	movs	r1, #128	; 0x80
 800828e:	682e      	ldr	r6, [r5, #0]
 8008290:	602a      	str	r2, [r5, #0]
 8008292:	001a      	movs	r2, r3
 8008294:	0149      	lsls	r1, r1, #5
 8008296:	400a      	ands	r2, r1
 8008298:	420b      	tst	r3, r1
 800829a:	d034      	beq.n	8008306 <__sflush_r+0x9e>
 800829c:	6d60      	ldr	r0, [r4, #84]	; 0x54
 800829e:	89a3      	ldrh	r3, [r4, #12]
 80082a0:	075b      	lsls	r3, r3, #29
 80082a2:	d506      	bpl.n	80082b2 <__sflush_r+0x4a>
 80082a4:	6863      	ldr	r3, [r4, #4]
 80082a6:	1ac0      	subs	r0, r0, r3
 80082a8:	6b63      	ldr	r3, [r4, #52]	; 0x34
 80082aa:	2b00      	cmp	r3, #0
 80082ac:	d001      	beq.n	80082b2 <__sflush_r+0x4a>
 80082ae:	6c23      	ldr	r3, [r4, #64]	; 0x40
 80082b0:	1ac0      	subs	r0, r0, r3
 80082b2:	0002      	movs	r2, r0
 80082b4:	6a21      	ldr	r1, [r4, #32]
 80082b6:	2300      	movs	r3, #0
 80082b8:	0028      	movs	r0, r5
 80082ba:	6ae7      	ldr	r7, [r4, #44]	; 0x2c
 80082bc:	47b8      	blx	r7
 80082be:	89a1      	ldrh	r1, [r4, #12]
 80082c0:	1c43      	adds	r3, r0, #1
 80082c2:	d106      	bne.n	80082d2 <__sflush_r+0x6a>
 80082c4:	682b      	ldr	r3, [r5, #0]
 80082c6:	2b1d      	cmp	r3, #29
 80082c8:	d831      	bhi.n	800832e <__sflush_r+0xc6>
 80082ca:	4a2c      	ldr	r2, [pc, #176]	; (800837c <__sflush_r+0x114>)
 80082cc:	40da      	lsrs	r2, r3
 80082ce:	07d3      	lsls	r3, r2, #31
 80082d0:	d52d      	bpl.n	800832e <__sflush_r+0xc6>
 80082d2:	2300      	movs	r3, #0
 80082d4:	6063      	str	r3, [r4, #4]
 80082d6:	6923      	ldr	r3, [r4, #16]
 80082d8:	6023      	str	r3, [r4, #0]
 80082da:	04cb      	lsls	r3, r1, #19
 80082dc:	d505      	bpl.n	80082ea <__sflush_r+0x82>
 80082de:	1c43      	adds	r3, r0, #1
 80082e0:	d102      	bne.n	80082e8 <__sflush_r+0x80>
 80082e2:	682b      	ldr	r3, [r5, #0]
 80082e4:	2b00      	cmp	r3, #0
 80082e6:	d100      	bne.n	80082ea <__sflush_r+0x82>
 80082e8:	6560      	str	r0, [r4, #84]	; 0x54
 80082ea:	6b61      	ldr	r1, [r4, #52]	; 0x34
 80082ec:	602e      	str	r6, [r5, #0]
 80082ee:	2900      	cmp	r1, #0
 80082f0:	d0c6      	beq.n	8008280 <__sflush_r+0x18>
 80082f2:	0023      	movs	r3, r4
 80082f4:	3344      	adds	r3, #68	; 0x44
 80082f6:	4299      	cmp	r1, r3
 80082f8:	d002      	beq.n	8008300 <__sflush_r+0x98>
 80082fa:	0028      	movs	r0, r5
 80082fc:	f7ff fa86 	bl	800780c <_free_r>
 8008300:	2000      	movs	r0, #0
 8008302:	6360      	str	r0, [r4, #52]	; 0x34
 8008304:	e7bd      	b.n	8008282 <__sflush_r+0x1a>
 8008306:	2301      	movs	r3, #1
 8008308:	0028      	movs	r0, r5
 800830a:	6a21      	ldr	r1, [r4, #32]
 800830c:	47b8      	blx	r7
 800830e:	1c43      	adds	r3, r0, #1
 8008310:	d1c5      	bne.n	800829e <__sflush_r+0x36>
 8008312:	682b      	ldr	r3, [r5, #0]
 8008314:	2b00      	cmp	r3, #0
 8008316:	d0c2      	beq.n	800829e <__sflush_r+0x36>
 8008318:	2b1d      	cmp	r3, #29
 800831a:	d001      	beq.n	8008320 <__sflush_r+0xb8>
 800831c:	2b16      	cmp	r3, #22
 800831e:	d101      	bne.n	8008324 <__sflush_r+0xbc>
 8008320:	602e      	str	r6, [r5, #0]
 8008322:	e7ad      	b.n	8008280 <__sflush_r+0x18>
 8008324:	2340      	movs	r3, #64	; 0x40
 8008326:	89a2      	ldrh	r2, [r4, #12]
 8008328:	4313      	orrs	r3, r2
 800832a:	81a3      	strh	r3, [r4, #12]
 800832c:	e7a9      	b.n	8008282 <__sflush_r+0x1a>
 800832e:	2340      	movs	r3, #64	; 0x40
 8008330:	430b      	orrs	r3, r1
 8008332:	e7fa      	b.n	800832a <__sflush_r+0xc2>
 8008334:	690f      	ldr	r7, [r1, #16]
 8008336:	2f00      	cmp	r7, #0
 8008338:	d0a2      	beq.n	8008280 <__sflush_r+0x18>
 800833a:	680a      	ldr	r2, [r1, #0]
 800833c:	600f      	str	r7, [r1, #0]
 800833e:	1bd2      	subs	r2, r2, r7
 8008340:	9201      	str	r2, [sp, #4]
 8008342:	2200      	movs	r2, #0
 8008344:	079b      	lsls	r3, r3, #30
 8008346:	d100      	bne.n	800834a <__sflush_r+0xe2>
 8008348:	694a      	ldr	r2, [r1, #20]
 800834a:	60a2      	str	r2, [r4, #8]
 800834c:	9b01      	ldr	r3, [sp, #4]
 800834e:	2b00      	cmp	r3, #0
 8008350:	dc00      	bgt.n	8008354 <__sflush_r+0xec>
 8008352:	e795      	b.n	8008280 <__sflush_r+0x18>
 8008354:	003a      	movs	r2, r7
 8008356:	0028      	movs	r0, r5
 8008358:	9b01      	ldr	r3, [sp, #4]
 800835a:	6a21      	ldr	r1, [r4, #32]
 800835c:	6aa6      	ldr	r6, [r4, #40]	; 0x28
 800835e:	47b0      	blx	r6
 8008360:	2800      	cmp	r0, #0
 8008362:	dc06      	bgt.n	8008372 <__sflush_r+0x10a>
 8008364:	2340      	movs	r3, #64	; 0x40
 8008366:	2001      	movs	r0, #1
 8008368:	89a2      	ldrh	r2, [r4, #12]
 800836a:	4240      	negs	r0, r0
 800836c:	4313      	orrs	r3, r2
 800836e:	81a3      	strh	r3, [r4, #12]
 8008370:	e787      	b.n	8008282 <__sflush_r+0x1a>
 8008372:	9b01      	ldr	r3, [sp, #4]
 8008374:	183f      	adds	r7, r7, r0
 8008376:	1a1b      	subs	r3, r3, r0
 8008378:	9301      	str	r3, [sp, #4]
 800837a:	e7e7      	b.n	800834c <__sflush_r+0xe4>
 800837c:	20400001 	.word	0x20400001

08008380 <_fflush_r>:
 8008380:	690b      	ldr	r3, [r1, #16]
 8008382:	b570      	push	{r4, r5, r6, lr}
 8008384:	0005      	movs	r5, r0
 8008386:	000c      	movs	r4, r1
 8008388:	2b00      	cmp	r3, #0
 800838a:	d102      	bne.n	8008392 <_fflush_r+0x12>
 800838c:	2500      	movs	r5, #0
 800838e:	0028      	movs	r0, r5
 8008390:	bd70      	pop	{r4, r5, r6, pc}
 8008392:	2800      	cmp	r0, #0
 8008394:	d004      	beq.n	80083a0 <_fflush_r+0x20>
 8008396:	6983      	ldr	r3, [r0, #24]
 8008398:	2b00      	cmp	r3, #0
 800839a:	d101      	bne.n	80083a0 <_fflush_r+0x20>
 800839c:	f000 f892 	bl	80084c4 <__sinit>
 80083a0:	4b14      	ldr	r3, [pc, #80]	; (80083f4 <_fflush_r+0x74>)
 80083a2:	429c      	cmp	r4, r3
 80083a4:	d11b      	bne.n	80083de <_fflush_r+0x5e>
 80083a6:	686c      	ldr	r4, [r5, #4]
 80083a8:	220c      	movs	r2, #12
 80083aa:	5ea3      	ldrsh	r3, [r4, r2]
 80083ac:	2b00      	cmp	r3, #0
 80083ae:	d0ed      	beq.n	800838c <_fflush_r+0xc>
 80083b0:	6e62      	ldr	r2, [r4, #100]	; 0x64
 80083b2:	07d2      	lsls	r2, r2, #31
 80083b4:	d404      	bmi.n	80083c0 <_fflush_r+0x40>
 80083b6:	059b      	lsls	r3, r3, #22
 80083b8:	d402      	bmi.n	80083c0 <_fflush_r+0x40>
 80083ba:	6da0      	ldr	r0, [r4, #88]	; 0x58
 80083bc:	f000 f923 	bl	8008606 <__retarget_lock_acquire_recursive>
 80083c0:	0028      	movs	r0, r5
 80083c2:	0021      	movs	r1, r4
 80083c4:	f7ff ff50 	bl	8008268 <__sflush_r>
 80083c8:	6e63      	ldr	r3, [r4, #100]	; 0x64
 80083ca:	0005      	movs	r5, r0
 80083cc:	07db      	lsls	r3, r3, #31
 80083ce:	d4de      	bmi.n	800838e <_fflush_r+0xe>
 80083d0:	89a3      	ldrh	r3, [r4, #12]
 80083d2:	059b      	lsls	r3, r3, #22
 80083d4:	d4db      	bmi.n	800838e <_fflush_r+0xe>
 80083d6:	6da0      	ldr	r0, [r4, #88]	; 0x58
 80083d8:	f000 f916 	bl	8008608 <__retarget_lock_release_recursive>
 80083dc:	e7d7      	b.n	800838e <_fflush_r+0xe>
 80083de:	4b06      	ldr	r3, [pc, #24]	; (80083f8 <_fflush_r+0x78>)
 80083e0:	429c      	cmp	r4, r3
 80083e2:	d101      	bne.n	80083e8 <_fflush_r+0x68>
 80083e4:	68ac      	ldr	r4, [r5, #8]
 80083e6:	e7df      	b.n	80083a8 <_fflush_r+0x28>
 80083e8:	4b04      	ldr	r3, [pc, #16]	; (80083fc <_fflush_r+0x7c>)
 80083ea:	429c      	cmp	r4, r3
 80083ec:	d1dc      	bne.n	80083a8 <_fflush_r+0x28>
 80083ee:	68ec      	ldr	r4, [r5, #12]
 80083f0:	e7da      	b.n	80083a8 <_fflush_r+0x28>
 80083f2:	46c0      	nop			; (mov r8, r8)
 80083f4:	080095b4 	.word	0x080095b4
 80083f8:	080095d4 	.word	0x080095d4
 80083fc:	08009594 	.word	0x08009594

08008400 <std>:
 8008400:	2300      	movs	r3, #0
 8008402:	b510      	push	{r4, lr}
 8008404:	0004      	movs	r4, r0
 8008406:	6003      	str	r3, [r0, #0]
 8008408:	6043      	str	r3, [r0, #4]
 800840a:	6083      	str	r3, [r0, #8]
 800840c:	8181      	strh	r1, [r0, #12]
 800840e:	6643      	str	r3, [r0, #100]	; 0x64
 8008410:	0019      	movs	r1, r3
 8008412:	81c2      	strh	r2, [r0, #14]
 8008414:	6103      	str	r3, [r0, #16]
 8008416:	6143      	str	r3, [r0, #20]
 8008418:	6183      	str	r3, [r0, #24]
 800841a:	2208      	movs	r2, #8
 800841c:	305c      	adds	r0, #92	; 0x5c
 800841e:	f7fd facf 	bl	80059c0 <memset>
 8008422:	4b05      	ldr	r3, [pc, #20]	; (8008438 <std+0x38>)
 8008424:	6224      	str	r4, [r4, #32]
 8008426:	6263      	str	r3, [r4, #36]	; 0x24
 8008428:	4b04      	ldr	r3, [pc, #16]	; (800843c <std+0x3c>)
 800842a:	62a3      	str	r3, [r4, #40]	; 0x28
 800842c:	4b04      	ldr	r3, [pc, #16]	; (8008440 <std+0x40>)
 800842e:	62e3      	str	r3, [r4, #44]	; 0x2c
 8008430:	4b04      	ldr	r3, [pc, #16]	; (8008444 <std+0x44>)
 8008432:	6323      	str	r3, [r4, #48]	; 0x30
 8008434:	bd10      	pop	{r4, pc}
 8008436:	46c0      	nop			; (mov r8, r8)
 8008438:	08008789 	.word	0x08008789
 800843c:	080087b1 	.word	0x080087b1
 8008440:	080087e9 	.word	0x080087e9
 8008444:	08008815 	.word	0x08008815

08008448 <_cleanup_r>:
 8008448:	b510      	push	{r4, lr}
 800844a:	4902      	ldr	r1, [pc, #8]	; (8008454 <_cleanup_r+0xc>)
 800844c:	f000 f8ba 	bl	80085c4 <_fwalk_reent>
 8008450:	bd10      	pop	{r4, pc}
 8008452:	46c0      	nop			; (mov r8, r8)
 8008454:	08008381 	.word	0x08008381

08008458 <__sfmoreglue>:
 8008458:	b570      	push	{r4, r5, r6, lr}
 800845a:	2568      	movs	r5, #104	; 0x68
 800845c:	1e4a      	subs	r2, r1, #1
 800845e:	4355      	muls	r5, r2
 8008460:	000e      	movs	r6, r1
 8008462:	0029      	movs	r1, r5
 8008464:	3174      	adds	r1, #116	; 0x74
 8008466:	f7ff fa3d 	bl	80078e4 <_malloc_r>
 800846a:	1e04      	subs	r4, r0, #0
 800846c:	d008      	beq.n	8008480 <__sfmoreglue+0x28>
 800846e:	2100      	movs	r1, #0
 8008470:	002a      	movs	r2, r5
 8008472:	6001      	str	r1, [r0, #0]
 8008474:	6046      	str	r6, [r0, #4]
 8008476:	300c      	adds	r0, #12
 8008478:	60a0      	str	r0, [r4, #8]
 800847a:	3268      	adds	r2, #104	; 0x68
 800847c:	f7fd faa0 	bl	80059c0 <memset>
 8008480:	0020      	movs	r0, r4
 8008482:	bd70      	pop	{r4, r5, r6, pc}

08008484 <__sfp_lock_acquire>:
 8008484:	b510      	push	{r4, lr}
 8008486:	4802      	ldr	r0, [pc, #8]	; (8008490 <__sfp_lock_acquire+0xc>)
 8008488:	f000 f8bd 	bl	8008606 <__retarget_lock_acquire_recursive>
 800848c:	bd10      	pop	{r4, pc}
 800848e:	46c0      	nop			; (mov r8, r8)
 8008490:	200002ad 	.word	0x200002ad

08008494 <__sfp_lock_release>:
 8008494:	b510      	push	{r4, lr}
 8008496:	4802      	ldr	r0, [pc, #8]	; (80084a0 <__sfp_lock_release+0xc>)
 8008498:	f000 f8b6 	bl	8008608 <__retarget_lock_release_recursive>
 800849c:	bd10      	pop	{r4, pc}
 800849e:	46c0      	nop			; (mov r8, r8)
 80084a0:	200002ad 	.word	0x200002ad

080084a4 <__sinit_lock_acquire>:
 80084a4:	b510      	push	{r4, lr}
 80084a6:	4802      	ldr	r0, [pc, #8]	; (80084b0 <__sinit_lock_acquire+0xc>)
 80084a8:	f000 f8ad 	bl	8008606 <__retarget_lock_acquire_recursive>
 80084ac:	bd10      	pop	{r4, pc}
 80084ae:	46c0      	nop			; (mov r8, r8)
 80084b0:	200002ae 	.word	0x200002ae

080084b4 <__sinit_lock_release>:
 80084b4:	b510      	push	{r4, lr}
 80084b6:	4802      	ldr	r0, [pc, #8]	; (80084c0 <__sinit_lock_release+0xc>)
 80084b8:	f000 f8a6 	bl	8008608 <__retarget_lock_release_recursive>
 80084bc:	bd10      	pop	{r4, pc}
 80084be:	46c0      	nop			; (mov r8, r8)
 80084c0:	200002ae 	.word	0x200002ae

080084c4 <__sinit>:
 80084c4:	b513      	push	{r0, r1, r4, lr}
 80084c6:	0004      	movs	r4, r0
 80084c8:	f7ff ffec 	bl	80084a4 <__sinit_lock_acquire>
 80084cc:	69a3      	ldr	r3, [r4, #24]
 80084ce:	2b00      	cmp	r3, #0
 80084d0:	d002      	beq.n	80084d8 <__sinit+0x14>
 80084d2:	f7ff ffef 	bl	80084b4 <__sinit_lock_release>
 80084d6:	bd13      	pop	{r0, r1, r4, pc}
 80084d8:	64a3      	str	r3, [r4, #72]	; 0x48
 80084da:	64e3      	str	r3, [r4, #76]	; 0x4c
 80084dc:	6523      	str	r3, [r4, #80]	; 0x50
 80084de:	4b13      	ldr	r3, [pc, #76]	; (800852c <__sinit+0x68>)
 80084e0:	4a13      	ldr	r2, [pc, #76]	; (8008530 <__sinit+0x6c>)
 80084e2:	681b      	ldr	r3, [r3, #0]
 80084e4:	62a2      	str	r2, [r4, #40]	; 0x28
 80084e6:	9301      	str	r3, [sp, #4]
 80084e8:	42a3      	cmp	r3, r4
 80084ea:	d101      	bne.n	80084f0 <__sinit+0x2c>
 80084ec:	2301      	movs	r3, #1
 80084ee:	61a3      	str	r3, [r4, #24]
 80084f0:	0020      	movs	r0, r4
 80084f2:	f000 f81f 	bl	8008534 <__sfp>
 80084f6:	6060      	str	r0, [r4, #4]
 80084f8:	0020      	movs	r0, r4
 80084fa:	f000 f81b 	bl	8008534 <__sfp>
 80084fe:	60a0      	str	r0, [r4, #8]
 8008500:	0020      	movs	r0, r4
 8008502:	f000 f817 	bl	8008534 <__sfp>
 8008506:	2200      	movs	r2, #0
 8008508:	2104      	movs	r1, #4
 800850a:	60e0      	str	r0, [r4, #12]
 800850c:	6860      	ldr	r0, [r4, #4]
 800850e:	f7ff ff77 	bl	8008400 <std>
 8008512:	2201      	movs	r2, #1
 8008514:	2109      	movs	r1, #9
 8008516:	68a0      	ldr	r0, [r4, #8]
 8008518:	f7ff ff72 	bl	8008400 <std>
 800851c:	2202      	movs	r2, #2
 800851e:	2112      	movs	r1, #18
 8008520:	68e0      	ldr	r0, [r4, #12]
 8008522:	f7ff ff6d 	bl	8008400 <std>
 8008526:	2301      	movs	r3, #1
 8008528:	61a3      	str	r3, [r4, #24]
 800852a:	e7d2      	b.n	80084d2 <__sinit+0xe>
 800852c:	08009218 	.word	0x08009218
 8008530:	08008449 	.word	0x08008449

08008534 <__sfp>:
 8008534:	b5f8      	push	{r3, r4, r5, r6, r7, lr}
 8008536:	0007      	movs	r7, r0
 8008538:	f7ff ffa4 	bl	8008484 <__sfp_lock_acquire>
 800853c:	4b1f      	ldr	r3, [pc, #124]	; (80085bc <__sfp+0x88>)
 800853e:	681e      	ldr	r6, [r3, #0]
 8008540:	69b3      	ldr	r3, [r6, #24]
 8008542:	2b00      	cmp	r3, #0
 8008544:	d102      	bne.n	800854c <__sfp+0x18>
 8008546:	0030      	movs	r0, r6
 8008548:	f7ff ffbc 	bl	80084c4 <__sinit>
 800854c:	3648      	adds	r6, #72	; 0x48
 800854e:	68b4      	ldr	r4, [r6, #8]
 8008550:	6873      	ldr	r3, [r6, #4]
 8008552:	3b01      	subs	r3, #1
 8008554:	d504      	bpl.n	8008560 <__sfp+0x2c>
 8008556:	6833      	ldr	r3, [r6, #0]
 8008558:	2b00      	cmp	r3, #0
 800855a:	d022      	beq.n	80085a2 <__sfp+0x6e>
 800855c:	6836      	ldr	r6, [r6, #0]
 800855e:	e7f6      	b.n	800854e <__sfp+0x1a>
 8008560:	220c      	movs	r2, #12
 8008562:	5ea5      	ldrsh	r5, [r4, r2]
 8008564:	2d00      	cmp	r5, #0
 8008566:	d11a      	bne.n	800859e <__sfp+0x6a>
 8008568:	0020      	movs	r0, r4
 800856a:	4b15      	ldr	r3, [pc, #84]	; (80085c0 <__sfp+0x8c>)
 800856c:	3058      	adds	r0, #88	; 0x58
 800856e:	60e3      	str	r3, [r4, #12]
 8008570:	6665      	str	r5, [r4, #100]	; 0x64
 8008572:	f000 f847 	bl	8008604 <__retarget_lock_init_recursive>
 8008576:	f7ff ff8d 	bl	8008494 <__sfp_lock_release>
 800857a:	0020      	movs	r0, r4
 800857c:	2208      	movs	r2, #8
 800857e:	0029      	movs	r1, r5
 8008580:	6025      	str	r5, [r4, #0]
 8008582:	60a5      	str	r5, [r4, #8]
 8008584:	6065      	str	r5, [r4, #4]
 8008586:	6125      	str	r5, [r4, #16]
 8008588:	6165      	str	r5, [r4, #20]
 800858a:	61a5      	str	r5, [r4, #24]
 800858c:	305c      	adds	r0, #92	; 0x5c
 800858e:	f7fd fa17 	bl	80059c0 <memset>
 8008592:	6365      	str	r5, [r4, #52]	; 0x34
 8008594:	63a5      	str	r5, [r4, #56]	; 0x38
 8008596:	64a5      	str	r5, [r4, #72]	; 0x48
 8008598:	64e5      	str	r5, [r4, #76]	; 0x4c
 800859a:	0020      	movs	r0, r4
 800859c:	bdf8      	pop	{r3, r4, r5, r6, r7, pc}
 800859e:	3468      	adds	r4, #104	; 0x68
 80085a0:	e7d7      	b.n	8008552 <__sfp+0x1e>
 80085a2:	2104      	movs	r1, #4
 80085a4:	0038      	movs	r0, r7
 80085a6:	f7ff ff57 	bl	8008458 <__sfmoreglue>
 80085aa:	1e04      	subs	r4, r0, #0
 80085ac:	6030      	str	r0, [r6, #0]
 80085ae:	d1d5      	bne.n	800855c <__sfp+0x28>
 80085b0:	f7ff ff70 	bl	8008494 <__sfp_lock_release>
 80085b4:	230c      	movs	r3, #12
 80085b6:	603b      	str	r3, [r7, #0]
 80085b8:	e7ef      	b.n	800859a <__sfp+0x66>
 80085ba:	46c0      	nop			; (mov r8, r8)
 80085bc:	08009218 	.word	0x08009218
 80085c0:	ffff0001 	.word	0xffff0001

080085c4 <_fwalk_reent>:
 80085c4:	b5f7      	push	{r0, r1, r2, r4, r5, r6, r7, lr}
 80085c6:	0004      	movs	r4, r0
 80085c8:	0006      	movs	r6, r0
 80085ca:	2700      	movs	r7, #0
 80085cc:	9101      	str	r1, [sp, #4]
 80085ce:	3448      	adds	r4, #72	; 0x48
 80085d0:	6863      	ldr	r3, [r4, #4]
 80085d2:	68a5      	ldr	r5, [r4, #8]
 80085d4:	9300      	str	r3, [sp, #0]
 80085d6:	9b00      	ldr	r3, [sp, #0]
 80085d8:	3b01      	subs	r3, #1
 80085da:	9300      	str	r3, [sp, #0]
 80085dc:	d504      	bpl.n	80085e8 <_fwalk_reent+0x24>
 80085de:	6824      	ldr	r4, [r4, #0]
 80085e0:	2c00      	cmp	r4, #0
 80085e2:	d1f5      	bne.n	80085d0 <_fwalk_reent+0xc>
 80085e4:	0038      	movs	r0, r7
 80085e6:	bdfe      	pop	{r1, r2, r3, r4, r5, r6, r7, pc}
 80085e8:	89ab      	ldrh	r3, [r5, #12]
 80085ea:	2b01      	cmp	r3, #1
 80085ec:	d908      	bls.n	8008600 <_fwalk_reent+0x3c>
 80085ee:	220e      	movs	r2, #14
 80085f0:	5eab      	ldrsh	r3, [r5, r2]
 80085f2:	3301      	adds	r3, #1
 80085f4:	d004      	beq.n	8008600 <_fwalk_reent+0x3c>
 80085f6:	0029      	movs	r1, r5
 80085f8:	0030      	movs	r0, r6
 80085fa:	9b01      	ldr	r3, [sp, #4]
 80085fc:	4798      	blx	r3
 80085fe:	4307      	orrs	r7, r0
 8008600:	3568      	adds	r5, #104	; 0x68
 8008602:	e7e8      	b.n	80085d6 <_fwalk_reent+0x12>

08008604 <__retarget_lock_init_recursive>:
 8008604:	4770      	bx	lr

08008606 <__retarget_lock_acquire_recursive>:
 8008606:	4770      	bx	lr

08008608 <__retarget_lock_release_recursive>:
 8008608:	4770      	bx	lr
	...

0800860c <__swhatbuf_r>:
 800860c:	b570      	push	{r4, r5, r6, lr}
 800860e:	000e      	movs	r6, r1
 8008610:	001d      	movs	r5, r3
 8008612:	230e      	movs	r3, #14
 8008614:	5ec9      	ldrsh	r1, [r1, r3]
 8008616:	0014      	movs	r4, r2
 8008618:	b096      	sub	sp, #88	; 0x58
 800861a:	2900      	cmp	r1, #0
 800861c:	da08      	bge.n	8008630 <__swhatbuf_r+0x24>
 800861e:	220c      	movs	r2, #12
 8008620:	5eb3      	ldrsh	r3, [r6, r2]
 8008622:	2200      	movs	r2, #0
 8008624:	602a      	str	r2, [r5, #0]
 8008626:	061b      	lsls	r3, r3, #24
 8008628:	d411      	bmi.n	800864e <__swhatbuf_r+0x42>
 800862a:	2380      	movs	r3, #128	; 0x80
 800862c:	00db      	lsls	r3, r3, #3
 800862e:	e00f      	b.n	8008650 <__swhatbuf_r+0x44>
 8008630:	466a      	mov	r2, sp
 8008632:	f000 f91b 	bl	800886c <_fstat_r>
 8008636:	2800      	cmp	r0, #0
 8008638:	dbf1      	blt.n	800861e <__swhatbuf_r+0x12>
 800863a:	23f0      	movs	r3, #240	; 0xf0
 800863c:	9901      	ldr	r1, [sp, #4]
 800863e:	021b      	lsls	r3, r3, #8
 8008640:	4019      	ands	r1, r3
 8008642:	4b05      	ldr	r3, [pc, #20]	; (8008658 <__swhatbuf_r+0x4c>)
 8008644:	18c9      	adds	r1, r1, r3
 8008646:	424b      	negs	r3, r1
 8008648:	4159      	adcs	r1, r3
 800864a:	6029      	str	r1, [r5, #0]
 800864c:	e7ed      	b.n	800862a <__swhatbuf_r+0x1e>
 800864e:	2340      	movs	r3, #64	; 0x40
 8008650:	2000      	movs	r0, #0
 8008652:	6023      	str	r3, [r4, #0]
 8008654:	b016      	add	sp, #88	; 0x58
 8008656:	bd70      	pop	{r4, r5, r6, pc}
 8008658:	ffffe000 	.word	0xffffe000

0800865c <__smakebuf_r>:
 800865c:	b5f7      	push	{r0, r1, r2, r4, r5, r6, r7, lr}
 800865e:	2602      	movs	r6, #2
 8008660:	898b      	ldrh	r3, [r1, #12]
 8008662:	0005      	movs	r5, r0
 8008664:	000c      	movs	r4, r1
 8008666:	4233      	tst	r3, r6
 8008668:	d006      	beq.n	8008678 <__smakebuf_r+0x1c>
 800866a:	0023      	movs	r3, r4
 800866c:	3347      	adds	r3, #71	; 0x47
 800866e:	6023      	str	r3, [r4, #0]
 8008670:	6123      	str	r3, [r4, #16]
 8008672:	2301      	movs	r3, #1
 8008674:	6163      	str	r3, [r4, #20]
 8008676:	bdf7      	pop	{r0, r1, r2, r4, r5, r6, r7, pc}
 8008678:	466a      	mov	r2, sp
 800867a:	ab01      	add	r3, sp, #4
 800867c:	f7ff ffc6 	bl	800860c <__swhatbuf_r>
 8008680:	9900      	ldr	r1, [sp, #0]
 8008682:	0007      	movs	r7, r0
 8008684:	0028      	movs	r0, r5
 8008686:	f7ff f92d 	bl	80078e4 <_malloc_r>
 800868a:	2800      	cmp	r0, #0
 800868c:	d108      	bne.n	80086a0 <__smakebuf_r+0x44>
 800868e:	220c      	movs	r2, #12
 8008690:	5ea3      	ldrsh	r3, [r4, r2]
 8008692:	059a      	lsls	r2, r3, #22
 8008694:	d4ef      	bmi.n	8008676 <__smakebuf_r+0x1a>
 8008696:	2203      	movs	r2, #3
 8008698:	4393      	bics	r3, r2
 800869a:	431e      	orrs	r6, r3
 800869c:	81a6      	strh	r6, [r4, #12]
 800869e:	e7e4      	b.n	800866a <__smakebuf_r+0xe>
 80086a0:	4b0f      	ldr	r3, [pc, #60]	; (80086e0 <__smakebuf_r+0x84>)
 80086a2:	62ab      	str	r3, [r5, #40]	; 0x28
 80086a4:	2380      	movs	r3, #128	; 0x80
 80086a6:	89a2      	ldrh	r2, [r4, #12]
 80086a8:	6020      	str	r0, [r4, #0]
 80086aa:	4313      	orrs	r3, r2
 80086ac:	81a3      	strh	r3, [r4, #12]
 80086ae:	9b00      	ldr	r3, [sp, #0]
 80086b0:	6120      	str	r0, [r4, #16]
 80086b2:	6163      	str	r3, [r4, #20]
 80086b4:	9b01      	ldr	r3, [sp, #4]
 80086b6:	2b00      	cmp	r3, #0
 80086b8:	d00d      	beq.n	80086d6 <__smakebuf_r+0x7a>
 80086ba:	0028      	movs	r0, r5
 80086bc:	230e      	movs	r3, #14
 80086be:	5ee1      	ldrsh	r1, [r4, r3]
 80086c0:	f000 f8e6 	bl	8008890 <_isatty_r>
 80086c4:	2800      	cmp	r0, #0
 80086c6:	d006      	beq.n	80086d6 <__smakebuf_r+0x7a>
 80086c8:	2203      	movs	r2, #3
 80086ca:	89a3      	ldrh	r3, [r4, #12]
 80086cc:	4393      	bics	r3, r2
 80086ce:	001a      	movs	r2, r3
 80086d0:	2301      	movs	r3, #1
 80086d2:	4313      	orrs	r3, r2
 80086d4:	81a3      	strh	r3, [r4, #12]
 80086d6:	89a0      	ldrh	r0, [r4, #12]
 80086d8:	4307      	orrs	r7, r0
 80086da:	81a7      	strh	r7, [r4, #12]
 80086dc:	e7cb      	b.n	8008676 <__smakebuf_r+0x1a>
 80086de:	46c0      	nop			; (mov r8, r8)
 80086e0:	08008449 	.word	0x08008449

080086e4 <_malloc_usable_size_r>:
 80086e4:	1f0b      	subs	r3, r1, #4
 80086e6:	681b      	ldr	r3, [r3, #0]
 80086e8:	1f18      	subs	r0, r3, #4
 80086ea:	2b00      	cmp	r3, #0
 80086ec:	da01      	bge.n	80086f2 <_malloc_usable_size_r+0xe>
 80086ee:	580b      	ldr	r3, [r1, r0]
 80086f0:	18c0      	adds	r0, r0, r3
 80086f2:	4770      	bx	lr

080086f4 <_raise_r>:
 80086f4:	b570      	push	{r4, r5, r6, lr}
 80086f6:	0004      	movs	r4, r0
 80086f8:	000d      	movs	r5, r1
 80086fa:	291f      	cmp	r1, #31
 80086fc:	d904      	bls.n	8008708 <_raise_r+0x14>
 80086fe:	2316      	movs	r3, #22
 8008700:	6003      	str	r3, [r0, #0]
 8008702:	2001      	movs	r0, #1
 8008704:	4240      	negs	r0, r0
 8008706:	bd70      	pop	{r4, r5, r6, pc}
 8008708:	6c43      	ldr	r3, [r0, #68]	; 0x44
 800870a:	2b00      	cmp	r3, #0
 800870c:	d004      	beq.n	8008718 <_raise_r+0x24>
 800870e:	008a      	lsls	r2, r1, #2
 8008710:	189b      	adds	r3, r3, r2
 8008712:	681a      	ldr	r2, [r3, #0]
 8008714:	2a00      	cmp	r2, #0
 8008716:	d108      	bne.n	800872a <_raise_r+0x36>
 8008718:	0020      	movs	r0, r4
 800871a:	f000 f831 	bl	8008780 <_getpid_r>
 800871e:	002a      	movs	r2, r5
 8008720:	0001      	movs	r1, r0
 8008722:	0020      	movs	r0, r4
 8008724:	f000 f81a 	bl	800875c <_kill_r>
 8008728:	e7ed      	b.n	8008706 <_raise_r+0x12>
 800872a:	2000      	movs	r0, #0
 800872c:	2a01      	cmp	r2, #1
 800872e:	d0ea      	beq.n	8008706 <_raise_r+0x12>
 8008730:	1c51      	adds	r1, r2, #1
 8008732:	d103      	bne.n	800873c <_raise_r+0x48>
 8008734:	2316      	movs	r3, #22
 8008736:	3001      	adds	r0, #1
 8008738:	6023      	str	r3, [r4, #0]
 800873a:	e7e4      	b.n	8008706 <_raise_r+0x12>
 800873c:	2400      	movs	r4, #0
 800873e:	0028      	movs	r0, r5
 8008740:	601c      	str	r4, [r3, #0]
 8008742:	4790      	blx	r2
 8008744:	0020      	movs	r0, r4
 8008746:	e7de      	b.n	8008706 <_raise_r+0x12>

08008748 <raise>:
 8008748:	b510      	push	{r4, lr}
 800874a:	4b03      	ldr	r3, [pc, #12]	; (8008758 <raise+0x10>)
 800874c:	0001      	movs	r1, r0
 800874e:	6818      	ldr	r0, [r3, #0]
 8008750:	f7ff ffd0 	bl	80086f4 <_raise_r>
 8008754:	bd10      	pop	{r4, pc}
 8008756:	46c0      	nop			; (mov r8, r8)
 8008758:	2000000c 	.word	0x2000000c

0800875c <_kill_r>:
 800875c:	2300      	movs	r3, #0
 800875e:	b570      	push	{r4, r5, r6, lr}
 8008760:	4d06      	ldr	r5, [pc, #24]	; (800877c <_kill_r+0x20>)
 8008762:	0004      	movs	r4, r0
 8008764:	0008      	movs	r0, r1
 8008766:	0011      	movs	r1, r2
 8008768:	602b      	str	r3, [r5, #0]
 800876a:	f7fc f854 	bl	8004816 <_kill>
 800876e:	1c43      	adds	r3, r0, #1
 8008770:	d103      	bne.n	800877a <_kill_r+0x1e>
 8008772:	682b      	ldr	r3, [r5, #0]
 8008774:	2b00      	cmp	r3, #0
 8008776:	d000      	beq.n	800877a <_kill_r+0x1e>
 8008778:	6023      	str	r3, [r4, #0]
 800877a:	bd70      	pop	{r4, r5, r6, pc}
 800877c:	200002a8 	.word	0x200002a8

08008780 <_getpid_r>:
 8008780:	b510      	push	{r4, lr}
 8008782:	f7fc f842 	bl	800480a <_getpid>
 8008786:	bd10      	pop	{r4, pc}

08008788 <__sread>:
 8008788:	b570      	push	{r4, r5, r6, lr}
 800878a:	000c      	movs	r4, r1
 800878c:	250e      	movs	r5, #14
 800878e:	5f49      	ldrsh	r1, [r1, r5]
 8008790:	f000 f8a4 	bl	80088dc <_read_r>
 8008794:	2800      	cmp	r0, #0
 8008796:	db03      	blt.n	80087a0 <__sread+0x18>
 8008798:	6d63      	ldr	r3, [r4, #84]	; 0x54
 800879a:	181b      	adds	r3, r3, r0
 800879c:	6563      	str	r3, [r4, #84]	; 0x54
 800879e:	bd70      	pop	{r4, r5, r6, pc}
 80087a0:	89a3      	ldrh	r3, [r4, #12]
 80087a2:	4a02      	ldr	r2, [pc, #8]	; (80087ac <__sread+0x24>)
 80087a4:	4013      	ands	r3, r2
 80087a6:	81a3      	strh	r3, [r4, #12]
 80087a8:	e7f9      	b.n	800879e <__sread+0x16>
 80087aa:	46c0      	nop			; (mov r8, r8)
 80087ac:	ffffefff 	.word	0xffffefff

080087b0 <__swrite>:
 80087b0:	b5f8      	push	{r3, r4, r5, r6, r7, lr}
 80087b2:	001f      	movs	r7, r3
 80087b4:	898b      	ldrh	r3, [r1, #12]
 80087b6:	0005      	movs	r5, r0
 80087b8:	000c      	movs	r4, r1
 80087ba:	0016      	movs	r6, r2
 80087bc:	05db      	lsls	r3, r3, #23
 80087be:	d505      	bpl.n	80087cc <__swrite+0x1c>
 80087c0:	230e      	movs	r3, #14
 80087c2:	5ec9      	ldrsh	r1, [r1, r3]
 80087c4:	2200      	movs	r2, #0
 80087c6:	2302      	movs	r3, #2
 80087c8:	f000 f874 	bl	80088b4 <_lseek_r>
 80087cc:	89a3      	ldrh	r3, [r4, #12]
 80087ce:	4a05      	ldr	r2, [pc, #20]	; (80087e4 <__swrite+0x34>)
 80087d0:	0028      	movs	r0, r5
 80087d2:	4013      	ands	r3, r2
 80087d4:	81a3      	strh	r3, [r4, #12]
 80087d6:	0032      	movs	r2, r6
 80087d8:	230e      	movs	r3, #14
 80087da:	5ee1      	ldrsh	r1, [r4, r3]
 80087dc:	003b      	movs	r3, r7
 80087de:	f000 f81f 	bl	8008820 <_write_r>
 80087e2:	bdf8      	pop	{r3, r4, r5, r6, r7, pc}
 80087e4:	ffffefff 	.word	0xffffefff

080087e8 <__sseek>:
 80087e8:	b570      	push	{r4, r5, r6, lr}
 80087ea:	000c      	movs	r4, r1
 80087ec:	250e      	movs	r5, #14
 80087ee:	5f49      	ldrsh	r1, [r1, r5]
 80087f0:	f000 f860 	bl	80088b4 <_lseek_r>
 80087f4:	89a3      	ldrh	r3, [r4, #12]
 80087f6:	1c42      	adds	r2, r0, #1
 80087f8:	d103      	bne.n	8008802 <__sseek+0x1a>
 80087fa:	4a05      	ldr	r2, [pc, #20]	; (8008810 <__sseek+0x28>)
 80087fc:	4013      	ands	r3, r2
 80087fe:	81a3      	strh	r3, [r4, #12]
 8008800:	bd70      	pop	{r4, r5, r6, pc}
 8008802:	2280      	movs	r2, #128	; 0x80
 8008804:	0152      	lsls	r2, r2, #5
 8008806:	4313      	orrs	r3, r2
 8008808:	81a3      	strh	r3, [r4, #12]
 800880a:	6560      	str	r0, [r4, #84]	; 0x54
 800880c:	e7f8      	b.n	8008800 <__sseek+0x18>
 800880e:	46c0      	nop			; (mov r8, r8)
 8008810:	ffffefff 	.word	0xffffefff

08008814 <__sclose>:
 8008814:	b510      	push	{r4, lr}
 8008816:	230e      	movs	r3, #14
 8008818:	5ec9      	ldrsh	r1, [r1, r3]
 800881a:	f000 f815 	bl	8008848 <_close_r>
 800881e:	bd10      	pop	{r4, pc}

08008820 <_write_r>:
 8008820:	b570      	push	{r4, r5, r6, lr}
 8008822:	0004      	movs	r4, r0
 8008824:	0008      	movs	r0, r1
 8008826:	0011      	movs	r1, r2
 8008828:	001a      	movs	r2, r3
 800882a:	2300      	movs	r3, #0
 800882c:	4d05      	ldr	r5, [pc, #20]	; (8008844 <_write_r+0x24>)
 800882e:	602b      	str	r3, [r5, #0]
 8008830:	f7fc f82a 	bl	8004888 <_write>
 8008834:	1c43      	adds	r3, r0, #1
 8008836:	d103      	bne.n	8008840 <_write_r+0x20>
 8008838:	682b      	ldr	r3, [r5, #0]
 800883a:	2b00      	cmp	r3, #0
 800883c:	d000      	beq.n	8008840 <_write_r+0x20>
 800883e:	6023      	str	r3, [r4, #0]
 8008840:	bd70      	pop	{r4, r5, r6, pc}
 8008842:	46c0      	nop			; (mov r8, r8)
 8008844:	200002a8 	.word	0x200002a8

08008848 <_close_r>:
 8008848:	2300      	movs	r3, #0
 800884a:	b570      	push	{r4, r5, r6, lr}
 800884c:	4d06      	ldr	r5, [pc, #24]	; (8008868 <_close_r+0x20>)
 800884e:	0004      	movs	r4, r0
 8008850:	0008      	movs	r0, r1
 8008852:	602b      	str	r3, [r5, #0]
 8008854:	f7fc f834 	bl	80048c0 <_close>
 8008858:	1c43      	adds	r3, r0, #1
 800885a:	d103      	bne.n	8008864 <_close_r+0x1c>
 800885c:	682b      	ldr	r3, [r5, #0]
 800885e:	2b00      	cmp	r3, #0
 8008860:	d000      	beq.n	8008864 <_close_r+0x1c>
 8008862:	6023      	str	r3, [r4, #0]
 8008864:	bd70      	pop	{r4, r5, r6, pc}
 8008866:	46c0      	nop			; (mov r8, r8)
 8008868:	200002a8 	.word	0x200002a8

0800886c <_fstat_r>:
 800886c:	2300      	movs	r3, #0
 800886e:	b570      	push	{r4, r5, r6, lr}
 8008870:	4d06      	ldr	r5, [pc, #24]	; (800888c <_fstat_r+0x20>)
 8008872:	0004      	movs	r4, r0
 8008874:	0008      	movs	r0, r1
 8008876:	0011      	movs	r1, r2
 8008878:	602b      	str	r3, [r5, #0]
 800887a:	f7fc f82b 	bl	80048d4 <_fstat>
 800887e:	1c43      	adds	r3, r0, #1
 8008880:	d103      	bne.n	800888a <_fstat_r+0x1e>
 8008882:	682b      	ldr	r3, [r5, #0]
 8008884:	2b00      	cmp	r3, #0
 8008886:	d000      	beq.n	800888a <_fstat_r+0x1e>
 8008888:	6023      	str	r3, [r4, #0]
 800888a:	bd70      	pop	{r4, r5, r6, pc}
 800888c:	200002a8 	.word	0x200002a8

08008890 <_isatty_r>:
 8008890:	2300      	movs	r3, #0
 8008892:	b570      	push	{r4, r5, r6, lr}
 8008894:	4d06      	ldr	r5, [pc, #24]	; (80088b0 <_isatty_r+0x20>)
 8008896:	0004      	movs	r4, r0
 8008898:	0008      	movs	r0, r1
 800889a:	602b      	str	r3, [r5, #0]
 800889c:	f7fc f828 	bl	80048f0 <_isatty>
 80088a0:	1c43      	adds	r3, r0, #1
 80088a2:	d103      	bne.n	80088ac <_isatty_r+0x1c>
 80088a4:	682b      	ldr	r3, [r5, #0]
 80088a6:	2b00      	cmp	r3, #0
 80088a8:	d000      	beq.n	80088ac <_isatty_r+0x1c>
 80088aa:	6023      	str	r3, [r4, #0]
 80088ac:	bd70      	pop	{r4, r5, r6, pc}
 80088ae:	46c0      	nop			; (mov r8, r8)
 80088b0:	200002a8 	.word	0x200002a8

080088b4 <_lseek_r>:
 80088b4:	b570      	push	{r4, r5, r6, lr}
 80088b6:	0004      	movs	r4, r0
 80088b8:	0008      	movs	r0, r1
 80088ba:	0011      	movs	r1, r2
 80088bc:	001a      	movs	r2, r3
 80088be:	2300      	movs	r3, #0
 80088c0:	4d05      	ldr	r5, [pc, #20]	; (80088d8 <_lseek_r+0x24>)
 80088c2:	602b      	str	r3, [r5, #0]
 80088c4:	f7fc f81d 	bl	8004902 <_lseek>
 80088c8:	1c43      	adds	r3, r0, #1
 80088ca:	d103      	bne.n	80088d4 <_lseek_r+0x20>
 80088cc:	682b      	ldr	r3, [r5, #0]
 80088ce:	2b00      	cmp	r3, #0
 80088d0:	d000      	beq.n	80088d4 <_lseek_r+0x20>
 80088d2:	6023      	str	r3, [r4, #0]
 80088d4:	bd70      	pop	{r4, r5, r6, pc}
 80088d6:	46c0      	nop			; (mov r8, r8)
 80088d8:	200002a8 	.word	0x200002a8

080088dc <_read_r>:
 80088dc:	b570      	push	{r4, r5, r6, lr}
 80088de:	0004      	movs	r4, r0
 80088e0:	0008      	movs	r0, r1
 80088e2:	0011      	movs	r1, r2
 80088e4:	001a      	movs	r2, r3
 80088e6:	2300      	movs	r3, #0
 80088e8:	4d05      	ldr	r5, [pc, #20]	; (8008900 <_read_r+0x24>)
 80088ea:	602b      	str	r3, [r5, #0]
 80088ec:	f7fb ffaf 	bl	800484e <_read>
 80088f0:	1c43      	adds	r3, r0, #1
 80088f2:	d103      	bne.n	80088fc <_read_r+0x20>
 80088f4:	682b      	ldr	r3, [r5, #0]
 80088f6:	2b00      	cmp	r3, #0
 80088f8:	d000      	beq.n	80088fc <_read_r+0x20>
 80088fa:	6023      	str	r3, [r4, #0]
 80088fc:	bd70      	pop	{r4, r5, r6, pc}
 80088fe:	46c0      	nop			; (mov r8, r8)
 8008900:	200002a8 	.word	0x200002a8

08008904 <asinf>:
 8008904:	b570      	push	{r4, r5, r6, lr}
 8008906:	1c05      	adds	r5, r0, #0
 8008908:	f000 f820 	bl	800894c <__ieee754_asinf>
 800890c:	1c29      	adds	r1, r5, #0
 800890e:	1c04      	adds	r4, r0, #0
 8008910:	1c28      	adds	r0, r5, #0
 8008912:	f7f8 fc3b 	bl	800118c <__aeabi_fcmpun>
 8008916:	2800      	cmp	r0, #0
 8008918:	d110      	bne.n	800893c <asinf+0x38>
 800891a:	1c28      	adds	r0, r5, #0
 800891c:	f000 fb42 	bl	8008fa4 <fabsf>
 8008920:	21fe      	movs	r1, #254	; 0xfe
 8008922:	0589      	lsls	r1, r1, #22
 8008924:	f7f7 fde4 	bl	80004f0 <__aeabi_fcmpgt>
 8008928:	2800      	cmp	r0, #0
 800892a:	d007      	beq.n	800893c <asinf+0x38>
 800892c:	f7fd f81e 	bl	800596c <__errno>
 8008930:	2321      	movs	r3, #33	; 0x21
 8008932:	6003      	str	r3, [r0, #0]
 8008934:	4802      	ldr	r0, [pc, #8]	; (8008940 <asinf+0x3c>)
 8008936:	f000 fb39 	bl	8008fac <nanf>
 800893a:	1c04      	adds	r4, r0, #0
 800893c:	1c20      	adds	r0, r4, #0
 800893e:	bd70      	pop	{r4, r5, r6, pc}
 8008940:	08009488 	.word	0x08009488

08008944 <atan2f>:
 8008944:	b510      	push	{r4, lr}
 8008946:	f000 f949 	bl	8008bdc <__ieee754_atan2f>
 800894a:	bd10      	pop	{r4, pc}

0800894c <__ieee754_asinf>:
 800894c:	23fe      	movs	r3, #254	; 0xfe
 800894e:	b5f0      	push	{r4, r5, r6, r7, lr}
 8008950:	0046      	lsls	r6, r0, #1
 8008952:	b085      	sub	sp, #20
 8008954:	1c04      	adds	r4, r0, #0
 8008956:	9002      	str	r0, [sp, #8]
 8008958:	0876      	lsrs	r6, r6, #1
 800895a:	059b      	lsls	r3, r3, #22
 800895c:	429e      	cmp	r6, r3
 800895e:	d10c      	bne.n	800897a <__ieee754_asinf+0x2e>
 8008960:	498e      	ldr	r1, [pc, #568]	; (8008b9c <__ieee754_asinf+0x250>)
 8008962:	f7f8 f93f 	bl	8000be4 <__aeabi_fmul>
 8008966:	498e      	ldr	r1, [pc, #568]	; (8008ba0 <__ieee754_asinf+0x254>)
 8008968:	1c05      	adds	r5, r0, #0
 800896a:	1c20      	adds	r0, r4, #0
 800896c:	f7f8 f93a 	bl	8000be4 <__aeabi_fmul>
 8008970:	1c01      	adds	r1, r0, #0
 8008972:	1c28      	adds	r0, r5, #0
 8008974:	f7f7 fdd0 	bl	8000518 <__aeabi_fadd>
 8008978:	e007      	b.n	800898a <__ieee754_asinf+0x3e>
 800897a:	429e      	cmp	r6, r3
 800897c:	dd09      	ble.n	8008992 <__ieee754_asinf+0x46>
 800897e:	1c01      	adds	r1, r0, #0
 8008980:	f7f8 fa56 	bl	8000e30 <__aeabi_fsub>
 8008984:	1c01      	adds	r1, r0, #0
 8008986:	f7f7 ff65 	bl	8000854 <__aeabi_fdiv>
 800898a:	1c04      	adds	r4, r0, #0
 800898c:	1c20      	adds	r0, r4, #0
 800898e:	b005      	add	sp, #20
 8008990:	bdf0      	pop	{r4, r5, r6, r7, pc}
 8008992:	23fc      	movs	r3, #252	; 0xfc
 8008994:	059b      	lsls	r3, r3, #22
 8008996:	429e      	cmp	r6, r3
 8008998:	da0c      	bge.n	80089b4 <__ieee754_asinf+0x68>
 800899a:	23c8      	movs	r3, #200	; 0xc8
 800899c:	059b      	lsls	r3, r3, #22
 800899e:	429e      	cmp	r6, r3
 80089a0:	da76      	bge.n	8008a90 <__ieee754_asinf+0x144>
 80089a2:	4980      	ldr	r1, [pc, #512]	; (8008ba4 <__ieee754_asinf+0x258>)
 80089a4:	f7f7 fdb8 	bl	8000518 <__aeabi_fadd>
 80089a8:	21fe      	movs	r1, #254	; 0xfe
 80089aa:	0589      	lsls	r1, r1, #22
 80089ac:	f7f7 fda0 	bl	80004f0 <__aeabi_fcmpgt>
 80089b0:	2800      	cmp	r0, #0
 80089b2:	d1eb      	bne.n	800898c <__ieee754_asinf+0x40>
 80089b4:	1c20      	adds	r0, r4, #0
 80089b6:	f000 faf5 	bl	8008fa4 <fabsf>
 80089ba:	1c01      	adds	r1, r0, #0
 80089bc:	20fe      	movs	r0, #254	; 0xfe
 80089be:	0580      	lsls	r0, r0, #22
 80089c0:	f7f8 fa36 	bl	8000e30 <__aeabi_fsub>
 80089c4:	21fc      	movs	r1, #252	; 0xfc
 80089c6:	0589      	lsls	r1, r1, #22
 80089c8:	f7f8 f90c 	bl	8000be4 <__aeabi_fmul>
 80089cc:	4976      	ldr	r1, [pc, #472]	; (8008ba8 <__ieee754_asinf+0x25c>)
 80089ce:	1c04      	adds	r4, r0, #0
 80089d0:	f7f8 f908 	bl	8000be4 <__aeabi_fmul>
 80089d4:	4975      	ldr	r1, [pc, #468]	; (8008bac <__ieee754_asinf+0x260>)
 80089d6:	f7f7 fd9f 	bl	8000518 <__aeabi_fadd>
 80089da:	1c21      	adds	r1, r4, #0
 80089dc:	f7f8 f902 	bl	8000be4 <__aeabi_fmul>
 80089e0:	4973      	ldr	r1, [pc, #460]	; (8008bb0 <__ieee754_asinf+0x264>)
 80089e2:	f7f8 fa25 	bl	8000e30 <__aeabi_fsub>
 80089e6:	1c21      	adds	r1, r4, #0
 80089e8:	f7f8 f8fc 	bl	8000be4 <__aeabi_fmul>
 80089ec:	4971      	ldr	r1, [pc, #452]	; (8008bb4 <__ieee754_asinf+0x268>)
 80089ee:	f7f7 fd93 	bl	8000518 <__aeabi_fadd>
 80089f2:	1c21      	adds	r1, r4, #0
 80089f4:	f7f8 f8f6 	bl	8000be4 <__aeabi_fmul>
 80089f8:	496f      	ldr	r1, [pc, #444]	; (8008bb8 <__ieee754_asinf+0x26c>)
 80089fa:	f7f8 fa19 	bl	8000e30 <__aeabi_fsub>
 80089fe:	1c21      	adds	r1, r4, #0
 8008a00:	f7f8 f8f0 	bl	8000be4 <__aeabi_fmul>
 8008a04:	496d      	ldr	r1, [pc, #436]	; (8008bbc <__ieee754_asinf+0x270>)
 8008a06:	f7f7 fd87 	bl	8000518 <__aeabi_fadd>
 8008a0a:	1c21      	adds	r1, r4, #0
 8008a0c:	f7f8 f8ea 	bl	8000be4 <__aeabi_fmul>
 8008a10:	496b      	ldr	r1, [pc, #428]	; (8008bc0 <__ieee754_asinf+0x274>)
 8008a12:	9001      	str	r0, [sp, #4]
 8008a14:	1c20      	adds	r0, r4, #0
 8008a16:	f7f8 f8e5 	bl	8000be4 <__aeabi_fmul>
 8008a1a:	496a      	ldr	r1, [pc, #424]	; (8008bc4 <__ieee754_asinf+0x278>)
 8008a1c:	f7f8 fa08 	bl	8000e30 <__aeabi_fsub>
 8008a20:	1c21      	adds	r1, r4, #0
 8008a22:	f7f8 f8df 	bl	8000be4 <__aeabi_fmul>
 8008a26:	4968      	ldr	r1, [pc, #416]	; (8008bc8 <__ieee754_asinf+0x27c>)
 8008a28:	f7f7 fd76 	bl	8000518 <__aeabi_fadd>
 8008a2c:	1c21      	adds	r1, r4, #0
 8008a2e:	f7f8 f8d9 	bl	8000be4 <__aeabi_fmul>
 8008a32:	4966      	ldr	r1, [pc, #408]	; (8008bcc <__ieee754_asinf+0x280>)
 8008a34:	f7f8 f9fc 	bl	8000e30 <__aeabi_fsub>
 8008a38:	1c21      	adds	r1, r4, #0
 8008a3a:	f7f8 f8d3 	bl	8000be4 <__aeabi_fmul>
 8008a3e:	21fe      	movs	r1, #254	; 0xfe
 8008a40:	0589      	lsls	r1, r1, #22
 8008a42:	f7f7 fd69 	bl	8000518 <__aeabi_fadd>
 8008a46:	1c07      	adds	r7, r0, #0
 8008a48:	1c20      	adds	r0, r4, #0
 8008a4a:	f000 f943 	bl	8008cd4 <__ieee754_sqrtf>
 8008a4e:	4b60      	ldr	r3, [pc, #384]	; (8008bd0 <__ieee754_asinf+0x284>)
 8008a50:	1c05      	adds	r5, r0, #0
 8008a52:	429e      	cmp	r6, r3
 8008a54:	dd66      	ble.n	8008b24 <__ieee754_asinf+0x1d8>
 8008a56:	1c39      	adds	r1, r7, #0
 8008a58:	9801      	ldr	r0, [sp, #4]
 8008a5a:	f7f7 fefb 	bl	8000854 <__aeabi_fdiv>
 8008a5e:	1c29      	adds	r1, r5, #0
 8008a60:	f7f8 f8c0 	bl	8000be4 <__aeabi_fmul>
 8008a64:	1c29      	adds	r1, r5, #0
 8008a66:	f7f7 fd57 	bl	8000518 <__aeabi_fadd>
 8008a6a:	1c01      	adds	r1, r0, #0
 8008a6c:	f7f7 fd54 	bl	8000518 <__aeabi_fadd>
 8008a70:	4958      	ldr	r1, [pc, #352]	; (8008bd4 <__ieee754_asinf+0x288>)
 8008a72:	f7f7 fd51 	bl	8000518 <__aeabi_fadd>
 8008a76:	1c01      	adds	r1, r0, #0
 8008a78:	4848      	ldr	r0, [pc, #288]	; (8008b9c <__ieee754_asinf+0x250>)
 8008a7a:	f7f8 f9d9 	bl	8000e30 <__aeabi_fsub>
 8008a7e:	9b02      	ldr	r3, [sp, #8]
 8008a80:	1c04      	adds	r4, r0, #0
 8008a82:	2b00      	cmp	r3, #0
 8008a84:	dd00      	ble.n	8008a88 <__ieee754_asinf+0x13c>
 8008a86:	e781      	b.n	800898c <__ieee754_asinf+0x40>
 8008a88:	2380      	movs	r3, #128	; 0x80
 8008a8a:	061b      	lsls	r3, r3, #24
 8008a8c:	18c4      	adds	r4, r0, r3
 8008a8e:	e77d      	b.n	800898c <__ieee754_asinf+0x40>
 8008a90:	1c01      	adds	r1, r0, #0
 8008a92:	f7f8 f8a7 	bl	8000be4 <__aeabi_fmul>
 8008a96:	4944      	ldr	r1, [pc, #272]	; (8008ba8 <__ieee754_asinf+0x25c>)
 8008a98:	1c05      	adds	r5, r0, #0
 8008a9a:	f7f8 f8a3 	bl	8000be4 <__aeabi_fmul>
 8008a9e:	4943      	ldr	r1, [pc, #268]	; (8008bac <__ieee754_asinf+0x260>)
 8008aa0:	f7f7 fd3a 	bl	8000518 <__aeabi_fadd>
 8008aa4:	1c29      	adds	r1, r5, #0
 8008aa6:	f7f8 f89d 	bl	8000be4 <__aeabi_fmul>
 8008aaa:	4941      	ldr	r1, [pc, #260]	; (8008bb0 <__ieee754_asinf+0x264>)
 8008aac:	f7f8 f9c0 	bl	8000e30 <__aeabi_fsub>
 8008ab0:	1c29      	adds	r1, r5, #0
 8008ab2:	f7f8 f897 	bl	8000be4 <__aeabi_fmul>
 8008ab6:	493f      	ldr	r1, [pc, #252]	; (8008bb4 <__ieee754_asinf+0x268>)
 8008ab8:	f7f7 fd2e 	bl	8000518 <__aeabi_fadd>
 8008abc:	1c29      	adds	r1, r5, #0
 8008abe:	f7f8 f891 	bl	8000be4 <__aeabi_fmul>
 8008ac2:	493d      	ldr	r1, [pc, #244]	; (8008bb8 <__ieee754_asinf+0x26c>)
 8008ac4:	f7f8 f9b4 	bl	8000e30 <__aeabi_fsub>
 8008ac8:	1c29      	adds	r1, r5, #0
 8008aca:	f7f8 f88b 	bl	8000be4 <__aeabi_fmul>
 8008ace:	493b      	ldr	r1, [pc, #236]	; (8008bbc <__ieee754_asinf+0x270>)
 8008ad0:	f7f7 fd22 	bl	8000518 <__aeabi_fadd>
 8008ad4:	1c29      	adds	r1, r5, #0
 8008ad6:	f7f8 f885 	bl	8000be4 <__aeabi_fmul>
 8008ada:	4939      	ldr	r1, [pc, #228]	; (8008bc0 <__ieee754_asinf+0x274>)
 8008adc:	1c06      	adds	r6, r0, #0
 8008ade:	1c28      	adds	r0, r5, #0
 8008ae0:	f7f8 f880 	bl	8000be4 <__aeabi_fmul>
 8008ae4:	4937      	ldr	r1, [pc, #220]	; (8008bc4 <__ieee754_asinf+0x278>)
 8008ae6:	f7f8 f9a3 	bl	8000e30 <__aeabi_fsub>
 8008aea:	1c29      	adds	r1, r5, #0
 8008aec:	f7f8 f87a 	bl	8000be4 <__aeabi_fmul>
 8008af0:	4935      	ldr	r1, [pc, #212]	; (8008bc8 <__ieee754_asinf+0x27c>)
 8008af2:	f7f7 fd11 	bl	8000518 <__aeabi_fadd>
 8008af6:	1c29      	adds	r1, r5, #0
 8008af8:	f7f8 f874 	bl	8000be4 <__aeabi_fmul>
 8008afc:	4933      	ldr	r1, [pc, #204]	; (8008bcc <__ieee754_asinf+0x280>)
 8008afe:	f7f8 f997 	bl	8000e30 <__aeabi_fsub>
 8008b02:	1c29      	adds	r1, r5, #0
 8008b04:	f7f8 f86e 	bl	8000be4 <__aeabi_fmul>
 8008b08:	21fe      	movs	r1, #254	; 0xfe
 8008b0a:	0589      	lsls	r1, r1, #22
 8008b0c:	f7f7 fd04 	bl	8000518 <__aeabi_fadd>
 8008b10:	1c01      	adds	r1, r0, #0
 8008b12:	1c30      	adds	r0, r6, #0
 8008b14:	f7f7 fe9e 	bl	8000854 <__aeabi_fdiv>
 8008b18:	1c21      	adds	r1, r4, #0
 8008b1a:	f7f8 f863 	bl	8000be4 <__aeabi_fmul>
 8008b1e:	1c01      	adds	r1, r0, #0
 8008b20:	1c20      	adds	r0, r4, #0
 8008b22:	e727      	b.n	8008974 <__ieee754_asinf+0x28>
 8008b24:	1c01      	adds	r1, r0, #0
 8008b26:	0b06      	lsrs	r6, r0, #12
 8008b28:	f7f7 fcf6 	bl	8000518 <__aeabi_fadd>
 8008b2c:	1c39      	adds	r1, r7, #0
 8008b2e:	9003      	str	r0, [sp, #12]
 8008b30:	9801      	ldr	r0, [sp, #4]
 8008b32:	f7f7 fe8f 	bl	8000854 <__aeabi_fdiv>
 8008b36:	1c01      	adds	r1, r0, #0
 8008b38:	9803      	ldr	r0, [sp, #12]
 8008b3a:	f7f8 f853 	bl	8000be4 <__aeabi_fmul>
 8008b3e:	0336      	lsls	r6, r6, #12
 8008b40:	1c07      	adds	r7, r0, #0
 8008b42:	1c31      	adds	r1, r6, #0
 8008b44:	1c30      	adds	r0, r6, #0
 8008b46:	f7f8 f84d 	bl	8000be4 <__aeabi_fmul>
 8008b4a:	1c01      	adds	r1, r0, #0
 8008b4c:	1c20      	adds	r0, r4, #0
 8008b4e:	f7f8 f96f 	bl	8000e30 <__aeabi_fsub>
 8008b52:	1c31      	adds	r1, r6, #0
 8008b54:	1c04      	adds	r4, r0, #0
 8008b56:	1c28      	adds	r0, r5, #0
 8008b58:	f7f7 fcde 	bl	8000518 <__aeabi_fadd>
 8008b5c:	1c01      	adds	r1, r0, #0
 8008b5e:	1c20      	adds	r0, r4, #0
 8008b60:	f7f7 fe78 	bl	8000854 <__aeabi_fdiv>
 8008b64:	1c01      	adds	r1, r0, #0
 8008b66:	f7f7 fcd7 	bl	8000518 <__aeabi_fadd>
 8008b6a:	1c01      	adds	r1, r0, #0
 8008b6c:	480c      	ldr	r0, [pc, #48]	; (8008ba0 <__ieee754_asinf+0x254>)
 8008b6e:	f7f8 f95f 	bl	8000e30 <__aeabi_fsub>
 8008b72:	1c01      	adds	r1, r0, #0
 8008b74:	1c38      	adds	r0, r7, #0
 8008b76:	f7f8 f95b 	bl	8000e30 <__aeabi_fsub>
 8008b7a:	1c31      	adds	r1, r6, #0
 8008b7c:	1c04      	adds	r4, r0, #0
 8008b7e:	1c30      	adds	r0, r6, #0
 8008b80:	f7f7 fcca 	bl	8000518 <__aeabi_fadd>
 8008b84:	1c01      	adds	r1, r0, #0
 8008b86:	4814      	ldr	r0, [pc, #80]	; (8008bd8 <__ieee754_asinf+0x28c>)
 8008b88:	f7f8 f952 	bl	8000e30 <__aeabi_fsub>
 8008b8c:	1c01      	adds	r1, r0, #0
 8008b8e:	1c20      	adds	r0, r4, #0
 8008b90:	f7f8 f94e 	bl	8000e30 <__aeabi_fsub>
 8008b94:	1c01      	adds	r1, r0, #0
 8008b96:	4810      	ldr	r0, [pc, #64]	; (8008bd8 <__ieee754_asinf+0x28c>)
 8008b98:	e76f      	b.n	8008a7a <__ieee754_asinf+0x12e>
 8008b9a:	46c0      	nop			; (mov r8, r8)
 8008b9c:	3fc90fdb 	.word	0x3fc90fdb
 8008ba0:	b33bbd2e 	.word	0xb33bbd2e
 8008ba4:	7149f2ca 	.word	0x7149f2ca
 8008ba8:	3811ef08 	.word	0x3811ef08
 8008bac:	3a4f7f04 	.word	0x3a4f7f04
 8008bb0:	3d241146 	.word	0x3d241146
 8008bb4:	3e4e0aa8 	.word	0x3e4e0aa8
 8008bb8:	3ea6b090 	.word	0x3ea6b090
 8008bbc:	3e2aaaab 	.word	0x3e2aaaab
 8008bc0:	3d9dc62e 	.word	0x3d9dc62e
 8008bc4:	3f303361 	.word	0x3f303361
 8008bc8:	4001572d 	.word	0x4001572d
 8008bcc:	4019d139 	.word	0x4019d139
 8008bd0:	3f799999 	.word	0x3f799999
 8008bd4:	333bbd2e 	.word	0x333bbd2e
 8008bd8:	3f490fdb 	.word	0x3f490fdb

08008bdc <__ieee754_atan2f>:
 8008bdc:	b5f7      	push	{r0, r1, r2, r4, r5, r6, r7, lr}
 8008bde:	25ff      	movs	r5, #255	; 0xff
 8008be0:	004a      	lsls	r2, r1, #1
 8008be2:	9101      	str	r1, [sp, #4]
 8008be4:	0852      	lsrs	r2, r2, #1
 8008be6:	05ed      	lsls	r5, r5, #23
 8008be8:	42aa      	cmp	r2, r5
 8008bea:	dc04      	bgt.n	8008bf6 <__ieee754_atan2f+0x1a>
 8008bec:	0043      	lsls	r3, r0, #1
 8008bee:	0007      	movs	r7, r0
 8008bf0:	085b      	lsrs	r3, r3, #1
 8008bf2:	42ab      	cmp	r3, r5
 8008bf4:	dd02      	ble.n	8008bfc <__ieee754_atan2f+0x20>
 8008bf6:	f7f7 fc8f 	bl	8000518 <__aeabi_fadd>
 8008bfa:	bdfe      	pop	{r1, r2, r3, r4, r5, r6, r7, pc}
 8008bfc:	24fe      	movs	r4, #254	; 0xfe
 8008bfe:	05a4      	lsls	r4, r4, #22
 8008c00:	42a1      	cmp	r1, r4
 8008c02:	d102      	bne.n	8008c0a <__ieee754_atan2f+0x2e>
 8008c04:	f000 f8be 	bl	8008d84 <atanf>
 8008c08:	e7f7      	b.n	8008bfa <__ieee754_atan2f+0x1e>
 8008c0a:	2602      	movs	r6, #2
 8008c0c:	178c      	asrs	r4, r1, #30
 8008c0e:	4034      	ands	r4, r6
 8008c10:	0fc6      	lsrs	r6, r0, #31
 8008c12:	4334      	orrs	r4, r6
 8008c14:	2b00      	cmp	r3, #0
 8008c16:	d105      	bne.n	8008c24 <__ieee754_atan2f+0x48>
 8008c18:	2c02      	cmp	r4, #2
 8008c1a:	d045      	beq.n	8008ca8 <__ieee754_atan2f+0xcc>
 8008c1c:	2c03      	cmp	r4, #3
 8008c1e:	d1ec      	bne.n	8008bfa <__ieee754_atan2f+0x1e>
 8008c20:	4824      	ldr	r0, [pc, #144]	; (8008cb4 <__ieee754_atan2f+0xd8>)
 8008c22:	e7ea      	b.n	8008bfa <__ieee754_atan2f+0x1e>
 8008c24:	2a00      	cmp	r2, #0
 8008c26:	d103      	bne.n	8008c30 <__ieee754_atan2f+0x54>
 8008c28:	2f00      	cmp	r7, #0
 8008c2a:	da41      	bge.n	8008cb0 <__ieee754_atan2f+0xd4>
 8008c2c:	4822      	ldr	r0, [pc, #136]	; (8008cb8 <__ieee754_atan2f+0xdc>)
 8008c2e:	e7e4      	b.n	8008bfa <__ieee754_atan2f+0x1e>
 8008c30:	42aa      	cmp	r2, r5
 8008c32:	d10e      	bne.n	8008c52 <__ieee754_atan2f+0x76>
 8008c34:	3c01      	subs	r4, #1
 8008c36:	4293      	cmp	r3, r2
 8008c38:	d105      	bne.n	8008c46 <__ieee754_atan2f+0x6a>
 8008c3a:	2c02      	cmp	r4, #2
 8008c3c:	d836      	bhi.n	8008cac <__ieee754_atan2f+0xd0>
 8008c3e:	4b1f      	ldr	r3, [pc, #124]	; (8008cbc <__ieee754_atan2f+0xe0>)
 8008c40:	00a4      	lsls	r4, r4, #2
 8008c42:	58e0      	ldr	r0, [r4, r3]
 8008c44:	e7d9      	b.n	8008bfa <__ieee754_atan2f+0x1e>
 8008c46:	2000      	movs	r0, #0
 8008c48:	2c02      	cmp	r4, #2
 8008c4a:	d8d6      	bhi.n	8008bfa <__ieee754_atan2f+0x1e>
 8008c4c:	4b1c      	ldr	r3, [pc, #112]	; (8008cc0 <__ieee754_atan2f+0xe4>)
 8008c4e:	00a4      	lsls	r4, r4, #2
 8008c50:	e7f7      	b.n	8008c42 <__ieee754_atan2f+0x66>
 8008c52:	42ab      	cmp	r3, r5
 8008c54:	d0e8      	beq.n	8008c28 <__ieee754_atan2f+0x4c>
 8008c56:	1a9b      	subs	r3, r3, r2
 8008c58:	15db      	asrs	r3, r3, #23
 8008c5a:	2b3c      	cmp	r3, #60	; 0x3c
 8008c5c:	dc14      	bgt.n	8008c88 <__ieee754_atan2f+0xac>
 8008c5e:	2900      	cmp	r1, #0
 8008c60:	da01      	bge.n	8008c66 <__ieee754_atan2f+0x8a>
 8008c62:	333c      	adds	r3, #60	; 0x3c
 8008c64:	db12      	blt.n	8008c8c <__ieee754_atan2f+0xb0>
 8008c66:	f7f7 fdf5 	bl	8000854 <__aeabi_fdiv>
 8008c6a:	f000 f99b 	bl	8008fa4 <fabsf>
 8008c6e:	f000 f889 	bl	8008d84 <atanf>
 8008c72:	2c01      	cmp	r4, #1
 8008c74:	d00c      	beq.n	8008c90 <__ieee754_atan2f+0xb4>
 8008c76:	2c02      	cmp	r4, #2
 8008c78:	d00e      	beq.n	8008c98 <__ieee754_atan2f+0xbc>
 8008c7a:	2c00      	cmp	r4, #0
 8008c7c:	d0bd      	beq.n	8008bfa <__ieee754_atan2f+0x1e>
 8008c7e:	4911      	ldr	r1, [pc, #68]	; (8008cc4 <__ieee754_atan2f+0xe8>)
 8008c80:	f7f7 fc4a 	bl	8000518 <__aeabi_fadd>
 8008c84:	4910      	ldr	r1, [pc, #64]	; (8008cc8 <__ieee754_atan2f+0xec>)
 8008c86:	e00c      	b.n	8008ca2 <__ieee754_atan2f+0xc6>
 8008c88:	4810      	ldr	r0, [pc, #64]	; (8008ccc <__ieee754_atan2f+0xf0>)
 8008c8a:	e7f2      	b.n	8008c72 <__ieee754_atan2f+0x96>
 8008c8c:	2000      	movs	r0, #0
 8008c8e:	e7f0      	b.n	8008c72 <__ieee754_atan2f+0x96>
 8008c90:	2380      	movs	r3, #128	; 0x80
 8008c92:	061b      	lsls	r3, r3, #24
 8008c94:	18c0      	adds	r0, r0, r3
 8008c96:	e7b0      	b.n	8008bfa <__ieee754_atan2f+0x1e>
 8008c98:	490a      	ldr	r1, [pc, #40]	; (8008cc4 <__ieee754_atan2f+0xe8>)
 8008c9a:	f7f7 fc3d 	bl	8000518 <__aeabi_fadd>
 8008c9e:	1c01      	adds	r1, r0, #0
 8008ca0:	4809      	ldr	r0, [pc, #36]	; (8008cc8 <__ieee754_atan2f+0xec>)
 8008ca2:	f7f8 f8c5 	bl	8000e30 <__aeabi_fsub>
 8008ca6:	e7a8      	b.n	8008bfa <__ieee754_atan2f+0x1e>
 8008ca8:	4807      	ldr	r0, [pc, #28]	; (8008cc8 <__ieee754_atan2f+0xec>)
 8008caa:	e7a6      	b.n	8008bfa <__ieee754_atan2f+0x1e>
 8008cac:	4808      	ldr	r0, [pc, #32]	; (8008cd0 <__ieee754_atan2f+0xf4>)
 8008cae:	e7a4      	b.n	8008bfa <__ieee754_atan2f+0x1e>
 8008cb0:	4806      	ldr	r0, [pc, #24]	; (8008ccc <__ieee754_atan2f+0xf0>)
 8008cb2:	e7a2      	b.n	8008bfa <__ieee754_atan2f+0x1e>
 8008cb4:	c0490fdb 	.word	0xc0490fdb
 8008cb8:	bfc90fdb 	.word	0xbfc90fdb
 8008cbc:	080095f4 	.word	0x080095f4
 8008cc0:	08009600 	.word	0x08009600
 8008cc4:	33bbbd2e 	.word	0x33bbbd2e
 8008cc8:	40490fdb 	.word	0x40490fdb
 8008ccc:	3fc90fdb 	.word	0x3fc90fdb
 8008cd0:	3f490fdb 	.word	0x3f490fdb

08008cd4 <__ieee754_sqrtf>:
 8008cd4:	0042      	lsls	r2, r0, #1
 8008cd6:	0003      	movs	r3, r0
 8008cd8:	b570      	push	{r4, r5, r6, lr}
 8008cda:	1c04      	adds	r4, r0, #0
 8008cdc:	20ff      	movs	r0, #255	; 0xff
 8008cde:	0852      	lsrs	r2, r2, #1
 8008ce0:	05c0      	lsls	r0, r0, #23
 8008ce2:	4282      	cmp	r2, r0
 8008ce4:	d30a      	bcc.n	8008cfc <__ieee754_sqrtf+0x28>
 8008ce6:	1c21      	adds	r1, r4, #0
 8008ce8:	1c20      	adds	r0, r4, #0
 8008cea:	f7f7 ff7b 	bl	8000be4 <__aeabi_fmul>
 8008cee:	1c01      	adds	r1, r0, #0
 8008cf0:	1c20      	adds	r0, r4, #0
 8008cf2:	f7f7 fc11 	bl	8000518 <__aeabi_fadd>
 8008cf6:	1c04      	adds	r4, r0, #0
 8008cf8:	1c20      	adds	r0, r4, #0
 8008cfa:	bd70      	pop	{r4, r5, r6, pc}
 8008cfc:	2a00      	cmp	r2, #0
 8008cfe:	d0fb      	beq.n	8008cf8 <__ieee754_sqrtf+0x24>
 8008d00:	2c00      	cmp	r4, #0
 8008d02:	da07      	bge.n	8008d14 <__ieee754_sqrtf+0x40>
 8008d04:	1c21      	adds	r1, r4, #0
 8008d06:	1c20      	adds	r0, r4, #0
 8008d08:	f7f8 f892 	bl	8000e30 <__aeabi_fsub>
 8008d0c:	1c01      	adds	r1, r0, #0
 8008d0e:	f7f7 fda1 	bl	8000854 <__aeabi_fdiv>
 8008d12:	e7f0      	b.n	8008cf6 <__ieee754_sqrtf+0x22>
 8008d14:	0022      	movs	r2, r4
 8008d16:	15e1      	asrs	r1, r4, #23
 8008d18:	4002      	ands	r2, r0
 8008d1a:	4204      	tst	r4, r0
 8008d1c:	d02e      	beq.n	8008d7c <__ieee754_sqrtf+0xa8>
 8008d1e:	2280      	movs	r2, #128	; 0x80
 8008d20:	000c      	movs	r4, r1
 8008d22:	025b      	lsls	r3, r3, #9
 8008d24:	0a5b      	lsrs	r3, r3, #9
 8008d26:	0412      	lsls	r2, r2, #16
 8008d28:	3c7f      	subs	r4, #127	; 0x7f
 8008d2a:	4313      	orrs	r3, r2
 8008d2c:	07ca      	lsls	r2, r1, #31
 8008d2e:	d400      	bmi.n	8008d32 <__ieee754_sqrtf+0x5e>
 8008d30:	005b      	lsls	r3, r3, #1
 8008d32:	2200      	movs	r2, #0
 8008d34:	2180      	movs	r1, #128	; 0x80
 8008d36:	2019      	movs	r0, #25
 8008d38:	0016      	movs	r6, r2
 8008d3a:	1064      	asrs	r4, r4, #1
 8008d3c:	005b      	lsls	r3, r3, #1
 8008d3e:	0449      	lsls	r1, r1, #17
 8008d40:	1875      	adds	r5, r6, r1
 8008d42:	429d      	cmp	r5, r3
 8008d44:	dc02      	bgt.n	8008d4c <__ieee754_sqrtf+0x78>
 8008d46:	186e      	adds	r6, r5, r1
 8008d48:	1b5b      	subs	r3, r3, r5
 8008d4a:	1852      	adds	r2, r2, r1
 8008d4c:	3801      	subs	r0, #1
 8008d4e:	005b      	lsls	r3, r3, #1
 8008d50:	0849      	lsrs	r1, r1, #1
 8008d52:	2800      	cmp	r0, #0
 8008d54:	d1f4      	bne.n	8008d40 <__ieee754_sqrtf+0x6c>
 8008d56:	2b00      	cmp	r3, #0
 8008d58:	d002      	beq.n	8008d60 <__ieee754_sqrtf+0x8c>
 8008d5a:	2301      	movs	r3, #1
 8008d5c:	3201      	adds	r2, #1
 8008d5e:	439a      	bics	r2, r3
 8008d60:	23fc      	movs	r3, #252	; 0xfc
 8008d62:	1052      	asrs	r2, r2, #1
 8008d64:	059b      	lsls	r3, r3, #22
 8008d66:	18d2      	adds	r2, r2, r3
 8008d68:	05e4      	lsls	r4, r4, #23
 8008d6a:	18a4      	adds	r4, r4, r2
 8008d6c:	e7c4      	b.n	8008cf8 <__ieee754_sqrtf+0x24>
 8008d6e:	005b      	lsls	r3, r3, #1
 8008d70:	3201      	adds	r2, #1
 8008d72:	4203      	tst	r3, r0
 8008d74:	d0fb      	beq.n	8008d6e <__ieee754_sqrtf+0x9a>
 8008d76:	3a01      	subs	r2, #1
 8008d78:	1a89      	subs	r1, r1, r2
 8008d7a:	e7d0      	b.n	8008d1e <__ieee754_sqrtf+0x4a>
 8008d7c:	2080      	movs	r0, #128	; 0x80
 8008d7e:	0400      	lsls	r0, r0, #16
 8008d80:	e7f7      	b.n	8008d72 <__ieee754_sqrtf+0x9e>
	...

08008d84 <atanf>:
 8008d84:	23a1      	movs	r3, #161	; 0xa1
 8008d86:	b5f7      	push	{r0, r1, r2, r4, r5, r6, r7, lr}
 8008d88:	0045      	lsls	r5, r0, #1
 8008d8a:	1c04      	adds	r4, r0, #0
 8008d8c:	9001      	str	r0, [sp, #4]
 8008d8e:	086d      	lsrs	r5, r5, #1
 8008d90:	05db      	lsls	r3, r3, #23
 8008d92:	429d      	cmp	r5, r3
 8008d94:	db0f      	blt.n	8008db6 <atanf+0x32>
 8008d96:	23ff      	movs	r3, #255	; 0xff
 8008d98:	05db      	lsls	r3, r3, #23
 8008d9a:	429d      	cmp	r5, r3
 8008d9c:	dd04      	ble.n	8008da8 <atanf+0x24>
 8008d9e:	1c01      	adds	r1, r0, #0
 8008da0:	f7f7 fbba 	bl	8000518 <__aeabi_fadd>
 8008da4:	1c04      	adds	r4, r0, #0
 8008da6:	e004      	b.n	8008db2 <atanf+0x2e>
 8008da8:	9b01      	ldr	r3, [sp, #4]
 8008daa:	2b00      	cmp	r3, #0
 8008dac:	dd00      	ble.n	8008db0 <atanf+0x2c>
 8008dae:	e0cc      	b.n	8008f4a <atanf+0x1c6>
 8008db0:	4c67      	ldr	r4, [pc, #412]	; (8008f50 <atanf+0x1cc>)
 8008db2:	1c20      	adds	r0, r4, #0
 8008db4:	bdfe      	pop	{r1, r2, r3, r4, r5, r6, r7, pc}
 8008db6:	4b67      	ldr	r3, [pc, #412]	; (8008f54 <atanf+0x1d0>)
 8008db8:	429d      	cmp	r5, r3
 8008dba:	dc0f      	bgt.n	8008ddc <atanf+0x58>
 8008dbc:	23c4      	movs	r3, #196	; 0xc4
 8008dbe:	059b      	lsls	r3, r3, #22
 8008dc0:	429d      	cmp	r5, r3
 8008dc2:	da08      	bge.n	8008dd6 <atanf+0x52>
 8008dc4:	4964      	ldr	r1, [pc, #400]	; (8008f58 <atanf+0x1d4>)
 8008dc6:	f7f7 fba7 	bl	8000518 <__aeabi_fadd>
 8008dca:	21fe      	movs	r1, #254	; 0xfe
 8008dcc:	0589      	lsls	r1, r1, #22
 8008dce:	f7f7 fb8f 	bl	80004f0 <__aeabi_fcmpgt>
 8008dd2:	2800      	cmp	r0, #0
 8008dd4:	d1ed      	bne.n	8008db2 <atanf+0x2e>
 8008dd6:	2601      	movs	r6, #1
 8008dd8:	4276      	negs	r6, r6
 8008dda:	e01b      	b.n	8008e14 <atanf+0x90>
 8008ddc:	f000 f8e2 	bl	8008fa4 <fabsf>
 8008de0:	4b5e      	ldr	r3, [pc, #376]	; (8008f5c <atanf+0x1d8>)
 8008de2:	1c04      	adds	r4, r0, #0
 8008de4:	429d      	cmp	r5, r3
 8008de6:	dc7b      	bgt.n	8008ee0 <atanf+0x15c>
 8008de8:	4b5d      	ldr	r3, [pc, #372]	; (8008f60 <atanf+0x1dc>)
 8008dea:	429d      	cmp	r5, r3
 8008dec:	dc67      	bgt.n	8008ebe <atanf+0x13a>
 8008dee:	1c01      	adds	r1, r0, #0
 8008df0:	f7f7 fb92 	bl	8000518 <__aeabi_fadd>
 8008df4:	21fe      	movs	r1, #254	; 0xfe
 8008df6:	0589      	lsls	r1, r1, #22
 8008df8:	f7f8 f81a 	bl	8000e30 <__aeabi_fsub>
 8008dfc:	2180      	movs	r1, #128	; 0x80
 8008dfe:	1c05      	adds	r5, r0, #0
 8008e00:	05c9      	lsls	r1, r1, #23
 8008e02:	1c20      	adds	r0, r4, #0
 8008e04:	f7f7 fb88 	bl	8000518 <__aeabi_fadd>
 8008e08:	1c01      	adds	r1, r0, #0
 8008e0a:	1c28      	adds	r0, r5, #0
 8008e0c:	f7f7 fd22 	bl	8000854 <__aeabi_fdiv>
 8008e10:	2600      	movs	r6, #0
 8008e12:	1c04      	adds	r4, r0, #0
 8008e14:	1c21      	adds	r1, r4, #0
 8008e16:	1c20      	adds	r0, r4, #0
 8008e18:	f7f7 fee4 	bl	8000be4 <__aeabi_fmul>
 8008e1c:	1c01      	adds	r1, r0, #0
 8008e1e:	1c07      	adds	r7, r0, #0
 8008e20:	f7f7 fee0 	bl	8000be4 <__aeabi_fmul>
 8008e24:	494f      	ldr	r1, [pc, #316]	; (8008f64 <atanf+0x1e0>)
 8008e26:	1c05      	adds	r5, r0, #0
 8008e28:	f7f7 fedc 	bl	8000be4 <__aeabi_fmul>
 8008e2c:	494e      	ldr	r1, [pc, #312]	; (8008f68 <atanf+0x1e4>)
 8008e2e:	f7f7 fb73 	bl	8000518 <__aeabi_fadd>
 8008e32:	1c29      	adds	r1, r5, #0
 8008e34:	f7f7 fed6 	bl	8000be4 <__aeabi_fmul>
 8008e38:	494c      	ldr	r1, [pc, #304]	; (8008f6c <atanf+0x1e8>)
 8008e3a:	f7f7 fb6d 	bl	8000518 <__aeabi_fadd>
 8008e3e:	1c29      	adds	r1, r5, #0
 8008e40:	f7f7 fed0 	bl	8000be4 <__aeabi_fmul>
 8008e44:	494a      	ldr	r1, [pc, #296]	; (8008f70 <atanf+0x1ec>)
 8008e46:	f7f7 fb67 	bl	8000518 <__aeabi_fadd>
 8008e4a:	1c29      	adds	r1, r5, #0
 8008e4c:	f7f7 feca 	bl	8000be4 <__aeabi_fmul>
 8008e50:	4948      	ldr	r1, [pc, #288]	; (8008f74 <atanf+0x1f0>)
 8008e52:	f7f7 fb61 	bl	8000518 <__aeabi_fadd>
 8008e56:	1c29      	adds	r1, r5, #0
 8008e58:	f7f7 fec4 	bl	8000be4 <__aeabi_fmul>
 8008e5c:	4946      	ldr	r1, [pc, #280]	; (8008f78 <atanf+0x1f4>)
 8008e5e:	f7f7 fb5b 	bl	8000518 <__aeabi_fadd>
 8008e62:	1c39      	adds	r1, r7, #0
 8008e64:	f7f7 febe 	bl	8000be4 <__aeabi_fmul>
 8008e68:	4944      	ldr	r1, [pc, #272]	; (8008f7c <atanf+0x1f8>)
 8008e6a:	1c07      	adds	r7, r0, #0
 8008e6c:	1c28      	adds	r0, r5, #0
 8008e6e:	f7f7 feb9 	bl	8000be4 <__aeabi_fmul>
 8008e72:	4943      	ldr	r1, [pc, #268]	; (8008f80 <atanf+0x1fc>)
 8008e74:	f7f7 ffdc 	bl	8000e30 <__aeabi_fsub>
 8008e78:	1c29      	adds	r1, r5, #0
 8008e7a:	f7f7 feb3 	bl	8000be4 <__aeabi_fmul>
 8008e7e:	4941      	ldr	r1, [pc, #260]	; (8008f84 <atanf+0x200>)
 8008e80:	f7f7 ffd6 	bl	8000e30 <__aeabi_fsub>
 8008e84:	1c29      	adds	r1, r5, #0
 8008e86:	f7f7 fead 	bl	8000be4 <__aeabi_fmul>
 8008e8a:	493f      	ldr	r1, [pc, #252]	; (8008f88 <atanf+0x204>)
 8008e8c:	f7f7 ffd0 	bl	8000e30 <__aeabi_fsub>
 8008e90:	1c29      	adds	r1, r5, #0
 8008e92:	f7f7 fea7 	bl	8000be4 <__aeabi_fmul>
 8008e96:	493d      	ldr	r1, [pc, #244]	; (8008f8c <atanf+0x208>)
 8008e98:	f7f7 ffca 	bl	8000e30 <__aeabi_fsub>
 8008e9c:	1c29      	adds	r1, r5, #0
 8008e9e:	f7f7 fea1 	bl	8000be4 <__aeabi_fmul>
 8008ea2:	1c01      	adds	r1, r0, #0
 8008ea4:	1c38      	adds	r0, r7, #0
 8008ea6:	f7f7 fb37 	bl	8000518 <__aeabi_fadd>
 8008eaa:	1c21      	adds	r1, r4, #0
 8008eac:	f7f7 fe9a 	bl	8000be4 <__aeabi_fmul>
 8008eb0:	1c73      	adds	r3, r6, #1
 8008eb2:	d134      	bne.n	8008f1e <atanf+0x19a>
 8008eb4:	1c01      	adds	r1, r0, #0
 8008eb6:	1c20      	adds	r0, r4, #0
 8008eb8:	f7f7 ffba 	bl	8000e30 <__aeabi_fsub>
 8008ebc:	e772      	b.n	8008da4 <atanf+0x20>
 8008ebe:	21fe      	movs	r1, #254	; 0xfe
 8008ec0:	0589      	lsls	r1, r1, #22
 8008ec2:	f7f7 ffb5 	bl	8000e30 <__aeabi_fsub>
 8008ec6:	21fe      	movs	r1, #254	; 0xfe
 8008ec8:	1c05      	adds	r5, r0, #0
 8008eca:	0589      	lsls	r1, r1, #22
 8008ecc:	1c20      	adds	r0, r4, #0
 8008ece:	f7f7 fb23 	bl	8000518 <__aeabi_fadd>
 8008ed2:	1c01      	adds	r1, r0, #0
 8008ed4:	1c28      	adds	r0, r5, #0
 8008ed6:	f7f7 fcbd 	bl	8000854 <__aeabi_fdiv>
 8008eda:	2601      	movs	r6, #1
 8008edc:	1c04      	adds	r4, r0, #0
 8008ede:	e799      	b.n	8008e14 <atanf+0x90>
 8008ee0:	4b2b      	ldr	r3, [pc, #172]	; (8008f90 <atanf+0x20c>)
 8008ee2:	429d      	cmp	r5, r3
 8008ee4:	dc14      	bgt.n	8008f10 <atanf+0x18c>
 8008ee6:	21ff      	movs	r1, #255	; 0xff
 8008ee8:	0589      	lsls	r1, r1, #22
 8008eea:	f7f7 ffa1 	bl	8000e30 <__aeabi_fsub>
 8008eee:	21ff      	movs	r1, #255	; 0xff
 8008ef0:	1c05      	adds	r5, r0, #0
 8008ef2:	0589      	lsls	r1, r1, #22
 8008ef4:	1c20      	adds	r0, r4, #0
 8008ef6:	f7f7 fe75 	bl	8000be4 <__aeabi_fmul>
 8008efa:	21fe      	movs	r1, #254	; 0xfe
 8008efc:	0589      	lsls	r1, r1, #22
 8008efe:	f7f7 fb0b 	bl	8000518 <__aeabi_fadd>
 8008f02:	1c01      	adds	r1, r0, #0
 8008f04:	1c28      	adds	r0, r5, #0
 8008f06:	f7f7 fca5 	bl	8000854 <__aeabi_fdiv>
 8008f0a:	2602      	movs	r6, #2
 8008f0c:	1c04      	adds	r4, r0, #0
 8008f0e:	e781      	b.n	8008e14 <atanf+0x90>
 8008f10:	1c01      	adds	r1, r0, #0
 8008f12:	4820      	ldr	r0, [pc, #128]	; (8008f94 <atanf+0x210>)
 8008f14:	f7f7 fc9e 	bl	8000854 <__aeabi_fdiv>
 8008f18:	2603      	movs	r6, #3
 8008f1a:	1c04      	adds	r4, r0, #0
 8008f1c:	e77a      	b.n	8008e14 <atanf+0x90>
 8008f1e:	4b1e      	ldr	r3, [pc, #120]	; (8008f98 <atanf+0x214>)
 8008f20:	00b6      	lsls	r6, r6, #2
 8008f22:	58f1      	ldr	r1, [r6, r3]
 8008f24:	f7f7 ff84 	bl	8000e30 <__aeabi_fsub>
 8008f28:	1c21      	adds	r1, r4, #0
 8008f2a:	f7f7 ff81 	bl	8000e30 <__aeabi_fsub>
 8008f2e:	4b1b      	ldr	r3, [pc, #108]	; (8008f9c <atanf+0x218>)
 8008f30:	1c01      	adds	r1, r0, #0
 8008f32:	58f0      	ldr	r0, [r6, r3]
 8008f34:	f7f7 ff7c 	bl	8000e30 <__aeabi_fsub>
 8008f38:	9b01      	ldr	r3, [sp, #4]
 8008f3a:	1c04      	adds	r4, r0, #0
 8008f3c:	2b00      	cmp	r3, #0
 8008f3e:	db00      	blt.n	8008f42 <atanf+0x1be>
 8008f40:	e737      	b.n	8008db2 <atanf+0x2e>
 8008f42:	2380      	movs	r3, #128	; 0x80
 8008f44:	061b      	lsls	r3, r3, #24
 8008f46:	18c4      	adds	r4, r0, r3
 8008f48:	e733      	b.n	8008db2 <atanf+0x2e>
 8008f4a:	4c15      	ldr	r4, [pc, #84]	; (8008fa0 <atanf+0x21c>)
 8008f4c:	e731      	b.n	8008db2 <atanf+0x2e>
 8008f4e:	46c0      	nop			; (mov r8, r8)
 8008f50:	bfc90fdb 	.word	0xbfc90fdb
 8008f54:	3edfffff 	.word	0x3edfffff
 8008f58:	7149f2ca 	.word	0x7149f2ca
 8008f5c:	3f97ffff 	.word	0x3f97ffff
 8008f60:	3f2fffff 	.word	0x3f2fffff
 8008f64:	3c8569d7 	.word	0x3c8569d7
 8008f68:	3d4bda59 	.word	0x3d4bda59
 8008f6c:	3d886b35 	.word	0x3d886b35
 8008f70:	3dba2e6e 	.word	0x3dba2e6e
 8008f74:	3e124925 	.word	0x3e124925
 8008f78:	3eaaaaab 	.word	0x3eaaaaab
 8008f7c:	bd15a221 	.word	0xbd15a221
 8008f80:	3d6ef16b 	.word	0x3d6ef16b
 8008f84:	3d9d8795 	.word	0x3d9d8795
 8008f88:	3de38e38 	.word	0x3de38e38
 8008f8c:	3e4ccccd 	.word	0x3e4ccccd
 8008f90:	401bffff 	.word	0x401bffff
 8008f94:	bf800000 	.word	0xbf800000
 8008f98:	0800961c 	.word	0x0800961c
 8008f9c:	0800960c 	.word	0x0800960c
 8008fa0:	3fc90fdb 	.word	0x3fc90fdb

08008fa4 <fabsf>:
 8008fa4:	0040      	lsls	r0, r0, #1
 8008fa6:	0840      	lsrs	r0, r0, #1
 8008fa8:	4770      	bx	lr
	...

08008fac <nanf>:
 8008fac:	4800      	ldr	r0, [pc, #0]	; (8008fb0 <nanf+0x4>)
 8008fae:	4770      	bx	lr
 8008fb0:	7fc00000 	.word	0x7fc00000

08008fb4 <_init>:
 8008fb4:	b5f8      	push	{r3, r4, r5, r6, r7, lr}
 8008fb6:	46c0      	nop			; (mov r8, r8)
 8008fb8:	bcf8      	pop	{r3, r4, r5, r6, r7}
 8008fba:	bc08      	pop	{r3}
 8008fbc:	469e      	mov	lr, r3
 8008fbe:	4770      	bx	lr

08008fc0 <_fini>:
 8008fc0:	b5f8      	push	{r3, r4, r5, r6, r7, lr}
 8008fc2:	46c0      	nop			; (mov r8, r8)
 8008fc4:	bcf8      	pop	{r3, r4, r5, r6, r7}
 8008fc6:	bc08      	pop	{r3}
 8008fc8:	469e      	mov	lr, r3
 8008fca:	4770      	bx	lr
