   1              		.cpu cortex-m0
   2              		.fpu softvfp
   3              		.eabi_attribute 20, 1
   4              		.eabi_attribute 21, 1
   5              		.eabi_attribute 23, 3
   6              		.eabi_attribute 24, 1
   7              		.eabi_attribute 25, 1
   8              		.eabi_attribute 26, 1
   9              		.eabi_attribute 30, 6
  10              		.eabi_attribute 34, 0
  11              		.eabi_attribute 18, 4
  12              		.code	16
  13              		.file	"upload.c"
  14              		.text
  15              	.Ltext0:
  16              		.cfi_sections	.debug_frame
  17              		.comm	x3buffer,5560,4
  18              		.comm	g_pointer,12,4
  19              		.comm	g_config,92,4
  20              		.section	.rodata
  21              		.align	2
  22              	.LC0:
  23 0000 0A0A0D53 		.ascii	"\012\012\015Select Receive File ... (press any key "
  23      656C6563 
  23      74205265 
  23      63656976 
  23      65204669 
  24 002a 746F2061 		.ascii	"to abort)\012\015\000"
  24      626F7274 
  24      290A0D00 
  25 0036 0000     		.align	2
  26              	.LC2:
  27 0038 55706C6F 		.ascii	"UploadedFlashImage.bin\000"
  27      61646564 
  27      466C6173 
  27      68496D61 
  27      67652E62 
  28 004f 00       		.align	2
  29              	.LC4:
  30 0050 0A0D4572 		.ascii	"\012\015Error Occured while Transmitting File\012\015"
  30      726F7220 
  30      4F636375 
  30      72656420 
  30      7768696C 
  31 0079 00       		.ascii	"\000"
  32 007a 0000     		.align	2
  33              	.LC6:
  34 007c 0A0D4669 		.ascii	"\012\015File Trasmitted Successfully \012\015\000"
  34      6C652054 
  34      7261736D 
  34      69747465 
  34      64205375 
  35 009e 0000     		.align	2
  36              	.LC8:
  37 00a0 0D0A0A41 		.ascii	"\015\012\012Aborted by user.\012\015\000"
  37      626F7274 
  37      65642062 
  37      79207573 
  37      65722E0A 
  38              		.text
  39              		.align	2
  40              		.global	SerialUpload
  41              		.code	16
  42              		.thumb_func
  44              	SerialUpload:
  45              	.LFB33:
  46              		.file 1 "../scr/upload.c"
   1:../scr/upload.c **** /**
   2:../scr/upload.c ****   ******************************************************************************
   3:../scr/upload.c ****   * @file    IAP/src/upload.c 
   4:../scr/upload.c ****   * @author  MCD Application Team
   5:../scr/upload.c ****   * @version V3.3.0
   6:../scr/upload.c ****   * @date    10/15/2010
   7:../scr/upload.c ****   * @brief   This file provides the software which allows to upload an image 
   8:../scr/upload.c ****   *          from internal Flash.
   9:../scr/upload.c ****   ******************************************************************************
  10:../scr/upload.c ****   * @copy
  11:../scr/upload.c ****   *
  12:../scr/upload.c ****   * THE PRESENT FIRMWARE WHICH IS FOR GUIDANCE ONLY AIMS AT PROVIDING CUSTOMERS
  13:../scr/upload.c ****   * WITH CODING INFORMATION REGARDING THEIR PRODUCTS IN ORDER FOR THEM TO SAVE
  14:../scr/upload.c ****   * TIME. AS A RESULT, STMICROELECTRONICS SHALL NOT BE HELD LIABLE FOR ANY
  15:../scr/upload.c ****   * DIRECT, INDIRECT OR CONSEQUENTIAL DAMAGES WITH RESPECT TO ANY CLAIMS ARISING
  16:../scr/upload.c ****   * FROM THE CONTENT OF SUCH FIRMWARE AND/OR THE USE MADE BY CUSTOMERS OF THE
  17:../scr/upload.c ****   * CODING INFORMATION CONTAINED HEREIN IN CONNECTION WITH THEIR PRODUCTS.
  18:../scr/upload.c ****   *
  19:../scr/upload.c ****   * <h2><center>&copy; COPYRIGHT 2010 STMicroelectronics</center></h2>
  20:../scr/upload.c ****   */ 
  21:../scr/upload.c **** 
  22:../scr/upload.c **** /** @addtogroup IAP
  23:../scr/upload.c ****   * @{
  24:../scr/upload.c ****   */
  25:../scr/upload.c **** /* Includes ------------------------------------------------------------------*/
  26:../scr/upload.c **** #include "common.h"
  27:../scr/upload.c **** #include "main.h"
  28:../scr/upload.c **** /* Private typedef -----------------------------------------------------------*/
  29:../scr/upload.c **** /* Private define ------------------------------------------------------------*/
  30:../scr/upload.c **** /* Private macro -------------------------------------------------------------*/
  31:../scr/upload.c **** /* Private variables ---------------------------------------------------------*/
  32:../scr/upload.c **** /* Private function prototypes -----------------------------------------------*/
  33:../scr/upload.c **** /* Private functions ---------------------------------------------------------*/
  34:../scr/upload.c **** 
  35:../scr/upload.c **** /**
  36:../scr/upload.c ****   * @brief  Upload a file via serial port.
  37:../scr/upload.c ****   * @param  None
  38:../scr/upload.c ****   * @retval None
  39:../scr/upload.c ****   */
  40:../scr/upload.c **** void SerialUpload(void)
  41:../scr/upload.c **** {
  47              		.loc 1 41 0
  48              		.cfi_startproc
  49 0000 80B5     		push	{r7, lr}
  50              	.LCFI0:
  51              		.cfi_def_cfa_offset 8
  52              		.cfi_offset 7, -8
  53              		.cfi_offset 14, -4
  54 0002 82B0     		sub	sp, sp, #8
  55              	.LCFI1:
  56              		.cfi_def_cfa_offset 16
  57 0004 00AF     		add	r7, sp, #0
  58              	.LCFI2:
  59              		.cfi_def_cfa_register 7
  42:../scr/upload.c ****   uint32_t status = 0; 
  60              		.loc 1 42 0
  61 0006 0023     		mov	r3, #0
  62 0008 7B60     		str	r3, [r7, #4]
  43:../scr/upload.c **** 
  44:../scr/upload.c ****   SerialPutString("\n\n\rSelect Receive File ... (press any key to abort)\n\r");
  63              		.loc 1 44 0
  64 000a 144B     		ldr	r3, .L6
  65 000c 181C     		mov	r0, r3
  66 000e FFF7FEFF 		bl	SerialPutString
  45:../scr/upload.c **** 
  46:../scr/upload.c ****   if (GetKey() == CRC16)
  67              		.loc 1 46 0
  68 0012 FFF7FEFF 		bl	GetKey
  69 0016 031E     		sub	r3, r0, #0
  70 0018 432B     		cmp	r3, #67
  71 001a 17D1     		bne	.L2
  47:../scr/upload.c ****   {
  48:../scr/upload.c ****     /* Transmit the flash image through ymodem protocol */
  49:../scr/upload.c ****     status = Ymodem_Transmit((uint8_t*)ApplicationAddress, (const uint8_t*)"UploadedFlashImage.bin"
  72              		.loc 1 49 0
  73 001c 1049     		ldr	r1, .L6+4
  74 001e 114A     		ldr	r2, .L6+8
  75 0020 C823     		mov	r3, #200
  76 0022 DB01     		lsl	r3, r3, #7
  77 0024 081C     		mov	r0, r1
  78 0026 111C     		mov	r1, r2
  79 0028 1A1C     		mov	r2, r3
  80 002a FFF7FEFF 		bl	Ymodem_Transmit
  81 002e 031C     		mov	r3, r0
  82 0030 7B60     		str	r3, [r7, #4]
  50:../scr/upload.c **** 
  51:../scr/upload.c ****     if (status != 0) 
  83              		.loc 1 51 0
  84 0032 7B68     		ldr	r3, [r7, #4]
  85 0034 002B     		cmp	r3, #0
  86 0036 04D0     		beq	.L3
  52:../scr/upload.c ****     {
  53:../scr/upload.c ****       SerialPutString("\n\rError Occured while Transmitting File\n\r");
  87              		.loc 1 53 0
  88 0038 0B4B     		ldr	r3, .L6+12
  89 003a 181C     		mov	r0, r3
  90 003c FFF7FEFF 		bl	SerialPutString
  91 0040 08E0     		b	.L1
  92              	.L3:
  54:../scr/upload.c ****     }
  55:../scr/upload.c ****     else
  56:../scr/upload.c ****     {
  57:../scr/upload.c ****       SerialPutString("\n\rFile Trasmitted Successfully \n\r");
  93              		.loc 1 57 0
  94 0042 0A4B     		ldr	r3, .L6+16
  95 0044 181C     		mov	r0, r3
  96 0046 FFF7FEFF 		bl	SerialPutString
  97 004a 03E0     		b	.L1
  98              	.L2:
  58:../scr/upload.c ****     }
  59:../scr/upload.c ****   }
  60:../scr/upload.c ****   else
  61:../scr/upload.c ****   {
  62:../scr/upload.c ****     SerialPutString("\r\n\nAborted by user.\n\r");  
  99              		.loc 1 62 0
 100 004c 084B     		ldr	r3, .L6+20
 101 004e 181C     		mov	r0, r3
 102 0050 FFF7FEFF 		bl	SerialPutString
 103              	.L1:
  63:../scr/upload.c ****   }
  64:../scr/upload.c ****  
  65:../scr/upload.c **** }
 104              		.loc 1 65 0
 105 0054 BD46     		mov	sp, r7
 106 0056 02B0     		add	sp, sp, #8
 107              		@ sp needed
 108 0058 80BD     		pop	{r7, pc}
 109              	.L7:
 110 005a C046     		.align	2
 111              	.L6:
 112 005c 00000000 		.word	.LC0
 113 0060 00280008 		.word	134227968
 114 0064 38000000 		.word	.LC2
 115 0068 50000000 		.word	.LC4
 116 006c 7C000000 		.word	.LC6
 117 0070 A0000000 		.word	.LC8
 118              		.cfi_endproc
 119              	.LFE33:
 121              	.Letext0:
 122              		.file 2 "c:\\program files (x86)\\gnu tools arm embedded\\4.9 2015q3\\arm-none-eabi\\include\\mach
 123              		.file 3 "c:\\program files (x86)\\gnu tools arm embedded\\4.9 2015q3\\arm-none-eabi\\include\\sys\
 124              		.file 4 "../scr/DataUtil.h"
 125              		.file 5 "../scr/common.h"