   1              		.cpu cortex-m0
   2              		.fpu softvfp
   3              		.eabi_attribute 20, 1
   4              		.eabi_attribute 21, 1
   5              		.eabi_attribute 23, 3
   6              		.eabi_attribute 24, 1
   7              		.eabi_attribute 25, 1
   8              		.eabi_attribute 26, 1
   9              		.eabi_attribute 30, 4
  10              		.eabi_attribute 34, 0
  11              		.eabi_attribute 18, 4
  12              		.code	16
  13              		.file	"stm32f0xx_flash.c"
  14              		.text
  15              	.Ltext0:
  16              		.cfi_sections	.debug_frame
  17              		.section	.text.FLASH_SetLatency,"ax",%progbits
  18              		.align	1
  19              		.global	FLASH_SetLatency
  20              		.code	16
  21              		.thumb_func
  23              	FLASH_SetLatency:
  24              	.LFB33:
  25              		.file 1 "../Libraries/STM32F0xx_StdPeriph_Driver/src/stm32f0xx_flash.c"
   1:../Libraries/STM32F0xx_StdPeriph_Driver/src/stm32f0xx_flash.c **** /**
   2:../Libraries/STM32F0xx_StdPeriph_Driver/src/stm32f0xx_flash.c ****   ******************************************************************************
   3:../Libraries/STM32F0xx_StdPeriph_Driver/src/stm32f0xx_flash.c ****   * @file    stm32f0xx_flash.c
   4:../Libraries/STM32F0xx_StdPeriph_Driver/src/stm32f0xx_flash.c ****   * @author  MCD Application Team
   5:../Libraries/STM32F0xx_StdPeriph_Driver/src/stm32f0xx_flash.c ****   * @version V1.5.0
   6:../Libraries/STM32F0xx_StdPeriph_Driver/src/stm32f0xx_flash.c ****   * @date    05-December-2014
   7:../Libraries/STM32F0xx_StdPeriph_Driver/src/stm32f0xx_flash.c ****   * @brief   This file provides firmware functions to manage the following 
   8:../Libraries/STM32F0xx_StdPeriph_Driver/src/stm32f0xx_flash.c ****   *          functionalities of the FLASH peripheral:
   9:../Libraries/STM32F0xx_StdPeriph_Driver/src/stm32f0xx_flash.c ****   *            - FLASH Interface configuration
  10:../Libraries/STM32F0xx_StdPeriph_Driver/src/stm32f0xx_flash.c ****   *            - FLASH Memory Programming
  11:../Libraries/STM32F0xx_StdPeriph_Driver/src/stm32f0xx_flash.c ****   *            - Option Bytes Programming
  12:../Libraries/STM32F0xx_StdPeriph_Driver/src/stm32f0xx_flash.c ****   *            - Interrupts and flags management
  13:../Libraries/STM32F0xx_StdPeriph_Driver/src/stm32f0xx_flash.c ****   *
  14:../Libraries/STM32F0xx_StdPeriph_Driver/src/stm32f0xx_flash.c ****   *  @verbatim
  15:../Libraries/STM32F0xx_StdPeriph_Driver/src/stm32f0xx_flash.c ****  ===============================================================================
  16:../Libraries/STM32F0xx_StdPeriph_Driver/src/stm32f0xx_flash.c ****                     ##### How to use this driver #####
  17:../Libraries/STM32F0xx_StdPeriph_Driver/src/stm32f0xx_flash.c ****  ===============================================================================
  18:../Libraries/STM32F0xx_StdPeriph_Driver/src/stm32f0xx_flash.c ****     [..] This driver provides functions to configure and program the Flash 
  19:../Libraries/STM32F0xx_StdPeriph_Driver/src/stm32f0xx_flash.c ****          memory of all STM32F0xx devices. These functions are split in 4 groups
  20:../Libraries/STM32F0xx_StdPeriph_Driver/src/stm32f0xx_flash.c ****          (#) FLASH Interface configuration functions: this group includes the 
  21:../Libraries/STM32F0xx_StdPeriph_Driver/src/stm32f0xx_flash.c ****              management of following features:
  22:../Libraries/STM32F0xx_StdPeriph_Driver/src/stm32f0xx_flash.c ****              (++) Set the latency
  23:../Libraries/STM32F0xx_StdPeriph_Driver/src/stm32f0xx_flash.c ****              (++) Enable/Disable the prefetch buffer
  24:../Libraries/STM32F0xx_StdPeriph_Driver/src/stm32f0xx_flash.c **** 
  25:../Libraries/STM32F0xx_StdPeriph_Driver/src/stm32f0xx_flash.c ****          (#) FLASH Memory Programming functions: this group includes all needed 
  26:../Libraries/STM32F0xx_StdPeriph_Driver/src/stm32f0xx_flash.c ****              functions to erase and program the main memory:
  27:../Libraries/STM32F0xx_StdPeriph_Driver/src/stm32f0xx_flash.c ****              (++) Lock and Unlock the Flash interface.
  28:../Libraries/STM32F0xx_StdPeriph_Driver/src/stm32f0xx_flash.c ****              (++) Erase function: Erase Page, erase all pages.
  29:../Libraries/STM32F0xx_StdPeriph_Driver/src/stm32f0xx_flash.c ****              (++) Program functions: Half Word and Word write.
  30:../Libraries/STM32F0xx_StdPeriph_Driver/src/stm32f0xx_flash.c **** 
  31:../Libraries/STM32F0xx_StdPeriph_Driver/src/stm32f0xx_flash.c ****          (#) FLASH Option Bytes Programming functions: this group includes all 
  32:../Libraries/STM32F0xx_StdPeriph_Driver/src/stm32f0xx_flash.c ****              needed functions to:
  33:../Libraries/STM32F0xx_StdPeriph_Driver/src/stm32f0xx_flash.c ****              (++) Lock and Unlock the Flash Option bytes.
  34:../Libraries/STM32F0xx_StdPeriph_Driver/src/stm32f0xx_flash.c ****              (++) Launch the Option Bytes loader
  35:../Libraries/STM32F0xx_StdPeriph_Driver/src/stm32f0xx_flash.c ****              (++) Erase the Option Bytes
  36:../Libraries/STM32F0xx_StdPeriph_Driver/src/stm32f0xx_flash.c ****              (++)Set/Reset the write protection
  37:../Libraries/STM32F0xx_StdPeriph_Driver/src/stm32f0xx_flash.c ****              (++) Set the Read protection Level
  38:../Libraries/STM32F0xx_StdPeriph_Driver/src/stm32f0xx_flash.c ****              (++) Program the user option Bytes
  39:../Libraries/STM32F0xx_StdPeriph_Driver/src/stm32f0xx_flash.c ****              (++) Set/Reset the BOOT1 bit
  40:../Libraries/STM32F0xx_StdPeriph_Driver/src/stm32f0xx_flash.c ****              (++) Enable/Disable the VDDA Analog Monitoring
  41:../Libraries/STM32F0xx_StdPeriph_Driver/src/stm32f0xx_flash.c ****              (++) Get the user option bytes
  42:../Libraries/STM32F0xx_StdPeriph_Driver/src/stm32f0xx_flash.c ****              (++) Get the Write protection
  43:../Libraries/STM32F0xx_StdPeriph_Driver/src/stm32f0xx_flash.c ****              (++) Get the read protection status
  44:../Libraries/STM32F0xx_StdPeriph_Driver/src/stm32f0xx_flash.c **** 
  45:../Libraries/STM32F0xx_StdPeriph_Driver/src/stm32f0xx_flash.c ****          (#) FLASH Interrupts and flag management functions: this group includes 
  46:../Libraries/STM32F0xx_StdPeriph_Driver/src/stm32f0xx_flash.c ****              all needed functions to:
  47:../Libraries/STM32F0xx_StdPeriph_Driver/src/stm32f0xx_flash.c ****              (++) Enable/Disable the flash interrupt sources
  48:../Libraries/STM32F0xx_StdPeriph_Driver/src/stm32f0xx_flash.c ****              (++) Get flags status
  49:../Libraries/STM32F0xx_StdPeriph_Driver/src/stm32f0xx_flash.c ****              (++) Clear flags
  50:../Libraries/STM32F0xx_StdPeriph_Driver/src/stm32f0xx_flash.c ****              (++) Get Flash operation status
  51:../Libraries/STM32F0xx_StdPeriph_Driver/src/stm32f0xx_flash.c ****              (++) Wait for last flash operation
  52:../Libraries/STM32F0xx_StdPeriph_Driver/src/stm32f0xx_flash.c **** 
  53:../Libraries/STM32F0xx_StdPeriph_Driver/src/stm32f0xx_flash.c ****  @endverbatim
  54:../Libraries/STM32F0xx_StdPeriph_Driver/src/stm32f0xx_flash.c ****   
  55:../Libraries/STM32F0xx_StdPeriph_Driver/src/stm32f0xx_flash.c ****   ******************************************************************************
  56:../Libraries/STM32F0xx_StdPeriph_Driver/src/stm32f0xx_flash.c ****   * @attention
  57:../Libraries/STM32F0xx_StdPeriph_Driver/src/stm32f0xx_flash.c ****   *
  58:../Libraries/STM32F0xx_StdPeriph_Driver/src/stm32f0xx_flash.c ****   * <h2><center>&copy; COPYRIGHT 2014 STMicroelectronics</center></h2>
  59:../Libraries/STM32F0xx_StdPeriph_Driver/src/stm32f0xx_flash.c ****   *
  60:../Libraries/STM32F0xx_StdPeriph_Driver/src/stm32f0xx_flash.c ****   * Licensed under MCD-ST Liberty SW License Agreement V2, (the "License");
  61:../Libraries/STM32F0xx_StdPeriph_Driver/src/stm32f0xx_flash.c ****   * You may not use this file except in compliance with the License.
  62:../Libraries/STM32F0xx_StdPeriph_Driver/src/stm32f0xx_flash.c ****   * You may obtain a copy of the License at:
  63:../Libraries/STM32F0xx_StdPeriph_Driver/src/stm32f0xx_flash.c ****   *
  64:../Libraries/STM32F0xx_StdPeriph_Driver/src/stm32f0xx_flash.c ****   *        http://www.st.com/software_license_agreement_liberty_v2
  65:../Libraries/STM32F0xx_StdPeriph_Driver/src/stm32f0xx_flash.c ****   *
  66:../Libraries/STM32F0xx_StdPeriph_Driver/src/stm32f0xx_flash.c ****   * Unless required by applicable law or agreed to in writing, software 
  67:../Libraries/STM32F0xx_StdPeriph_Driver/src/stm32f0xx_flash.c ****   * distributed under the License is distributed on an "AS IS" BASIS, 
  68:../Libraries/STM32F0xx_StdPeriph_Driver/src/stm32f0xx_flash.c ****   * WITHOUT WARRANTIES OR CONDITIONS OF ANY KIND, either express or implied.
  69:../Libraries/STM32F0xx_StdPeriph_Driver/src/stm32f0xx_flash.c ****   * See the License for the specific language governing permissions and
  70:../Libraries/STM32F0xx_StdPeriph_Driver/src/stm32f0xx_flash.c ****   * limitations under the License.
  71:../Libraries/STM32F0xx_StdPeriph_Driver/src/stm32f0xx_flash.c ****   *
  72:../Libraries/STM32F0xx_StdPeriph_Driver/src/stm32f0xx_flash.c ****   ******************************************************************************
  73:../Libraries/STM32F0xx_StdPeriph_Driver/src/stm32f0xx_flash.c ****   */
  74:../Libraries/STM32F0xx_StdPeriph_Driver/src/stm32f0xx_flash.c **** 
  75:../Libraries/STM32F0xx_StdPeriph_Driver/src/stm32f0xx_flash.c **** /* Includes ------------------------------------------------------------------*/
  76:../Libraries/STM32F0xx_StdPeriph_Driver/src/stm32f0xx_flash.c **** #include "stm32f0xx_flash.h"
  77:../Libraries/STM32F0xx_StdPeriph_Driver/src/stm32f0xx_flash.c **** 
  78:../Libraries/STM32F0xx_StdPeriph_Driver/src/stm32f0xx_flash.c **** /** @addtogroup STM32F0xx_StdPeriph_Driver
  79:../Libraries/STM32F0xx_StdPeriph_Driver/src/stm32f0xx_flash.c ****   * @{
  80:../Libraries/STM32F0xx_StdPeriph_Driver/src/stm32f0xx_flash.c ****   */
  81:../Libraries/STM32F0xx_StdPeriph_Driver/src/stm32f0xx_flash.c **** 
  82:../Libraries/STM32F0xx_StdPeriph_Driver/src/stm32f0xx_flash.c **** /** @defgroup FLASH 
  83:../Libraries/STM32F0xx_StdPeriph_Driver/src/stm32f0xx_flash.c ****   * @brief FLASH driver modules
  84:../Libraries/STM32F0xx_StdPeriph_Driver/src/stm32f0xx_flash.c ****   * @{
  85:../Libraries/STM32F0xx_StdPeriph_Driver/src/stm32f0xx_flash.c ****   */ 
  86:../Libraries/STM32F0xx_StdPeriph_Driver/src/stm32f0xx_flash.c **** 
  87:../Libraries/STM32F0xx_StdPeriph_Driver/src/stm32f0xx_flash.c **** /* Private typedef -----------------------------------------------------------*/
  88:../Libraries/STM32F0xx_StdPeriph_Driver/src/stm32f0xx_flash.c **** /* Private define ------------------------------------------------------------*/
  89:../Libraries/STM32F0xx_StdPeriph_Driver/src/stm32f0xx_flash.c **** /* Private macro -------------------------------------------------------------*/
  90:../Libraries/STM32F0xx_StdPeriph_Driver/src/stm32f0xx_flash.c **** /* Private variables ---------------------------------------------------------*/
  91:../Libraries/STM32F0xx_StdPeriph_Driver/src/stm32f0xx_flash.c **** /* Private function prototypes -----------------------------------------------*/
  92:../Libraries/STM32F0xx_StdPeriph_Driver/src/stm32f0xx_flash.c **** /* Private functions ---------------------------------------------------------*/
  93:../Libraries/STM32F0xx_StdPeriph_Driver/src/stm32f0xx_flash.c ****  
  94:../Libraries/STM32F0xx_StdPeriph_Driver/src/stm32f0xx_flash.c **** /** @defgroup FLASH_Private_Functions
  95:../Libraries/STM32F0xx_StdPeriph_Driver/src/stm32f0xx_flash.c ****   * @{
  96:../Libraries/STM32F0xx_StdPeriph_Driver/src/stm32f0xx_flash.c ****   */ 
  97:../Libraries/STM32F0xx_StdPeriph_Driver/src/stm32f0xx_flash.c **** 
  98:../Libraries/STM32F0xx_StdPeriph_Driver/src/stm32f0xx_flash.c **** /** @defgroup FLASH_Group1 FLASH Interface configuration functions
  99:../Libraries/STM32F0xx_StdPeriph_Driver/src/stm32f0xx_flash.c ****   *  @brief   FLASH Interface configuration functions 
 100:../Libraries/STM32F0xx_StdPeriph_Driver/src/stm32f0xx_flash.c ****  *
 101:../Libraries/STM32F0xx_StdPeriph_Driver/src/stm32f0xx_flash.c **** @verbatim   
 102:../Libraries/STM32F0xx_StdPeriph_Driver/src/stm32f0xx_flash.c ****  ===============================================================================
 103:../Libraries/STM32F0xx_StdPeriph_Driver/src/stm32f0xx_flash.c ****                ##### FLASH Interface configuration functions #####
 104:../Libraries/STM32F0xx_StdPeriph_Driver/src/stm32f0xx_flash.c ****  ===============================================================================
 105:../Libraries/STM32F0xx_StdPeriph_Driver/src/stm32f0xx_flash.c **** 
 106:../Libraries/STM32F0xx_StdPeriph_Driver/src/stm32f0xx_flash.c ****     [..] FLASH_Interface configuration_Functions, includes the following functions:
 107:../Libraries/STM32F0xx_StdPeriph_Driver/src/stm32f0xx_flash.c ****        (+) void FLASH_SetLatency(uint32_t FLASH_Latency):
 108:../Libraries/STM32F0xx_StdPeriph_Driver/src/stm32f0xx_flash.c ****     [..] To correctly read data from Flash memory, the number of wait states (LATENCY) 
 109:../Libraries/STM32F0xx_StdPeriph_Driver/src/stm32f0xx_flash.c ****      must be correctly programmed according to the frequency of the CPU clock (HCLK) 
 110:../Libraries/STM32F0xx_StdPeriph_Driver/src/stm32f0xx_flash.c ****     [..]
 111:../Libraries/STM32F0xx_StdPeriph_Driver/src/stm32f0xx_flash.c ****         +--------------------------------------------- +
 112:../Libraries/STM32F0xx_StdPeriph_Driver/src/stm32f0xx_flash.c ****         |  Wait states  |   HCLK clock frequency (MHz) |
 113:../Libraries/STM32F0xx_StdPeriph_Driver/src/stm32f0xx_flash.c ****         |---------------|------------------------------|
 114:../Libraries/STM32F0xx_StdPeriph_Driver/src/stm32f0xx_flash.c ****         |0WS(1CPU cycle)|       0 < HCLK <= 24         |
 115:../Libraries/STM32F0xx_StdPeriph_Driver/src/stm32f0xx_flash.c ****         |---------------|------------------------------|
 116:../Libraries/STM32F0xx_StdPeriph_Driver/src/stm32f0xx_flash.c ****         |1WS(2CPU cycle)|       24 < HCLK <= 48        |
 117:../Libraries/STM32F0xx_StdPeriph_Driver/src/stm32f0xx_flash.c ****         +----------------------------------------------+
 118:../Libraries/STM32F0xx_StdPeriph_Driver/src/stm32f0xx_flash.c ****     [..]
 119:../Libraries/STM32F0xx_StdPeriph_Driver/src/stm32f0xx_flash.c ****        (+) void FLASH_PrefetchBufferCmd(FunctionalState NewState);
 120:../Libraries/STM32F0xx_StdPeriph_Driver/src/stm32f0xx_flash.c ****     [..]
 121:../Libraries/STM32F0xx_StdPeriph_Driver/src/stm32f0xx_flash.c ****      All these functions don't need the unlock sequence.
 122:../Libraries/STM32F0xx_StdPeriph_Driver/src/stm32f0xx_flash.c **** 
 123:../Libraries/STM32F0xx_StdPeriph_Driver/src/stm32f0xx_flash.c **** @endverbatim
 124:../Libraries/STM32F0xx_StdPeriph_Driver/src/stm32f0xx_flash.c ****   * @{
 125:../Libraries/STM32F0xx_StdPeriph_Driver/src/stm32f0xx_flash.c ****   */
 126:../Libraries/STM32F0xx_StdPeriph_Driver/src/stm32f0xx_flash.c **** 
 127:../Libraries/STM32F0xx_StdPeriph_Driver/src/stm32f0xx_flash.c **** /**
 128:../Libraries/STM32F0xx_StdPeriph_Driver/src/stm32f0xx_flash.c ****   * @brief  Sets the code latency value.
 129:../Libraries/STM32F0xx_StdPeriph_Driver/src/stm32f0xx_flash.c ****   * @param  FLASH_Latency: specifies the FLASH Latency value.
 130:../Libraries/STM32F0xx_StdPeriph_Driver/src/stm32f0xx_flash.c ****   *          This parameter can be one of the following values:
 131:../Libraries/STM32F0xx_StdPeriph_Driver/src/stm32f0xx_flash.c ****   *             @arg FLASH_Latency_0: FLASH Zero Latency cycle
 132:../Libraries/STM32F0xx_StdPeriph_Driver/src/stm32f0xx_flash.c ****   *             @arg FLASH_Latency_1: FLASH One Latency cycle
 133:../Libraries/STM32F0xx_StdPeriph_Driver/src/stm32f0xx_flash.c ****   * @retval None
 134:../Libraries/STM32F0xx_StdPeriph_Driver/src/stm32f0xx_flash.c ****   */
 135:../Libraries/STM32F0xx_StdPeriph_Driver/src/stm32f0xx_flash.c **** void FLASH_SetLatency(uint32_t FLASH_Latency)
 136:../Libraries/STM32F0xx_StdPeriph_Driver/src/stm32f0xx_flash.c **** {
  26              		.loc 1 136 0
  27              		.cfi_startproc
  28              	.LVL0:
 137:../Libraries/STM32F0xx_StdPeriph_Driver/src/stm32f0xx_flash.c ****    uint32_t tmpreg = 0;
 138:../Libraries/STM32F0xx_StdPeriph_Driver/src/stm32f0xx_flash.c **** 
 139:../Libraries/STM32F0xx_StdPeriph_Driver/src/stm32f0xx_flash.c ****   /* Check the parameters */
 140:../Libraries/STM32F0xx_StdPeriph_Driver/src/stm32f0xx_flash.c ****   assert_param(IS_FLASH_LATENCY(FLASH_Latency));
 141:../Libraries/STM32F0xx_StdPeriph_Driver/src/stm32f0xx_flash.c **** 
 142:../Libraries/STM32F0xx_StdPeriph_Driver/src/stm32f0xx_flash.c ****   /* Read the ACR register */
 143:../Libraries/STM32F0xx_StdPeriph_Driver/src/stm32f0xx_flash.c ****   tmpreg = FLASH->ACR;  
  29              		.loc 1 143 0
  30 0000 034B     		ldr	r3, .L2
 144:../Libraries/STM32F0xx_StdPeriph_Driver/src/stm32f0xx_flash.c **** 
 145:../Libraries/STM32F0xx_StdPeriph_Driver/src/stm32f0xx_flash.c ****   /* Sets the Latency value */
 146:../Libraries/STM32F0xx_StdPeriph_Driver/src/stm32f0xx_flash.c ****   tmpreg &= (uint32_t) (~((uint32_t)FLASH_ACR_LATENCY));
  31              		.loc 1 146 0
  32 0002 0121     		mov	r1, #1
 143:../Libraries/STM32F0xx_StdPeriph_Driver/src/stm32f0xx_flash.c ****   tmpreg = FLASH->ACR;  
  33              		.loc 1 143 0
  34 0004 1A68     		ldr	r2, [r3]
  35              	.LVL1:
  36              		@ sp needed for prologue
  37              		.loc 1 146 0
  38 0006 8A43     		bic	r2, r1
  39              	.LVL2:
 147:../Libraries/STM32F0xx_StdPeriph_Driver/src/stm32f0xx_flash.c ****   tmpreg |= FLASH_Latency;
  40              		.loc 1 147 0
  41 0008 1043     		orr	r0, r2
  42              	.LVL3:
 148:../Libraries/STM32F0xx_StdPeriph_Driver/src/stm32f0xx_flash.c **** 
 149:../Libraries/STM32F0xx_StdPeriph_Driver/src/stm32f0xx_flash.c ****   /* Write the ACR register */
 150:../Libraries/STM32F0xx_StdPeriph_Driver/src/stm32f0xx_flash.c ****   FLASH->ACR = tmpreg;
  43              		.loc 1 150 0
  44 000a 1860     		str	r0, [r3]
 151:../Libraries/STM32F0xx_StdPeriph_Driver/src/stm32f0xx_flash.c **** }
  45              		.loc 1 151 0
  46 000c 7047     		bx	lr
  47              	.L3:
  48 000e C046     		.align	2
  49              	.L2:
  50 0010 00200240 		.word	1073881088
  51              		.cfi_endproc
  52              	.LFE33:
  54              		.section	.text.FLASH_PrefetchBufferCmd,"ax",%progbits
  55              		.align	1
  56              		.global	FLASH_PrefetchBufferCmd
  57              		.code	16
  58              		.thumb_func
  60              	FLASH_PrefetchBufferCmd:
  61              	.LFB34:
 152:../Libraries/STM32F0xx_StdPeriph_Driver/src/stm32f0xx_flash.c **** 
 153:../Libraries/STM32F0xx_StdPeriph_Driver/src/stm32f0xx_flash.c **** /**
 154:../Libraries/STM32F0xx_StdPeriph_Driver/src/stm32f0xx_flash.c ****   * @brief  Enables or disables the Prefetch Buffer.
 155:../Libraries/STM32F0xx_StdPeriph_Driver/src/stm32f0xx_flash.c ****   * @param  NewState: new state of the FLASH prefetch buffer.
 156:../Libraries/STM32F0xx_StdPeriph_Driver/src/stm32f0xx_flash.c ****   *          This parameter can be: ENABLE or DISABLE. 
 157:../Libraries/STM32F0xx_StdPeriph_Driver/src/stm32f0xx_flash.c ****   * @retval None
 158:../Libraries/STM32F0xx_StdPeriph_Driver/src/stm32f0xx_flash.c ****   */
 159:../Libraries/STM32F0xx_StdPeriph_Driver/src/stm32f0xx_flash.c **** void FLASH_PrefetchBufferCmd(FunctionalState NewState)
 160:../Libraries/STM32F0xx_StdPeriph_Driver/src/stm32f0xx_flash.c **** {
  62              		.loc 1 160 0
  63              		.cfi_startproc
  64 0000 00B5     		push	{lr}
  65              	.LCFI0:
  66              		.cfi_def_cfa_offset 4
  67              		.cfi_offset 14, -4
  68              	.LVL4:
  69 0002 054B     		ldr	r3, .L8
  70 0004 1022     		mov	r2, #16
 161:../Libraries/STM32F0xx_StdPeriph_Driver/src/stm32f0xx_flash.c ****   /* Check the parameters */
 162:../Libraries/STM32F0xx_StdPeriph_Driver/src/stm32f0xx_flash.c ****   assert_param(IS_FUNCTIONAL_STATE(NewState));
 163:../Libraries/STM32F0xx_StdPeriph_Driver/src/stm32f0xx_flash.c **** 
 164:../Libraries/STM32F0xx_StdPeriph_Driver/src/stm32f0xx_flash.c ****   if(NewState != DISABLE)
 165:../Libraries/STM32F0xx_StdPeriph_Driver/src/stm32f0xx_flash.c ****   {
 166:../Libraries/STM32F0xx_StdPeriph_Driver/src/stm32f0xx_flash.c ****     FLASH->ACR |= FLASH_ACR_PRFTBE;
  71              		.loc 1 166 0
  72 0006 1968     		ldr	r1, [r3]
 164:../Libraries/STM32F0xx_StdPeriph_Driver/src/stm32f0xx_flash.c ****   if(NewState != DISABLE)
  73              		.loc 1 164 0
  74 0008 0028     		cmp	r0, #0
  75 000a 01D0     		beq	.L5
  76              		.loc 1 166 0
  77 000c 0A43     		orr	r2, r1
  78 000e 01E0     		b	.L7
  79              	.L5:
 167:../Libraries/STM32F0xx_StdPeriph_Driver/src/stm32f0xx_flash.c ****   }
 168:../Libraries/STM32F0xx_StdPeriph_Driver/src/stm32f0xx_flash.c ****   else
 169:../Libraries/STM32F0xx_StdPeriph_Driver/src/stm32f0xx_flash.c ****   {
 170:../Libraries/STM32F0xx_StdPeriph_Driver/src/stm32f0xx_flash.c ****     FLASH->ACR &= (uint32_t)(~((uint32_t)FLASH_ACR_PRFTBE));
  80              		.loc 1 170 0
  81 0010 9143     		bic	r1, r2
  82 0012 0A1C     		mov	r2, r1
  83              	.L7:
  84 0014 1A60     		str	r2, [r3]
  85              		@ sp needed for prologue
 171:../Libraries/STM32F0xx_StdPeriph_Driver/src/stm32f0xx_flash.c ****   }
 172:../Libraries/STM32F0xx_StdPeriph_Driver/src/stm32f0xx_flash.c **** }
  86              		.loc 1 172 0
  87 0016 00BD     		pop	{pc}
  88              	.L9:
  89              		.align	2
  90              	.L8:
  91 0018 00200240 		.word	1073881088
  92              		.cfi_endproc
  93              	.LFE34:
  95              		.section	.text.FLASH_GetPrefetchBufferStatus,"ax",%progbits
  96              		.align	1
  97              		.global	FLASH_GetPrefetchBufferStatus
  98              		.code	16
  99              		.thumb_func
 101              	FLASH_GetPrefetchBufferStatus:
 102              	.LFB35:
 173:../Libraries/STM32F0xx_StdPeriph_Driver/src/stm32f0xx_flash.c **** 
 174:../Libraries/STM32F0xx_StdPeriph_Driver/src/stm32f0xx_flash.c **** /**
 175:../Libraries/STM32F0xx_StdPeriph_Driver/src/stm32f0xx_flash.c ****   * @brief  Checks whether the FLASH Prefetch Buffer status is set or not.
 176:../Libraries/STM32F0xx_StdPeriph_Driver/src/stm32f0xx_flash.c ****   * @param  None
 177:../Libraries/STM32F0xx_StdPeriph_Driver/src/stm32f0xx_flash.c ****   * @retval FLASH Prefetch Buffer Status (SET or RESET).
 178:../Libraries/STM32F0xx_StdPeriph_Driver/src/stm32f0xx_flash.c ****   */
 179:../Libraries/STM32F0xx_StdPeriph_Driver/src/stm32f0xx_flash.c **** FlagStatus FLASH_GetPrefetchBufferStatus(void)
 180:../Libraries/STM32F0xx_StdPeriph_Driver/src/stm32f0xx_flash.c **** {
 103              		.loc 1 180 0
 104              		.cfi_startproc
 105              	.LVL5:
 181:../Libraries/STM32F0xx_StdPeriph_Driver/src/stm32f0xx_flash.c ****   FlagStatus bitstatus = RESET;
 182:../Libraries/STM32F0xx_StdPeriph_Driver/src/stm32f0xx_flash.c **** 
 183:../Libraries/STM32F0xx_StdPeriph_Driver/src/stm32f0xx_flash.c ****   if ((FLASH->ACR & FLASH_ACR_PRFTBS) != (uint32_t)RESET)
 106              		.loc 1 183 0
 107 0000 024B     		ldr	r3, .L11
 108              		@ sp needed for prologue
 109 0002 1968     		ldr	r1, [r3]
 110              	.LVL6:
 111 0004 8806     		lsl	r0, r1, #26
 184:../Libraries/STM32F0xx_StdPeriph_Driver/src/stm32f0xx_flash.c ****   {
 185:../Libraries/STM32F0xx_StdPeriph_Driver/src/stm32f0xx_flash.c ****     bitstatus = SET;
 186:../Libraries/STM32F0xx_StdPeriph_Driver/src/stm32f0xx_flash.c ****   }
 187:../Libraries/STM32F0xx_StdPeriph_Driver/src/stm32f0xx_flash.c ****   else
 188:../Libraries/STM32F0xx_StdPeriph_Driver/src/stm32f0xx_flash.c ****   {
 189:../Libraries/STM32F0xx_StdPeriph_Driver/src/stm32f0xx_flash.c ****     bitstatus = RESET;
 190:../Libraries/STM32F0xx_StdPeriph_Driver/src/stm32f0xx_flash.c ****   }
 191:../Libraries/STM32F0xx_StdPeriph_Driver/src/stm32f0xx_flash.c ****   /* Return the new state of FLASH Prefetch Buffer Status (SET or RESET) */
 192:../Libraries/STM32F0xx_StdPeriph_Driver/src/stm32f0xx_flash.c ****   return bitstatus; 
 112              		.loc 1 192 0
 113 0006 C00F     		lsr	r0, r0, #31
 193:../Libraries/STM32F0xx_StdPeriph_Driver/src/stm32f0xx_flash.c **** }
 114              		.loc 1 193 0
 115 0008 7047     		bx	lr
 116              	.L12:
 117 000a C046     		.align	2
 118              	.L11:
 119 000c 00200240 		.word	1073881088
 120              		.cfi_endproc
 121              	.LFE35:
 123              		.section	.text.FLASH_Unlock,"ax",%progbits
 124              		.align	1
 125              		.global	FLASH_Unlock
 126              		.code	16
 127              		.thumb_func
 129              	FLASH_Unlock:
 130              	.LFB36:
 194:../Libraries/STM32F0xx_StdPeriph_Driver/src/stm32f0xx_flash.c **** 
 195:../Libraries/STM32F0xx_StdPeriph_Driver/src/stm32f0xx_flash.c **** /**
 196:../Libraries/STM32F0xx_StdPeriph_Driver/src/stm32f0xx_flash.c ****   * @}
 197:../Libraries/STM32F0xx_StdPeriph_Driver/src/stm32f0xx_flash.c ****   */
 198:../Libraries/STM32F0xx_StdPeriph_Driver/src/stm32f0xx_flash.c **** 
 199:../Libraries/STM32F0xx_StdPeriph_Driver/src/stm32f0xx_flash.c **** /** @defgroup FLASH_Group2 FLASH Memory Programming functions
 200:../Libraries/STM32F0xx_StdPeriph_Driver/src/stm32f0xx_flash.c ****  *  @brief   FLASH Memory Programming functions
 201:../Libraries/STM32F0xx_StdPeriph_Driver/src/stm32f0xx_flash.c ****  *
 202:../Libraries/STM32F0xx_StdPeriph_Driver/src/stm32f0xx_flash.c **** @verbatim   
 203:../Libraries/STM32F0xx_StdPeriph_Driver/src/stm32f0xx_flash.c ****  ===============================================================================
 204:../Libraries/STM32F0xx_StdPeriph_Driver/src/stm32f0xx_flash.c ****                 ##### FLASH Memory Programming functions #####
 205:../Libraries/STM32F0xx_StdPeriph_Driver/src/stm32f0xx_flash.c ****  ===============================================================================
 206:../Libraries/STM32F0xx_StdPeriph_Driver/src/stm32f0xx_flash.c **** 
 207:../Libraries/STM32F0xx_StdPeriph_Driver/src/stm32f0xx_flash.c ****     [..] The FLASH Memory Programming functions, includes the following functions:
 208:../Libraries/STM32F0xx_StdPeriph_Driver/src/stm32f0xx_flash.c ****        (+) void FLASH_Unlock(void);
 209:../Libraries/STM32F0xx_StdPeriph_Driver/src/stm32f0xx_flash.c ****        (+) void FLASH_Lock(void);
 210:../Libraries/STM32F0xx_StdPeriph_Driver/src/stm32f0xx_flash.c ****        (+) FLASH_Status FLASH_ErasePage(uint32_t Page_Address);
 211:../Libraries/STM32F0xx_StdPeriph_Driver/src/stm32f0xx_flash.c ****        (+) FLASH_Status FLASH_EraseAllPages(void);
 212:../Libraries/STM32F0xx_StdPeriph_Driver/src/stm32f0xx_flash.c ****        (+) FLASH_Status FLASH_ProgramWord(uint32_t Address, uint32_t Data);
 213:../Libraries/STM32F0xx_StdPeriph_Driver/src/stm32f0xx_flash.c ****        (+) FLASH_Status FLASH_ProgramHalfWord(uint32_t Address, uint16_t Data);
 214:../Libraries/STM32F0xx_StdPeriph_Driver/src/stm32f0xx_flash.c **** 
 215:../Libraries/STM32F0xx_StdPeriph_Driver/src/stm32f0xx_flash.c ****     [..] Any operation of erase or program should follow these steps:
 216:../Libraries/STM32F0xx_StdPeriph_Driver/src/stm32f0xx_flash.c ****        
 217:../Libraries/STM32F0xx_StdPeriph_Driver/src/stm32f0xx_flash.c ****        (#) Call the FLASH_Unlock() function to enable the flash control register and 
 218:../Libraries/STM32F0xx_StdPeriph_Driver/src/stm32f0xx_flash.c ****            program memory access
 219:../Libraries/STM32F0xx_StdPeriph_Driver/src/stm32f0xx_flash.c ****        (#) Call the desired function to erase page or program data
 220:../Libraries/STM32F0xx_StdPeriph_Driver/src/stm32f0xx_flash.c ****        (#) Call the FLASH_Lock() to disable the flash program memory access 
 221:../Libraries/STM32F0xx_StdPeriph_Driver/src/stm32f0xx_flash.c ****       (recommended to protect the FLASH memory against possible unwanted operation)
 222:../Libraries/STM32F0xx_StdPeriph_Driver/src/stm32f0xx_flash.c **** 
 223:../Libraries/STM32F0xx_StdPeriph_Driver/src/stm32f0xx_flash.c **** @endverbatim
 224:../Libraries/STM32F0xx_StdPeriph_Driver/src/stm32f0xx_flash.c ****   * @{
 225:../Libraries/STM32F0xx_StdPeriph_Driver/src/stm32f0xx_flash.c ****   */
 226:../Libraries/STM32F0xx_StdPeriph_Driver/src/stm32f0xx_flash.c **** 
 227:../Libraries/STM32F0xx_StdPeriph_Driver/src/stm32f0xx_flash.c **** /**
 228:../Libraries/STM32F0xx_StdPeriph_Driver/src/stm32f0xx_flash.c ****   * @brief  Unlocks the FLASH control register and program memory access.
 229:../Libraries/STM32F0xx_StdPeriph_Driver/src/stm32f0xx_flash.c ****   * @param  None
 230:../Libraries/STM32F0xx_StdPeriph_Driver/src/stm32f0xx_flash.c ****   * @retval None
 231:../Libraries/STM32F0xx_StdPeriph_Driver/src/stm32f0xx_flash.c ****   */
 232:../Libraries/STM32F0xx_StdPeriph_Driver/src/stm32f0xx_flash.c **** void FLASH_Unlock(void)
 233:../Libraries/STM32F0xx_StdPeriph_Driver/src/stm32f0xx_flash.c **** {
 131              		.loc 1 233 0
 132              		.cfi_startproc
 133 0000 00B5     		push	{lr}
 134              	.LCFI1:
 135              		.cfi_def_cfa_offset 4
 136              		.cfi_offset 14, -4
 234:../Libraries/STM32F0xx_StdPeriph_Driver/src/stm32f0xx_flash.c ****   if((FLASH->CR & FLASH_CR_LOCK) != RESET)
 137              		.loc 1 234 0
 138 0002 044B     		ldr	r3, .L15
 139 0004 1A69     		ldr	r2, [r3, #16]
 140 0006 1106     		lsl	r1, r2, #24
 141 0008 03D5     		bpl	.L13
 235:../Libraries/STM32F0xx_StdPeriph_Driver/src/stm32f0xx_flash.c ****   {
 236:../Libraries/STM32F0xx_StdPeriph_Driver/src/stm32f0xx_flash.c ****     /* Unlocking the program memory access */
 237:../Libraries/STM32F0xx_StdPeriph_Driver/src/stm32f0xx_flash.c ****     FLASH->KEYR = FLASH_FKEY1;
 142              		.loc 1 237 0
 143 000a 0349     		ldr	r1, .L15+4
 238:../Libraries/STM32F0xx_StdPeriph_Driver/src/stm32f0xx_flash.c ****     FLASH->KEYR = FLASH_FKEY2;
 144              		.loc 1 238 0
 145 000c 0348     		ldr	r0, .L15+8
 237:../Libraries/STM32F0xx_StdPeriph_Driver/src/stm32f0xx_flash.c ****     FLASH->KEYR = FLASH_FKEY1;
 146              		.loc 1 237 0
 147 000e 5960     		str	r1, [r3, #4]
 148              		.loc 1 238 0
 149 0010 5860     		str	r0, [r3, #4]
 150              	.L13:
 151              		@ sp needed for prologue
 239:../Libraries/STM32F0xx_StdPeriph_Driver/src/stm32f0xx_flash.c ****   }
 240:../Libraries/STM32F0xx_StdPeriph_Driver/src/stm32f0xx_flash.c **** }
 152              		.loc 1 240 0
 153 0012 00BD     		pop	{pc}
 154              	.L16:
 155              		.align	2
 156              	.L15:
 157 0014 00200240 		.word	1073881088
 158 0018 23016745 		.word	1164378403
 159 001c AB89EFCD 		.word	-839939669
 160              		.cfi_endproc
 161              	.LFE36:
 163              		.section	.text.FLASH_Lock,"ax",%progbits
 164              		.align	1
 165              		.global	FLASH_Lock
 166              		.code	16
 167              		.thumb_func
 169              	FLASH_Lock:
 170              	.LFB37:
 241:../Libraries/STM32F0xx_StdPeriph_Driver/src/stm32f0xx_flash.c **** 
 242:../Libraries/STM32F0xx_StdPeriph_Driver/src/stm32f0xx_flash.c **** /**
 243:../Libraries/STM32F0xx_StdPeriph_Driver/src/stm32f0xx_flash.c ****   * @brief  Locks the Program memory access.
 244:../Libraries/STM32F0xx_StdPeriph_Driver/src/stm32f0xx_flash.c ****   * @param  None
 245:../Libraries/STM32F0xx_StdPeriph_Driver/src/stm32f0xx_flash.c ****   * @retval None
 246:../Libraries/STM32F0xx_StdPeriph_Driver/src/stm32f0xx_flash.c ****   */
 247:../Libraries/STM32F0xx_StdPeriph_Driver/src/stm32f0xx_flash.c **** void FLASH_Lock(void)
 248:../Libraries/STM32F0xx_StdPeriph_Driver/src/stm32f0xx_flash.c **** {
 171              		.loc 1 248 0
 172              		.cfi_startproc
 249:../Libraries/STM32F0xx_StdPeriph_Driver/src/stm32f0xx_flash.c ****   /* Set the LOCK Bit to lock the FLASH control register and program memory access */
 250:../Libraries/STM32F0xx_StdPeriph_Driver/src/stm32f0xx_flash.c ****   FLASH->CR |= FLASH_CR_LOCK;
 173              		.loc 1 250 0
 174 0000 024B     		ldr	r3, .L18
 175 0002 8021     		mov	r1, #128
 176 0004 1A69     		ldr	r2, [r3, #16]
 177              		@ sp needed for prologue
 178 0006 0A43     		orr	r2, r1
 179 0008 1A61     		str	r2, [r3, #16]
 251:../Libraries/STM32F0xx_StdPeriph_Driver/src/stm32f0xx_flash.c **** }
 180              		.loc 1 251 0
 181 000a 7047     		bx	lr
 182              	.L19:
 183              		.align	2
 184              	.L18:
 185 000c 00200240 		.word	1073881088
 186              		.cfi_endproc
 187              	.LFE37:
 189              		.section	.text.FLASH_OB_Unlock,"ax",%progbits
 190              		.align	1
 191              		.global	FLASH_OB_Unlock
 192              		.code	16
 193              		.thumb_func
 195              	FLASH_OB_Unlock:
 196              	.LFB42:
 252:../Libraries/STM32F0xx_StdPeriph_Driver/src/stm32f0xx_flash.c **** 
 253:../Libraries/STM32F0xx_StdPeriph_Driver/src/stm32f0xx_flash.c **** /**
 254:../Libraries/STM32F0xx_StdPeriph_Driver/src/stm32f0xx_flash.c ****   * @brief  Erases a specified page in program memory.
 255:../Libraries/STM32F0xx_StdPeriph_Driver/src/stm32f0xx_flash.c ****   * @note   To correctly run this function, the FLASH_Unlock() function must be called before.
 256:../Libraries/STM32F0xx_StdPeriph_Driver/src/stm32f0xx_flash.c ****   * @note   Call the FLASH_Lock() to disable the flash memory access (recommended
 257:../Libraries/STM32F0xx_StdPeriph_Driver/src/stm32f0xx_flash.c ****   *         to protect the FLASH memory against possible unwanted operation)
 258:../Libraries/STM32F0xx_StdPeriph_Driver/src/stm32f0xx_flash.c ****   * @param  Page_Address: The page address in program memory to be erased.
 259:../Libraries/STM32F0xx_StdPeriph_Driver/src/stm32f0xx_flash.c ****   * @note   A Page is erased in the Program memory only if the address to load 
 260:../Libraries/STM32F0xx_StdPeriph_Driver/src/stm32f0xx_flash.c ****   *         is the start address of a page (multiple of 1024 bytes).
 261:../Libraries/STM32F0xx_StdPeriph_Driver/src/stm32f0xx_flash.c ****   * @retval FLASH Status: The returned value can be: 
 262:../Libraries/STM32F0xx_StdPeriph_Driver/src/stm32f0xx_flash.c ****   *         FLASH_ERROR_PROGRAM, FLASH_ERROR_WRP, FLASH_COMPLETE or FLASH_TIMEOUT.
 263:../Libraries/STM32F0xx_StdPeriph_Driver/src/stm32f0xx_flash.c ****   */
 264:../Libraries/STM32F0xx_StdPeriph_Driver/src/stm32f0xx_flash.c **** FLASH_Status FLASH_ErasePage(uint32_t Page_Address)
 265:../Libraries/STM32F0xx_StdPeriph_Driver/src/stm32f0xx_flash.c **** {
 266:../Libraries/STM32F0xx_StdPeriph_Driver/src/stm32f0xx_flash.c ****   FLASH_Status status = FLASH_COMPLETE;
 267:../Libraries/STM32F0xx_StdPeriph_Driver/src/stm32f0xx_flash.c **** 
 268:../Libraries/STM32F0xx_StdPeriph_Driver/src/stm32f0xx_flash.c ****   /* Check the parameters */
 269:../Libraries/STM32F0xx_StdPeriph_Driver/src/stm32f0xx_flash.c ****   assert_param(IS_FLASH_PROGRAM_ADDRESS(Page_Address));
 270:../Libraries/STM32F0xx_StdPeriph_Driver/src/stm32f0xx_flash.c ****  
 271:../Libraries/STM32F0xx_StdPeriph_Driver/src/stm32f0xx_flash.c ****   /* Wait for last operation to be completed */
 272:../Libraries/STM32F0xx_StdPeriph_Driver/src/stm32f0xx_flash.c ****   status = FLASH_WaitForLastOperation(FLASH_ER_PRG_TIMEOUT);
 273:../Libraries/STM32F0xx_StdPeriph_Driver/src/stm32f0xx_flash.c ****   
 274:../Libraries/STM32F0xx_StdPeriph_Driver/src/stm32f0xx_flash.c ****   if(status == FLASH_COMPLETE)
 275:../Libraries/STM32F0xx_StdPeriph_Driver/src/stm32f0xx_flash.c ****   { 
 276:../Libraries/STM32F0xx_StdPeriph_Driver/src/stm32f0xx_flash.c ****     /* If the previous operation is completed, proceed to erase the page */
 277:../Libraries/STM32F0xx_StdPeriph_Driver/src/stm32f0xx_flash.c ****     FLASH->CR |= FLASH_CR_PER;
 278:../Libraries/STM32F0xx_StdPeriph_Driver/src/stm32f0xx_flash.c ****     FLASH->AR  = Page_Address;
 279:../Libraries/STM32F0xx_StdPeriph_Driver/src/stm32f0xx_flash.c ****     FLASH->CR |= FLASH_CR_STRT;
 280:../Libraries/STM32F0xx_StdPeriph_Driver/src/stm32f0xx_flash.c ****     
 281:../Libraries/STM32F0xx_StdPeriph_Driver/src/stm32f0xx_flash.c ****     /* Wait for last operation to be completed */
 282:../Libraries/STM32F0xx_StdPeriph_Driver/src/stm32f0xx_flash.c ****     status = FLASH_WaitForLastOperation(FLASH_ER_PRG_TIMEOUT);
 283:../Libraries/STM32F0xx_StdPeriph_Driver/src/stm32f0xx_flash.c ****     
 284:../Libraries/STM32F0xx_StdPeriph_Driver/src/stm32f0xx_flash.c ****     /* Disable the PER Bit */
 285:../Libraries/STM32F0xx_StdPeriph_Driver/src/stm32f0xx_flash.c ****     FLASH->CR &= ~FLASH_CR_PER;
 286:../Libraries/STM32F0xx_StdPeriph_Driver/src/stm32f0xx_flash.c ****   }
 287:../Libraries/STM32F0xx_StdPeriph_Driver/src/stm32f0xx_flash.c ****     
 288:../Libraries/STM32F0xx_StdPeriph_Driver/src/stm32f0xx_flash.c ****   /* Return the Erase Status */
 289:../Libraries/STM32F0xx_StdPeriph_Driver/src/stm32f0xx_flash.c ****   return status;
 290:../Libraries/STM32F0xx_StdPeriph_Driver/src/stm32f0xx_flash.c **** }
 291:../Libraries/STM32F0xx_StdPeriph_Driver/src/stm32f0xx_flash.c **** 
 292:../Libraries/STM32F0xx_StdPeriph_Driver/src/stm32f0xx_flash.c **** /**
 293:../Libraries/STM32F0xx_StdPeriph_Driver/src/stm32f0xx_flash.c ****   * @brief  Erases all FLASH pages.
 294:../Libraries/STM32F0xx_StdPeriph_Driver/src/stm32f0xx_flash.c ****   * @note   To correctly run this function, the FLASH_Unlock() function must be called before.
 295:../Libraries/STM32F0xx_StdPeriph_Driver/src/stm32f0xx_flash.c ****   * @note   Call the FLASH_Lock() to disable the flash memory access (recommended
 296:../Libraries/STM32F0xx_StdPeriph_Driver/src/stm32f0xx_flash.c ****   *         to protect the FLASH memory against possible unwanted operation)
 297:../Libraries/STM32F0xx_StdPeriph_Driver/src/stm32f0xx_flash.c ****   * @param  None
 298:../Libraries/STM32F0xx_StdPeriph_Driver/src/stm32f0xx_flash.c ****   * @retval FLASH Status: The returned value can be: FLASH_ERROR_PG,
 299:../Libraries/STM32F0xx_StdPeriph_Driver/src/stm32f0xx_flash.c ****   *         FLASH_ERROR_WRP, FLASH_COMPLETE or FLASH_TIMEOUT.
 300:../Libraries/STM32F0xx_StdPeriph_Driver/src/stm32f0xx_flash.c ****   */
 301:../Libraries/STM32F0xx_StdPeriph_Driver/src/stm32f0xx_flash.c **** FLASH_Status FLASH_EraseAllPages(void)
 302:../Libraries/STM32F0xx_StdPeriph_Driver/src/stm32f0xx_flash.c **** {
 303:../Libraries/STM32F0xx_StdPeriph_Driver/src/stm32f0xx_flash.c ****   FLASH_Status status = FLASH_COMPLETE;
 304:../Libraries/STM32F0xx_StdPeriph_Driver/src/stm32f0xx_flash.c **** 
 305:../Libraries/STM32F0xx_StdPeriph_Driver/src/stm32f0xx_flash.c ****   /* Wait for last operation to be completed */
 306:../Libraries/STM32F0xx_StdPeriph_Driver/src/stm32f0xx_flash.c ****   status = FLASH_WaitForLastOperation(FLASH_ER_PRG_TIMEOUT);
 307:../Libraries/STM32F0xx_StdPeriph_Driver/src/stm32f0xx_flash.c ****   
 308:../Libraries/STM32F0xx_StdPeriph_Driver/src/stm32f0xx_flash.c ****   if(status == FLASH_COMPLETE)
 309:../Libraries/STM32F0xx_StdPeriph_Driver/src/stm32f0xx_flash.c ****   {
 310:../Libraries/STM32F0xx_StdPeriph_Driver/src/stm32f0xx_flash.c ****     /* if the previous operation is completed, proceed to erase all pages */
 311:../Libraries/STM32F0xx_StdPeriph_Driver/src/stm32f0xx_flash.c ****      FLASH->CR |= FLASH_CR_MER;
 312:../Libraries/STM32F0xx_StdPeriph_Driver/src/stm32f0xx_flash.c ****      FLASH->CR |= FLASH_CR_STRT;
 313:../Libraries/STM32F0xx_StdPeriph_Driver/src/stm32f0xx_flash.c ****     
 314:../Libraries/STM32F0xx_StdPeriph_Driver/src/stm32f0xx_flash.c ****     /* Wait for last operation to be completed */
 315:../Libraries/STM32F0xx_StdPeriph_Driver/src/stm32f0xx_flash.c ****     status = FLASH_WaitForLastOperation(FLASH_ER_PRG_TIMEOUT);
 316:../Libraries/STM32F0xx_StdPeriph_Driver/src/stm32f0xx_flash.c **** 
 317:../Libraries/STM32F0xx_StdPeriph_Driver/src/stm32f0xx_flash.c ****     /* Disable the MER Bit */
 318:../Libraries/STM32F0xx_StdPeriph_Driver/src/stm32f0xx_flash.c ****     FLASH->CR &= ~FLASH_CR_MER;
 319:../Libraries/STM32F0xx_StdPeriph_Driver/src/stm32f0xx_flash.c ****   }
 320:../Libraries/STM32F0xx_StdPeriph_Driver/src/stm32f0xx_flash.c **** 
 321:../Libraries/STM32F0xx_StdPeriph_Driver/src/stm32f0xx_flash.c ****   /* Return the Erase Status */
 322:../Libraries/STM32F0xx_StdPeriph_Driver/src/stm32f0xx_flash.c ****   return status;
 323:../Libraries/STM32F0xx_StdPeriph_Driver/src/stm32f0xx_flash.c **** }
 324:../Libraries/STM32F0xx_StdPeriph_Driver/src/stm32f0xx_flash.c **** 
 325:../Libraries/STM32F0xx_StdPeriph_Driver/src/stm32f0xx_flash.c **** /**
 326:../Libraries/STM32F0xx_StdPeriph_Driver/src/stm32f0xx_flash.c ****   * @brief  Programs a word at a specified address.
 327:../Libraries/STM32F0xx_StdPeriph_Driver/src/stm32f0xx_flash.c ****   * @note   To correctly run this function, the FLASH_Unlock() function must be called before.
 328:../Libraries/STM32F0xx_StdPeriph_Driver/src/stm32f0xx_flash.c ****   * @note   Call the FLASH_Lock() to disable the flash memory access (recommended
 329:../Libraries/STM32F0xx_StdPeriph_Driver/src/stm32f0xx_flash.c ****   *         to protect the FLASH memory against possible unwanted operation)
 330:../Libraries/STM32F0xx_StdPeriph_Driver/src/stm32f0xx_flash.c ****   * @param  Address: specifies the address to be programmed.
 331:../Libraries/STM32F0xx_StdPeriph_Driver/src/stm32f0xx_flash.c ****   * @param  Data: specifies the data to be programmed.
 332:../Libraries/STM32F0xx_StdPeriph_Driver/src/stm32f0xx_flash.c ****   * @retval FLASH Status: The returned value can be: FLASH_ERROR_PG,
 333:../Libraries/STM32F0xx_StdPeriph_Driver/src/stm32f0xx_flash.c ****   *         FLASH_ERROR_WRP, FLASH_COMPLETE or FLASH_TIMEOUT. 
 334:../Libraries/STM32F0xx_StdPeriph_Driver/src/stm32f0xx_flash.c ****   */
 335:../Libraries/STM32F0xx_StdPeriph_Driver/src/stm32f0xx_flash.c **** FLASH_Status FLASH_ProgramWord(uint32_t Address, uint32_t Data)
 336:../Libraries/STM32F0xx_StdPeriph_Driver/src/stm32f0xx_flash.c **** {
 337:../Libraries/STM32F0xx_StdPeriph_Driver/src/stm32f0xx_flash.c ****   FLASH_Status status = FLASH_COMPLETE;
 338:../Libraries/STM32F0xx_StdPeriph_Driver/src/stm32f0xx_flash.c ****   __IO uint32_t tmp = 0;
 339:../Libraries/STM32F0xx_StdPeriph_Driver/src/stm32f0xx_flash.c **** 
 340:../Libraries/STM32F0xx_StdPeriph_Driver/src/stm32f0xx_flash.c ****   /* Check the parameters */
 341:../Libraries/STM32F0xx_StdPeriph_Driver/src/stm32f0xx_flash.c ****   assert_param(IS_FLASH_PROGRAM_ADDRESS(Address));
 342:../Libraries/STM32F0xx_StdPeriph_Driver/src/stm32f0xx_flash.c **** 
 343:../Libraries/STM32F0xx_StdPeriph_Driver/src/stm32f0xx_flash.c ****   /* Wait for last operation to be completed */
 344:../Libraries/STM32F0xx_StdPeriph_Driver/src/stm32f0xx_flash.c ****   status = FLASH_WaitForLastOperation(FLASH_ER_PRG_TIMEOUT);
 345:../Libraries/STM32F0xx_StdPeriph_Driver/src/stm32f0xx_flash.c ****   
 346:../Libraries/STM32F0xx_StdPeriph_Driver/src/stm32f0xx_flash.c ****   if(status == FLASH_COMPLETE)
 347:../Libraries/STM32F0xx_StdPeriph_Driver/src/stm32f0xx_flash.c ****   {
 348:../Libraries/STM32F0xx_StdPeriph_Driver/src/stm32f0xx_flash.c ****     /* If the previous operation is completed, proceed to program the new first 
 349:../Libraries/STM32F0xx_StdPeriph_Driver/src/stm32f0xx_flash.c ****     half word */
 350:../Libraries/STM32F0xx_StdPeriph_Driver/src/stm32f0xx_flash.c ****     FLASH->CR |= FLASH_CR_PG;
 351:../Libraries/STM32F0xx_StdPeriph_Driver/src/stm32f0xx_flash.c ****   
 352:../Libraries/STM32F0xx_StdPeriph_Driver/src/stm32f0xx_flash.c ****     *(__IO uint16_t*)Address = (uint16_t)Data;
 353:../Libraries/STM32F0xx_StdPeriph_Driver/src/stm32f0xx_flash.c ****     
 354:../Libraries/STM32F0xx_StdPeriph_Driver/src/stm32f0xx_flash.c ****     /* Wait for last operation to be completed */
 355:../Libraries/STM32F0xx_StdPeriph_Driver/src/stm32f0xx_flash.c ****     status = FLASH_WaitForLastOperation(FLASH_ER_PRG_TIMEOUT);
 356:../Libraries/STM32F0xx_StdPeriph_Driver/src/stm32f0xx_flash.c ****  
 357:../Libraries/STM32F0xx_StdPeriph_Driver/src/stm32f0xx_flash.c ****     if(status == FLASH_COMPLETE)
 358:../Libraries/STM32F0xx_StdPeriph_Driver/src/stm32f0xx_flash.c ****     {
 359:../Libraries/STM32F0xx_StdPeriph_Driver/src/stm32f0xx_flash.c ****       /* If the previous operation is completed, proceed to program the new second 
 360:../Libraries/STM32F0xx_StdPeriph_Driver/src/stm32f0xx_flash.c ****       half word */
 361:../Libraries/STM32F0xx_StdPeriph_Driver/src/stm32f0xx_flash.c ****       tmp = Address + 2;
 362:../Libraries/STM32F0xx_StdPeriph_Driver/src/stm32f0xx_flash.c **** 
 363:../Libraries/STM32F0xx_StdPeriph_Driver/src/stm32f0xx_flash.c ****       *(__IO uint16_t*) tmp = Data >> 16;
 364:../Libraries/STM32F0xx_StdPeriph_Driver/src/stm32f0xx_flash.c ****     
 365:../Libraries/STM32F0xx_StdPeriph_Driver/src/stm32f0xx_flash.c ****       /* Wait for last operation to be completed */
 366:../Libraries/STM32F0xx_StdPeriph_Driver/src/stm32f0xx_flash.c ****       status = FLASH_WaitForLastOperation(FLASH_ER_PRG_TIMEOUT);
 367:../Libraries/STM32F0xx_StdPeriph_Driver/src/stm32f0xx_flash.c ****         
 368:../Libraries/STM32F0xx_StdPeriph_Driver/src/stm32f0xx_flash.c ****       /* Disable the PG Bit */
 369:../Libraries/STM32F0xx_StdPeriph_Driver/src/stm32f0xx_flash.c ****       FLASH->CR &= ~FLASH_CR_PG;
 370:../Libraries/STM32F0xx_StdPeriph_Driver/src/stm32f0xx_flash.c ****     }
 371:../Libraries/STM32F0xx_StdPeriph_Driver/src/stm32f0xx_flash.c ****     else
 372:../Libraries/STM32F0xx_StdPeriph_Driver/src/stm32f0xx_flash.c ****     {
 373:../Libraries/STM32F0xx_StdPeriph_Driver/src/stm32f0xx_flash.c ****       /* Disable the PG Bit */
 374:../Libraries/STM32F0xx_StdPeriph_Driver/src/stm32f0xx_flash.c ****       FLASH->CR &= ~FLASH_CR_PG;
 375:../Libraries/STM32F0xx_StdPeriph_Driver/src/stm32f0xx_flash.c ****     }
 376:../Libraries/STM32F0xx_StdPeriph_Driver/src/stm32f0xx_flash.c ****   }
 377:../Libraries/STM32F0xx_StdPeriph_Driver/src/stm32f0xx_flash.c ****    
 378:../Libraries/STM32F0xx_StdPeriph_Driver/src/stm32f0xx_flash.c ****   /* Return the Program Status */
 379:../Libraries/STM32F0xx_StdPeriph_Driver/src/stm32f0xx_flash.c ****   return status;
 380:../Libraries/STM32F0xx_StdPeriph_Driver/src/stm32f0xx_flash.c **** }
 381:../Libraries/STM32F0xx_StdPeriph_Driver/src/stm32f0xx_flash.c **** 
 382:../Libraries/STM32F0xx_StdPeriph_Driver/src/stm32f0xx_flash.c **** /**
 383:../Libraries/STM32F0xx_StdPeriph_Driver/src/stm32f0xx_flash.c ****   * @brief  Programs a half word at a specified address.
 384:../Libraries/STM32F0xx_StdPeriph_Driver/src/stm32f0xx_flash.c ****   * @note   To correctly run this function, the FLASH_Unlock() function must be called before.
 385:../Libraries/STM32F0xx_StdPeriph_Driver/src/stm32f0xx_flash.c ****   * @note   Call the FLASH_Lock() to disable the flash memory access (recommended
 386:../Libraries/STM32F0xx_StdPeriph_Driver/src/stm32f0xx_flash.c ****   *         to protect the FLASH memory against possible unwanted operation)
 387:../Libraries/STM32F0xx_StdPeriph_Driver/src/stm32f0xx_flash.c ****   * @param  Address: specifies the address to be programmed.
 388:../Libraries/STM32F0xx_StdPeriph_Driver/src/stm32f0xx_flash.c ****   * @param  Data: specifies the data to be programmed.
 389:../Libraries/STM32F0xx_StdPeriph_Driver/src/stm32f0xx_flash.c ****   * @retval FLASH Status: The returned value can be: FLASH_ERROR_PG,
 390:../Libraries/STM32F0xx_StdPeriph_Driver/src/stm32f0xx_flash.c ****   *         FLASH_ERROR_WRP, FLASH_COMPLETE or FLASH_TIMEOUT. 
 391:../Libraries/STM32F0xx_StdPeriph_Driver/src/stm32f0xx_flash.c ****   */
 392:../Libraries/STM32F0xx_StdPeriph_Driver/src/stm32f0xx_flash.c **** FLASH_Status FLASH_ProgramHalfWord(uint32_t Address, uint16_t Data)
 393:../Libraries/STM32F0xx_StdPeriph_Driver/src/stm32f0xx_flash.c **** {
 394:../Libraries/STM32F0xx_StdPeriph_Driver/src/stm32f0xx_flash.c ****   FLASH_Status status = FLASH_COMPLETE;
 395:../Libraries/STM32F0xx_StdPeriph_Driver/src/stm32f0xx_flash.c **** 
 396:../Libraries/STM32F0xx_StdPeriph_Driver/src/stm32f0xx_flash.c ****   /* Check the parameters */
 397:../Libraries/STM32F0xx_StdPeriph_Driver/src/stm32f0xx_flash.c ****   assert_param(IS_FLASH_PROGRAM_ADDRESS(Address));
 398:../Libraries/STM32F0xx_StdPeriph_Driver/src/stm32f0xx_flash.c **** 
 399:../Libraries/STM32F0xx_StdPeriph_Driver/src/stm32f0xx_flash.c ****   /* Wait for last operation to be completed */
 400:../Libraries/STM32F0xx_StdPeriph_Driver/src/stm32f0xx_flash.c ****   status = FLASH_WaitForLastOperation(FLASH_ER_PRG_TIMEOUT);
 401:../Libraries/STM32F0xx_StdPeriph_Driver/src/stm32f0xx_flash.c ****   
 402:../Libraries/STM32F0xx_StdPeriph_Driver/src/stm32f0xx_flash.c ****   if(status == FLASH_COMPLETE)
 403:../Libraries/STM32F0xx_StdPeriph_Driver/src/stm32f0xx_flash.c ****   {
 404:../Libraries/STM32F0xx_StdPeriph_Driver/src/stm32f0xx_flash.c ****     /* If the previous operation is completed, proceed to program the new data */
 405:../Libraries/STM32F0xx_StdPeriph_Driver/src/stm32f0xx_flash.c ****     FLASH->CR |= FLASH_CR_PG;
 406:../Libraries/STM32F0xx_StdPeriph_Driver/src/stm32f0xx_flash.c ****   
 407:../Libraries/STM32F0xx_StdPeriph_Driver/src/stm32f0xx_flash.c ****     *(__IO uint16_t*)Address = Data;
 408:../Libraries/STM32F0xx_StdPeriph_Driver/src/stm32f0xx_flash.c **** 
 409:../Libraries/STM32F0xx_StdPeriph_Driver/src/stm32f0xx_flash.c ****     /* Wait for last operation to be completed */
 410:../Libraries/STM32F0xx_StdPeriph_Driver/src/stm32f0xx_flash.c ****     status = FLASH_WaitForLastOperation(FLASH_ER_PRG_TIMEOUT);
 411:../Libraries/STM32F0xx_StdPeriph_Driver/src/stm32f0xx_flash.c ****     
 412:../Libraries/STM32F0xx_StdPeriph_Driver/src/stm32f0xx_flash.c ****     /* Disable the PG Bit */
 413:../Libraries/STM32F0xx_StdPeriph_Driver/src/stm32f0xx_flash.c ****     FLASH->CR &= ~FLASH_CR_PG;
 414:../Libraries/STM32F0xx_StdPeriph_Driver/src/stm32f0xx_flash.c ****   } 
 415:../Libraries/STM32F0xx_StdPeriph_Driver/src/stm32f0xx_flash.c ****   
 416:../Libraries/STM32F0xx_StdPeriph_Driver/src/stm32f0xx_flash.c ****   /* Return the Program Status */
 417:../Libraries/STM32F0xx_StdPeriph_Driver/src/stm32f0xx_flash.c ****   return status;
 418:../Libraries/STM32F0xx_StdPeriph_Driver/src/stm32f0xx_flash.c **** }
 419:../Libraries/STM32F0xx_StdPeriph_Driver/src/stm32f0xx_flash.c **** 
 420:../Libraries/STM32F0xx_StdPeriph_Driver/src/stm32f0xx_flash.c **** /**
 421:../Libraries/STM32F0xx_StdPeriph_Driver/src/stm32f0xx_flash.c ****   * @}
 422:../Libraries/STM32F0xx_StdPeriph_Driver/src/stm32f0xx_flash.c ****   */
 423:../Libraries/STM32F0xx_StdPeriph_Driver/src/stm32f0xx_flash.c ****   
 424:../Libraries/STM32F0xx_StdPeriph_Driver/src/stm32f0xx_flash.c **** /** @defgroup FLASH_Group3 Option Bytes Programming functions
 425:../Libraries/STM32F0xx_StdPeriph_Driver/src/stm32f0xx_flash.c ****  *  @brief   Option Bytes Programming functions 
 426:../Libraries/STM32F0xx_StdPeriph_Driver/src/stm32f0xx_flash.c ****  *
 427:../Libraries/STM32F0xx_StdPeriph_Driver/src/stm32f0xx_flash.c **** @verbatim   
 428:../Libraries/STM32F0xx_StdPeriph_Driver/src/stm32f0xx_flash.c ****  ===============================================================================
 429:../Libraries/STM32F0xx_StdPeriph_Driver/src/stm32f0xx_flash.c ****                 ##### Option Bytes Programming functions #####
 430:../Libraries/STM32F0xx_StdPeriph_Driver/src/stm32f0xx_flash.c ****  ===============================================================================
 431:../Libraries/STM32F0xx_StdPeriph_Driver/src/stm32f0xx_flash.c **** 
 432:../Libraries/STM32F0xx_StdPeriph_Driver/src/stm32f0xx_flash.c ****     [..] The FLASH_Option Bytes Programming_functions, includes the following functions:
 433:../Libraries/STM32F0xx_StdPeriph_Driver/src/stm32f0xx_flash.c ****        (+) void FLASH_OB_Unlock(void);
 434:../Libraries/STM32F0xx_StdPeriph_Driver/src/stm32f0xx_flash.c ****        (+) void FLASH_OB_Lock(void);
 435:../Libraries/STM32F0xx_StdPeriph_Driver/src/stm32f0xx_flash.c ****        (+) void FLASH_OB_Launch(void);
 436:../Libraries/STM32F0xx_StdPeriph_Driver/src/stm32f0xx_flash.c ****        (+) FLASH_Status FLASH_OB_Erase(void);
 437:../Libraries/STM32F0xx_StdPeriph_Driver/src/stm32f0xx_flash.c ****        (+) FLASH_Status FLASH_OB_WRPConfig(uint32_t OB_WRP, FunctionalState NewState);
 438:../Libraries/STM32F0xx_StdPeriph_Driver/src/stm32f0xx_flash.c ****        (+) FLASH_Status FLASH_OB_RDPConfig(uint8_t OB_RDP);
 439:../Libraries/STM32F0xx_StdPeriph_Driver/src/stm32f0xx_flash.c ****        (+) FLASH_Status FLASH_OB_UserConfig(uint8_t OB_IWDG, uint8_t OB_STOP, uint8_t OB_STDBY);
 440:../Libraries/STM32F0xx_StdPeriph_Driver/src/stm32f0xx_flash.c ****        (+) FLASH_Status FLASH_OB_BOOTConfig(uint8_t OB_BOOT1);
 441:../Libraries/STM32F0xx_StdPeriph_Driver/src/stm32f0xx_flash.c ****        (+) FLASH_Status FLASH_OB_VDDAConfig(uint8_t OB_VDDA_ANALOG);
 442:../Libraries/STM32F0xx_StdPeriph_Driver/src/stm32f0xx_flash.c ****        (+) FLASH_Status FLASH_OB_WriteUser(uint8_t OB_USER);
 443:../Libraries/STM32F0xx_StdPeriph_Driver/src/stm32f0xx_flash.c ****        (+) FLASH_OB_ProgramData(uint32_t Address, uint8_t Data);
 444:../Libraries/STM32F0xx_StdPeriph_Driver/src/stm32f0xx_flash.c ****        (+) uint8_t FLASH_OB_GetUser(void);
 445:../Libraries/STM32F0xx_StdPeriph_Driver/src/stm32f0xx_flash.c ****        (+) uint32_t FLASH_OB_GetWRP(void);
 446:../Libraries/STM32F0xx_StdPeriph_Driver/src/stm32f0xx_flash.c ****        (+) FlagStatus FLASH_OB_GetRDP(void);
 447:../Libraries/STM32F0xx_StdPeriph_Driver/src/stm32f0xx_flash.c **** 
 448:../Libraries/STM32F0xx_StdPeriph_Driver/src/stm32f0xx_flash.c ****     [..] Any operation of erase or program should follow these steps:
 449:../Libraries/STM32F0xx_StdPeriph_Driver/src/stm32f0xx_flash.c **** 
 450:../Libraries/STM32F0xx_StdPeriph_Driver/src/stm32f0xx_flash.c ****    (#) Call the FLASH_OB_Unlock() function to enable the Option Bytes registers access
 451:../Libraries/STM32F0xx_StdPeriph_Driver/src/stm32f0xx_flash.c **** 
 452:../Libraries/STM32F0xx_StdPeriph_Driver/src/stm32f0xx_flash.c ****    (#) Call one or several functions to program the desired option bytes 
 453:../Libraries/STM32F0xx_StdPeriph_Driver/src/stm32f0xx_flash.c ****       (++) FLASH_Status FLASH_OB_RDPConfig(uint8_t OB_RDP) => to set the desired read Protection Le
 454:../Libraries/STM32F0xx_StdPeriph_Driver/src/stm32f0xx_flash.c ****       (++) FLASH_Status FLASH_OB_WRPConfig(uint32_t OB_WRP, FunctionalState NewState) 
 455:../Libraries/STM32F0xx_StdPeriph_Driver/src/stm32f0xx_flash.c ****            => to Enable/Disable the desired sector write protection
 456:../Libraries/STM32F0xx_StdPeriph_Driver/src/stm32f0xx_flash.c ****       (++) FLASH_Status FLASH_OB_UserConfig(uint8_t OB_IWDG, uint8_t OB_STOP, uint8_t OB_STDBY) 
 457:../Libraries/STM32F0xx_StdPeriph_Driver/src/stm32f0xx_flash.c ****            => to configure the user option Bytes: IWDG, STOP and the Standby.
 458:../Libraries/STM32F0xx_StdPeriph_Driver/src/stm32f0xx_flash.c ****       (++) FLASH_Status FLASH_OB_BOOTConfig(uint8_t OB_BOOT1)
 459:../Libraries/STM32F0xx_StdPeriph_Driver/src/stm32f0xx_flash.c ****            => to set or reset BOOT1 
 460:../Libraries/STM32F0xx_StdPeriph_Driver/src/stm32f0xx_flash.c ****       (++) FLASH_Status FLASH_OB_VDDAConfig(uint8_t OB_VDDA_ANALOG) 
 461:../Libraries/STM32F0xx_StdPeriph_Driver/src/stm32f0xx_flash.c ****            => to enable or disable the VDDA Analog Monitoring 			 
 462:../Libraries/STM32F0xx_StdPeriph_Driver/src/stm32f0xx_flash.c ****       (++) You can write all User Options bytes at once using a single function
 463:../Libraries/STM32F0xx_StdPeriph_Driver/src/stm32f0xx_flash.c ****            by calling FLASH_Status FLASH_OB_WriteUser(uint8_t OB_USER)
 464:../Libraries/STM32F0xx_StdPeriph_Driver/src/stm32f0xx_flash.c ****       (++) FLASH_OB_ProgramData(uint32_t Address, uint8_t Data) to program the 
 465:../Libraries/STM32F0xx_StdPeriph_Driver/src/stm32f0xx_flash.c ****            two half word in the option bytes
 466:../Libraries/STM32F0xx_StdPeriph_Driver/src/stm32f0xx_flash.c **** 
 467:../Libraries/STM32F0xx_StdPeriph_Driver/src/stm32f0xx_flash.c ****    (#) Once all needed option bytes to be programmed are correctly written, call the
 468:../Libraries/STM32F0xx_StdPeriph_Driver/src/stm32f0xx_flash.c ****       FLASH_OB_Launch(void) function to launch the Option Bytes programming process.
 469:../Libraries/STM32F0xx_StdPeriph_Driver/src/stm32f0xx_flash.c **** 
 470:../Libraries/STM32F0xx_StdPeriph_Driver/src/stm32f0xx_flash.c ****    (#) Call the FLASH_OB_Lock() to disable the Option Bytes registers access (recommended
 471:../Libraries/STM32F0xx_StdPeriph_Driver/src/stm32f0xx_flash.c ****       to protect the option Bytes against possible unwanted operations)
 472:../Libraries/STM32F0xx_StdPeriph_Driver/src/stm32f0xx_flash.c **** 
 473:../Libraries/STM32F0xx_StdPeriph_Driver/src/stm32f0xx_flash.c **** @endverbatim
 474:../Libraries/STM32F0xx_StdPeriph_Driver/src/stm32f0xx_flash.c ****   * @{
 475:../Libraries/STM32F0xx_StdPeriph_Driver/src/stm32f0xx_flash.c ****   */
 476:../Libraries/STM32F0xx_StdPeriph_Driver/src/stm32f0xx_flash.c **** 
 477:../Libraries/STM32F0xx_StdPeriph_Driver/src/stm32f0xx_flash.c **** /**
 478:../Libraries/STM32F0xx_StdPeriph_Driver/src/stm32f0xx_flash.c ****   * @brief  Unlocks the option bytes block access.
 479:../Libraries/STM32F0xx_StdPeriph_Driver/src/stm32f0xx_flash.c ****   * @param  None
 480:../Libraries/STM32F0xx_StdPeriph_Driver/src/stm32f0xx_flash.c ****   * @retval None
 481:../Libraries/STM32F0xx_StdPeriph_Driver/src/stm32f0xx_flash.c ****   */
 482:../Libraries/STM32F0xx_StdPeriph_Driver/src/stm32f0xx_flash.c **** void FLASH_OB_Unlock(void)
 483:../Libraries/STM32F0xx_StdPeriph_Driver/src/stm32f0xx_flash.c **** {
 197              		.loc 1 483 0
 198              		.cfi_startproc
 199 0000 00B5     		push	{lr}
 200              	.LCFI2:
 201              		.cfi_def_cfa_offset 4
 202              		.cfi_offset 14, -4
 484:../Libraries/STM32F0xx_StdPeriph_Driver/src/stm32f0xx_flash.c ****   if((FLASH->CR & FLASH_CR_OPTWRE) == RESET)
 203              		.loc 1 484 0
 204 0002 044B     		ldr	r3, .L22
 205 0004 1A69     		ldr	r2, [r3, #16]
 206 0006 9105     		lsl	r1, r2, #22
 207 0008 03D4     		bmi	.L20
 485:../Libraries/STM32F0xx_StdPeriph_Driver/src/stm32f0xx_flash.c ****   { 
 486:../Libraries/STM32F0xx_StdPeriph_Driver/src/stm32f0xx_flash.c ****     /* Unlocking the option bytes block access */
 487:../Libraries/STM32F0xx_StdPeriph_Driver/src/stm32f0xx_flash.c ****     FLASH->OPTKEYR = FLASH_OPTKEY1;
 208              		.loc 1 487 0
 209 000a 0349     		ldr	r1, .L22+4
 488:../Libraries/STM32F0xx_StdPeriph_Driver/src/stm32f0xx_flash.c ****     FLASH->OPTKEYR = FLASH_OPTKEY2;
 210              		.loc 1 488 0
 211 000c 0348     		ldr	r0, .L22+8
 487:../Libraries/STM32F0xx_StdPeriph_Driver/src/stm32f0xx_flash.c ****     FLASH->OPTKEYR = FLASH_OPTKEY1;
 212              		.loc 1 487 0
 213 000e 9960     		str	r1, [r3, #8]
 214              		.loc 1 488 0
 215 0010 9860     		str	r0, [r3, #8]
 216              	.L20:
 217              		@ sp needed for prologue
 489:../Libraries/STM32F0xx_StdPeriph_Driver/src/stm32f0xx_flash.c ****   }
 490:../Libraries/STM32F0xx_StdPeriph_Driver/src/stm32f0xx_flash.c **** }
 218              		.loc 1 490 0
 219 0012 00BD     		pop	{pc}
 220              	.L23:
 221              		.align	2
 222              	.L22:
 223 0014 00200240 		.word	1073881088
 224 0018 23016745 		.word	1164378403
 225 001c AB89EFCD 		.word	-839939669
 226              		.cfi_endproc
 227              	.LFE42:
 229              		.section	.text.FLASH_OB_Lock,"ax",%progbits
 230              		.align	1
 231              		.global	FLASH_OB_Lock
 232              		.code	16
 233              		.thumb_func
 235              	FLASH_OB_Lock:
 236              	.LFB43:
 491:../Libraries/STM32F0xx_StdPeriph_Driver/src/stm32f0xx_flash.c **** 
 492:../Libraries/STM32F0xx_StdPeriph_Driver/src/stm32f0xx_flash.c **** /**
 493:../Libraries/STM32F0xx_StdPeriph_Driver/src/stm32f0xx_flash.c ****   * @brief  Locks the option bytes block access.
 494:../Libraries/STM32F0xx_StdPeriph_Driver/src/stm32f0xx_flash.c ****   * @param  None
 495:../Libraries/STM32F0xx_StdPeriph_Driver/src/stm32f0xx_flash.c ****   * @retval None
 496:../Libraries/STM32F0xx_StdPeriph_Driver/src/stm32f0xx_flash.c ****   */
 497:../Libraries/STM32F0xx_StdPeriph_Driver/src/stm32f0xx_flash.c **** void FLASH_OB_Lock(void)
 498:../Libraries/STM32F0xx_StdPeriph_Driver/src/stm32f0xx_flash.c **** {
 237              		.loc 1 498 0
 238              		.cfi_startproc
 499:../Libraries/STM32F0xx_StdPeriph_Driver/src/stm32f0xx_flash.c ****   /* Set the OPTWREN Bit to lock the option bytes block access */
 500:../Libraries/STM32F0xx_StdPeriph_Driver/src/stm32f0xx_flash.c ****   FLASH->CR &= ~FLASH_CR_OPTWRE;
 239              		.loc 1 500 0
 240 0000 024B     		ldr	r3, .L25
 241 0002 034A     		ldr	r2, .L25+4
 242 0004 1969     		ldr	r1, [r3, #16]
 243              		@ sp needed for prologue
 244 0006 0A40     		and	r2, r1
 245 0008 1A61     		str	r2, [r3, #16]
 501:../Libraries/STM32F0xx_StdPeriph_Driver/src/stm32f0xx_flash.c **** }
 246              		.loc 1 501 0
 247 000a 7047     		bx	lr
 248              	.L26:
 249              		.align	2
 250              	.L25:
 251 000c 00200240 		.word	1073881088
 252 0010 FFFDFFFF 		.word	-513
 253              		.cfi_endproc
 254              	.LFE43:
 256              		.section	.text.FLASH_OB_Launch,"ax",%progbits
 257              		.align	1
 258              		.global	FLASH_OB_Launch
 259              		.code	16
 260              		.thumb_func
 262              	FLASH_OB_Launch:
 263              	.LFB44:
 502:../Libraries/STM32F0xx_StdPeriph_Driver/src/stm32f0xx_flash.c **** 
 503:../Libraries/STM32F0xx_StdPeriph_Driver/src/stm32f0xx_flash.c **** /**
 504:../Libraries/STM32F0xx_StdPeriph_Driver/src/stm32f0xx_flash.c ****   * @brief  Launch the option byte loading.
 505:../Libraries/STM32F0xx_StdPeriph_Driver/src/stm32f0xx_flash.c ****   * @param  None
 506:../Libraries/STM32F0xx_StdPeriph_Driver/src/stm32f0xx_flash.c ****   * @retval None
 507:../Libraries/STM32F0xx_StdPeriph_Driver/src/stm32f0xx_flash.c ****   */
 508:../Libraries/STM32F0xx_StdPeriph_Driver/src/stm32f0xx_flash.c **** void FLASH_OB_Launch(void)
 509:../Libraries/STM32F0xx_StdPeriph_Driver/src/stm32f0xx_flash.c **** {
 264              		.loc 1 509 0
 265              		.cfi_startproc
 510:../Libraries/STM32F0xx_StdPeriph_Driver/src/stm32f0xx_flash.c ****   /* Set the OBL_Launch bit to launch the option byte loading */
 511:../Libraries/STM32F0xx_StdPeriph_Driver/src/stm32f0xx_flash.c ****   FLASH->CR |= FLASH_CR_OBL_LAUNCH;
 266              		.loc 1 511 0
 267 0000 034B     		ldr	r3, .L28
 268 0002 8020     		mov	r0, #128
 269 0004 1969     		ldr	r1, [r3, #16]
 270 0006 8201     		lsl	r2, r0, #6
 271 0008 0A43     		orr	r2, r1
 272 000a 1A61     		str	r2, [r3, #16]
 273              		@ sp needed for prologue
 512:../Libraries/STM32F0xx_StdPeriph_Driver/src/stm32f0xx_flash.c **** }
 274              		.loc 1 512 0
 275 000c 7047     		bx	lr
 276              	.L29:
 277 000e C046     		.align	2
 278              	.L28:
 279 0010 00200240 		.word	1073881088
 280              		.cfi_endproc
 281              	.LFE44:
 283              		.section	.text.FLASH_OB_GetUser,"ax",%progbits
 284              		.align	1
 285              		.global	FLASH_OB_GetUser
 286              		.code	16
 287              		.thumb_func
 289              	FLASH_OB_GetUser:
 290              	.LFB56:
 513:../Libraries/STM32F0xx_StdPeriph_Driver/src/stm32f0xx_flash.c **** 
 514:../Libraries/STM32F0xx_StdPeriph_Driver/src/stm32f0xx_flash.c **** /**
 515:../Libraries/STM32F0xx_StdPeriph_Driver/src/stm32f0xx_flash.c ****   * @brief  Erases the FLASH option bytes.
 516:../Libraries/STM32F0xx_StdPeriph_Driver/src/stm32f0xx_flash.c ****   * @note   To correctly run this function, the FLASH_OB_Unlock() function must be called before.
 517:../Libraries/STM32F0xx_StdPeriph_Driver/src/stm32f0xx_flash.c ****   * @note   Call the FLASH_OB_Lock() to disable the flash control register access and the option
 518:../Libraries/STM32F0xx_StdPeriph_Driver/src/stm32f0xx_flash.c ****   *         bytes (recommended to protect the FLASH memory against possible unwanted operation)
 519:../Libraries/STM32F0xx_StdPeriph_Driver/src/stm32f0xx_flash.c ****   * @note   This functions erases all option bytes except the Read protection (RDP).
 520:../Libraries/STM32F0xx_StdPeriph_Driver/src/stm32f0xx_flash.c ****   * @param  None
 521:../Libraries/STM32F0xx_StdPeriph_Driver/src/stm32f0xx_flash.c ****   * @retval FLASH Status: The returned value can be: FLASH_ERROR_PG,
 522:../Libraries/STM32F0xx_StdPeriph_Driver/src/stm32f0xx_flash.c ****   *         FLASH_ERROR_WRP, FLASH_COMPLETE or FLASH_TIMEOUT.
 523:../Libraries/STM32F0xx_StdPeriph_Driver/src/stm32f0xx_flash.c ****   */
 524:../Libraries/STM32F0xx_StdPeriph_Driver/src/stm32f0xx_flash.c **** FLASH_Status FLASH_OB_Erase(void)
 525:../Libraries/STM32F0xx_StdPeriph_Driver/src/stm32f0xx_flash.c **** {
 526:../Libraries/STM32F0xx_StdPeriph_Driver/src/stm32f0xx_flash.c ****   uint16_t rdptmp = OB_RDP_Level_0;
 527:../Libraries/STM32F0xx_StdPeriph_Driver/src/stm32f0xx_flash.c **** 
 528:../Libraries/STM32F0xx_StdPeriph_Driver/src/stm32f0xx_flash.c ****   FLASH_Status status = FLASH_COMPLETE;
 529:../Libraries/STM32F0xx_StdPeriph_Driver/src/stm32f0xx_flash.c **** 
 530:../Libraries/STM32F0xx_StdPeriph_Driver/src/stm32f0xx_flash.c ****   /* Get the actual read protection Option Byte value */ 
 531:../Libraries/STM32F0xx_StdPeriph_Driver/src/stm32f0xx_flash.c ****   if(FLASH_OB_GetRDP() != RESET)
 532:../Libraries/STM32F0xx_StdPeriph_Driver/src/stm32f0xx_flash.c ****   {
 533:../Libraries/STM32F0xx_StdPeriph_Driver/src/stm32f0xx_flash.c ****     rdptmp = 0x00;  
 534:../Libraries/STM32F0xx_StdPeriph_Driver/src/stm32f0xx_flash.c ****   }
 535:../Libraries/STM32F0xx_StdPeriph_Driver/src/stm32f0xx_flash.c **** 
 536:../Libraries/STM32F0xx_StdPeriph_Driver/src/stm32f0xx_flash.c ****   /* Wait for last operation to be completed */
 537:../Libraries/STM32F0xx_StdPeriph_Driver/src/stm32f0xx_flash.c ****   status = FLASH_WaitForLastOperation(FLASH_ER_PRG_TIMEOUT);
 538:../Libraries/STM32F0xx_StdPeriph_Driver/src/stm32f0xx_flash.c **** 
 539:../Libraries/STM32F0xx_StdPeriph_Driver/src/stm32f0xx_flash.c ****   if(status == FLASH_COMPLETE)
 540:../Libraries/STM32F0xx_StdPeriph_Driver/src/stm32f0xx_flash.c ****   {   
 541:../Libraries/STM32F0xx_StdPeriph_Driver/src/stm32f0xx_flash.c ****     /* If the previous operation is completed, proceed to erase the option bytes */
 542:../Libraries/STM32F0xx_StdPeriph_Driver/src/stm32f0xx_flash.c ****     FLASH->CR |= FLASH_CR_OPTER;
 543:../Libraries/STM32F0xx_StdPeriph_Driver/src/stm32f0xx_flash.c ****     FLASH->CR |= FLASH_CR_STRT;
 544:../Libraries/STM32F0xx_StdPeriph_Driver/src/stm32f0xx_flash.c **** 
 545:../Libraries/STM32F0xx_StdPeriph_Driver/src/stm32f0xx_flash.c ****     /* Wait for last operation to be completed */
 546:../Libraries/STM32F0xx_StdPeriph_Driver/src/stm32f0xx_flash.c ****     status = FLASH_WaitForLastOperation(FLASH_ER_PRG_TIMEOUT);
 547:../Libraries/STM32F0xx_StdPeriph_Driver/src/stm32f0xx_flash.c ****     
 548:../Libraries/STM32F0xx_StdPeriph_Driver/src/stm32f0xx_flash.c ****     if(status == FLASH_COMPLETE)
 549:../Libraries/STM32F0xx_StdPeriph_Driver/src/stm32f0xx_flash.c ****     {
 550:../Libraries/STM32F0xx_StdPeriph_Driver/src/stm32f0xx_flash.c ****       /* If the erase operation is completed, disable the OPTER Bit */
 551:../Libraries/STM32F0xx_StdPeriph_Driver/src/stm32f0xx_flash.c ****       FLASH->CR &= ~FLASH_CR_OPTER;
 552:../Libraries/STM32F0xx_StdPeriph_Driver/src/stm32f0xx_flash.c ****        
 553:../Libraries/STM32F0xx_StdPeriph_Driver/src/stm32f0xx_flash.c ****       /* Enable the Option Bytes Programming operation */
 554:../Libraries/STM32F0xx_StdPeriph_Driver/src/stm32f0xx_flash.c ****       FLASH->CR |= FLASH_CR_OPTPG;
 555:../Libraries/STM32F0xx_StdPeriph_Driver/src/stm32f0xx_flash.c **** 
 556:../Libraries/STM32F0xx_StdPeriph_Driver/src/stm32f0xx_flash.c ****       /* Restore the last read protection Option Byte value */
 557:../Libraries/STM32F0xx_StdPeriph_Driver/src/stm32f0xx_flash.c ****       OB->RDP = (uint16_t)rdptmp; 
 558:../Libraries/STM32F0xx_StdPeriph_Driver/src/stm32f0xx_flash.c **** 
 559:../Libraries/STM32F0xx_StdPeriph_Driver/src/stm32f0xx_flash.c ****       /* Wait for last operation to be completed */
 560:../Libraries/STM32F0xx_StdPeriph_Driver/src/stm32f0xx_flash.c ****       status = FLASH_WaitForLastOperation(FLASH_ER_PRG_TIMEOUT);
 561:../Libraries/STM32F0xx_StdPeriph_Driver/src/stm32f0xx_flash.c ****  
 562:../Libraries/STM32F0xx_StdPeriph_Driver/src/stm32f0xx_flash.c ****       if(status != FLASH_TIMEOUT)
 563:../Libraries/STM32F0xx_StdPeriph_Driver/src/stm32f0xx_flash.c ****       {
 564:../Libraries/STM32F0xx_StdPeriph_Driver/src/stm32f0xx_flash.c ****         /* if the program operation is completed, disable the OPTPG Bit */
 565:../Libraries/STM32F0xx_StdPeriph_Driver/src/stm32f0xx_flash.c ****         FLASH->CR &= ~FLASH_CR_OPTPG;
 566:../Libraries/STM32F0xx_StdPeriph_Driver/src/stm32f0xx_flash.c ****       }
 567:../Libraries/STM32F0xx_StdPeriph_Driver/src/stm32f0xx_flash.c ****     }
 568:../Libraries/STM32F0xx_StdPeriph_Driver/src/stm32f0xx_flash.c ****     else
 569:../Libraries/STM32F0xx_StdPeriph_Driver/src/stm32f0xx_flash.c ****     {
 570:../Libraries/STM32F0xx_StdPeriph_Driver/src/stm32f0xx_flash.c ****       if (status != FLASH_TIMEOUT)
 571:../Libraries/STM32F0xx_StdPeriph_Driver/src/stm32f0xx_flash.c ****       {
 572:../Libraries/STM32F0xx_StdPeriph_Driver/src/stm32f0xx_flash.c ****         /* Disable the OPTPG Bit */
 573:../Libraries/STM32F0xx_StdPeriph_Driver/src/stm32f0xx_flash.c ****         FLASH->CR &= ~FLASH_CR_OPTPG;
 574:../Libraries/STM32F0xx_StdPeriph_Driver/src/stm32f0xx_flash.c ****       }
 575:../Libraries/STM32F0xx_StdPeriph_Driver/src/stm32f0xx_flash.c ****     }  
 576:../Libraries/STM32F0xx_StdPeriph_Driver/src/stm32f0xx_flash.c ****   }
 577:../Libraries/STM32F0xx_StdPeriph_Driver/src/stm32f0xx_flash.c ****   /* Return the erase status */
 578:../Libraries/STM32F0xx_StdPeriph_Driver/src/stm32f0xx_flash.c ****   return status;
 579:../Libraries/STM32F0xx_StdPeriph_Driver/src/stm32f0xx_flash.c **** }
 580:../Libraries/STM32F0xx_StdPeriph_Driver/src/stm32f0xx_flash.c **** 
 581:../Libraries/STM32F0xx_StdPeriph_Driver/src/stm32f0xx_flash.c **** /**
 582:../Libraries/STM32F0xx_StdPeriph_Driver/src/stm32f0xx_flash.c ****   * @brief  Write protects the desired pages
 583:../Libraries/STM32F0xx_StdPeriph_Driver/src/stm32f0xx_flash.c ****   * @note   To correctly run this function, the FLASH_OB_Unlock() function must be called before.
 584:../Libraries/STM32F0xx_StdPeriph_Driver/src/stm32f0xx_flash.c ****   * @note   Call the FLASH_OB_Lock() to disable the flash control register access and the option
 585:../Libraries/STM32F0xx_StdPeriph_Driver/src/stm32f0xx_flash.c ****   *         bytes (recommended to protect the FLASH memory against possible unwanted operation)
 586:../Libraries/STM32F0xx_StdPeriph_Driver/src/stm32f0xx_flash.c ****   * @param  OB_WRP: specifies the address of the pages to be write protected.
 587:../Libraries/STM32F0xx_StdPeriph_Driver/src/stm32f0xx_flash.c ****   *          This parameter can be:
 588:../Libraries/STM32F0xx_StdPeriph_Driver/src/stm32f0xx_flash.c ****   *             @arg OB_WRP_Pages0to3..OB_WRP_Pages60to63
 589:../Libraries/STM32F0xx_StdPeriph_Driver/src/stm32f0xx_flash.c ****   *             @arg OB_WRP_AllPages
 590:../Libraries/STM32F0xx_StdPeriph_Driver/src/stm32f0xx_flash.c ****   * @retval FLASH Status: The returned value can be: 
 591:../Libraries/STM32F0xx_StdPeriph_Driver/src/stm32f0xx_flash.c ****   *         FLASH_ERROR_PROGRAM, FLASH_ERROR_WRP, FLASH_COMPLETE or FLASH_TIMEOUT.
 592:../Libraries/STM32F0xx_StdPeriph_Driver/src/stm32f0xx_flash.c ****   */
 593:../Libraries/STM32F0xx_StdPeriph_Driver/src/stm32f0xx_flash.c **** FLASH_Status FLASH_OB_EnableWRP(uint32_t OB_WRP)
 594:../Libraries/STM32F0xx_StdPeriph_Driver/src/stm32f0xx_flash.c **** {
 595:../Libraries/STM32F0xx_StdPeriph_Driver/src/stm32f0xx_flash.c ****  uint16_t WRP0_Data = 0xFFFF, WRP1_Data = 0xFFFF, WRP2_Data = 0xFFFF, WRP3_Data = 0xFFFF;
 596:../Libraries/STM32F0xx_StdPeriph_Driver/src/stm32f0xx_flash.c **** 
 597:../Libraries/STM32F0xx_StdPeriph_Driver/src/stm32f0xx_flash.c ****   FLASH_Status status = FLASH_COMPLETE;
 598:../Libraries/STM32F0xx_StdPeriph_Driver/src/stm32f0xx_flash.c **** 
 599:../Libraries/STM32F0xx_StdPeriph_Driver/src/stm32f0xx_flash.c ****   /* Check the parameters */
 600:../Libraries/STM32F0xx_StdPeriph_Driver/src/stm32f0xx_flash.c ****   assert_param(IS_OB_WRP(OB_WRP));
 601:../Libraries/STM32F0xx_StdPeriph_Driver/src/stm32f0xx_flash.c **** 
 602:../Libraries/STM32F0xx_StdPeriph_Driver/src/stm32f0xx_flash.c ****   OB_WRP = (uint32_t)(~OB_WRP);
 603:../Libraries/STM32F0xx_StdPeriph_Driver/src/stm32f0xx_flash.c ****   WRP0_Data = (uint16_t)(OB_WRP & OB_WRP0_WRP0);
 604:../Libraries/STM32F0xx_StdPeriph_Driver/src/stm32f0xx_flash.c ****   WRP1_Data = (uint16_t)((OB_WRP >> 8) & OB_WRP0_WRP0);
 605:../Libraries/STM32F0xx_StdPeriph_Driver/src/stm32f0xx_flash.c ****   WRP2_Data = (uint16_t)((OB_WRP >> 16) & OB_WRP0_WRP0) ;
 606:../Libraries/STM32F0xx_StdPeriph_Driver/src/stm32f0xx_flash.c ****   WRP3_Data = (uint16_t)((OB_WRP >> 24) & OB_WRP0_WRP0) ;
 607:../Libraries/STM32F0xx_StdPeriph_Driver/src/stm32f0xx_flash.c ****     
 608:../Libraries/STM32F0xx_StdPeriph_Driver/src/stm32f0xx_flash.c ****   /* Wait for last operation to be completed */
 609:../Libraries/STM32F0xx_StdPeriph_Driver/src/stm32f0xx_flash.c ****   status = FLASH_WaitForLastOperation(FLASH_ER_PRG_TIMEOUT);
 610:../Libraries/STM32F0xx_StdPeriph_Driver/src/stm32f0xx_flash.c **** 
 611:../Libraries/STM32F0xx_StdPeriph_Driver/src/stm32f0xx_flash.c ****   if(status == FLASH_COMPLETE)
 612:../Libraries/STM32F0xx_StdPeriph_Driver/src/stm32f0xx_flash.c ****   {
 613:../Libraries/STM32F0xx_StdPeriph_Driver/src/stm32f0xx_flash.c ****     FLASH->CR |= FLASH_CR_OPTPG;
 614:../Libraries/STM32F0xx_StdPeriph_Driver/src/stm32f0xx_flash.c **** 
 615:../Libraries/STM32F0xx_StdPeriph_Driver/src/stm32f0xx_flash.c ****     if(WRP0_Data != 0xFF)
 616:../Libraries/STM32F0xx_StdPeriph_Driver/src/stm32f0xx_flash.c ****     {
 617:../Libraries/STM32F0xx_StdPeriph_Driver/src/stm32f0xx_flash.c ****       OB->WRP0 = WRP0_Data;
 618:../Libraries/STM32F0xx_StdPeriph_Driver/src/stm32f0xx_flash.c ****       
 619:../Libraries/STM32F0xx_StdPeriph_Driver/src/stm32f0xx_flash.c ****       /* Wait for last operation to be completed */
 620:../Libraries/STM32F0xx_StdPeriph_Driver/src/stm32f0xx_flash.c ****       status = FLASH_WaitForLastOperation(FLASH_ER_PRG_TIMEOUT);
 621:../Libraries/STM32F0xx_StdPeriph_Driver/src/stm32f0xx_flash.c ****     }
 622:../Libraries/STM32F0xx_StdPeriph_Driver/src/stm32f0xx_flash.c ****     if((status == FLASH_COMPLETE) && (WRP1_Data != 0xFF))
 623:../Libraries/STM32F0xx_StdPeriph_Driver/src/stm32f0xx_flash.c ****     {
 624:../Libraries/STM32F0xx_StdPeriph_Driver/src/stm32f0xx_flash.c ****       OB->WRP1 = WRP1_Data;
 625:../Libraries/STM32F0xx_StdPeriph_Driver/src/stm32f0xx_flash.c ****       
 626:../Libraries/STM32F0xx_StdPeriph_Driver/src/stm32f0xx_flash.c ****       /* Wait for last operation to be completed */
 627:../Libraries/STM32F0xx_StdPeriph_Driver/src/stm32f0xx_flash.c ****       status = FLASH_WaitForLastOperation(FLASH_ER_PRG_TIMEOUT);
 628:../Libraries/STM32F0xx_StdPeriph_Driver/src/stm32f0xx_flash.c ****     }
 629:../Libraries/STM32F0xx_StdPeriph_Driver/src/stm32f0xx_flash.c ****     if((status == FLASH_COMPLETE) && (WRP2_Data != 0xFF))
 630:../Libraries/STM32F0xx_StdPeriph_Driver/src/stm32f0xx_flash.c ****     {
 631:../Libraries/STM32F0xx_StdPeriph_Driver/src/stm32f0xx_flash.c ****       OB->WRP2 = WRP2_Data;
 632:../Libraries/STM32F0xx_StdPeriph_Driver/src/stm32f0xx_flash.c ****       
 633:../Libraries/STM32F0xx_StdPeriph_Driver/src/stm32f0xx_flash.c ****       /* Wait for last operation to be completed */
 634:../Libraries/STM32F0xx_StdPeriph_Driver/src/stm32f0xx_flash.c ****       status = FLASH_WaitForLastOperation(FLASH_ER_PRG_TIMEOUT);
 635:../Libraries/STM32F0xx_StdPeriph_Driver/src/stm32f0xx_flash.c ****     }    
 636:../Libraries/STM32F0xx_StdPeriph_Driver/src/stm32f0xx_flash.c ****     if((status == FLASH_COMPLETE) && (WRP3_Data != 0xFF))
 637:../Libraries/STM32F0xx_StdPeriph_Driver/src/stm32f0xx_flash.c ****     {
 638:../Libraries/STM32F0xx_StdPeriph_Driver/src/stm32f0xx_flash.c ****       OB->WRP3 = WRP3_Data;
 639:../Libraries/STM32F0xx_StdPeriph_Driver/src/stm32f0xx_flash.c ****       
 640:../Libraries/STM32F0xx_StdPeriph_Driver/src/stm32f0xx_flash.c ****       /* Wait for last operation to be completed */
 641:../Libraries/STM32F0xx_StdPeriph_Driver/src/stm32f0xx_flash.c ****       status = FLASH_WaitForLastOperation(FLASH_ER_PRG_TIMEOUT);
 642:../Libraries/STM32F0xx_StdPeriph_Driver/src/stm32f0xx_flash.c ****     }  
 643:../Libraries/STM32F0xx_StdPeriph_Driver/src/stm32f0xx_flash.c ****     if(status != FLASH_TIMEOUT)
 644:../Libraries/STM32F0xx_StdPeriph_Driver/src/stm32f0xx_flash.c ****     {
 645:../Libraries/STM32F0xx_StdPeriph_Driver/src/stm32f0xx_flash.c ****       /* if the program operation is completed, disable the OPTPG Bit */
 646:../Libraries/STM32F0xx_StdPeriph_Driver/src/stm32f0xx_flash.c ****       FLASH->CR &= ~FLASH_CR_OPTPG;
 647:../Libraries/STM32F0xx_StdPeriph_Driver/src/stm32f0xx_flash.c ****     }
 648:../Libraries/STM32F0xx_StdPeriph_Driver/src/stm32f0xx_flash.c ****   } 
 649:../Libraries/STM32F0xx_StdPeriph_Driver/src/stm32f0xx_flash.c ****   /* Return the write protection operation Status */
 650:../Libraries/STM32F0xx_StdPeriph_Driver/src/stm32f0xx_flash.c ****   return status;
 651:../Libraries/STM32F0xx_StdPeriph_Driver/src/stm32f0xx_flash.c **** }
 652:../Libraries/STM32F0xx_StdPeriph_Driver/src/stm32f0xx_flash.c **** 
 653:../Libraries/STM32F0xx_StdPeriph_Driver/src/stm32f0xx_flash.c **** /**
 654:../Libraries/STM32F0xx_StdPeriph_Driver/src/stm32f0xx_flash.c ****   * @brief  Enables or disables the read out protection.
 655:../Libraries/STM32F0xx_StdPeriph_Driver/src/stm32f0xx_flash.c ****   * @note   To correctly run this function, the FLASH_OB_Unlock() function must be called before.
 656:../Libraries/STM32F0xx_StdPeriph_Driver/src/stm32f0xx_flash.c ****   * @note   Call the FLASH_OB_Lock() to disable the flash control register access and the option
 657:../Libraries/STM32F0xx_StdPeriph_Driver/src/stm32f0xx_flash.c ****   *         bytes (recommended to protect the FLASH memory against possible unwanted operation)
 658:../Libraries/STM32F0xx_StdPeriph_Driver/src/stm32f0xx_flash.c ****   * @param  FLASH_ReadProtection_Level: specifies the read protection level. 
 659:../Libraries/STM32F0xx_StdPeriph_Driver/src/stm32f0xx_flash.c ****   *          This parameter can be:
 660:../Libraries/STM32F0xx_StdPeriph_Driver/src/stm32f0xx_flash.c ****   *             @arg OB_RDP_Level_0: No protection
 661:../Libraries/STM32F0xx_StdPeriph_Driver/src/stm32f0xx_flash.c ****   *             @arg OB_RDP_Level_1: Read protection of the memory
 662:../Libraries/STM32F0xx_StdPeriph_Driver/src/stm32f0xx_flash.c ****   *             @arg OB_RDP_Level_2: Chip protection
 663:../Libraries/STM32F0xx_StdPeriph_Driver/src/stm32f0xx_flash.c ****   * @note   When enabling OB_RDP level 2 it's no more possible to go back to level 1 or 0
 664:../Libraries/STM32F0xx_StdPeriph_Driver/src/stm32f0xx_flash.c ****   * @retval FLASH Status: The returned value can be: 
 665:../Libraries/STM32F0xx_StdPeriph_Driver/src/stm32f0xx_flash.c ****   *         FLASH_ERROR_PROGRAM, FLASH_ERROR_WRP, FLASH_COMPLETE or FLASH_TIMEOUT.
 666:../Libraries/STM32F0xx_StdPeriph_Driver/src/stm32f0xx_flash.c ****   */
 667:../Libraries/STM32F0xx_StdPeriph_Driver/src/stm32f0xx_flash.c **** FLASH_Status FLASH_OB_RDPConfig(uint8_t OB_RDP)
 668:../Libraries/STM32F0xx_StdPeriph_Driver/src/stm32f0xx_flash.c **** {
 669:../Libraries/STM32F0xx_StdPeriph_Driver/src/stm32f0xx_flash.c ****   FLASH_Status status = FLASH_COMPLETE;
 670:../Libraries/STM32F0xx_StdPeriph_Driver/src/stm32f0xx_flash.c ****   
 671:../Libraries/STM32F0xx_StdPeriph_Driver/src/stm32f0xx_flash.c ****   /* Check the parameters */
 672:../Libraries/STM32F0xx_StdPeriph_Driver/src/stm32f0xx_flash.c ****   assert_param(IS_OB_RDP(OB_RDP));
 673:../Libraries/STM32F0xx_StdPeriph_Driver/src/stm32f0xx_flash.c ****   status = FLASH_WaitForLastOperation(FLASH_ER_PRG_TIMEOUT);
 674:../Libraries/STM32F0xx_StdPeriph_Driver/src/stm32f0xx_flash.c ****   
 675:../Libraries/STM32F0xx_StdPeriph_Driver/src/stm32f0xx_flash.c ****   if(status == FLASH_COMPLETE)
 676:../Libraries/STM32F0xx_StdPeriph_Driver/src/stm32f0xx_flash.c ****   {
 677:../Libraries/STM32F0xx_StdPeriph_Driver/src/stm32f0xx_flash.c ****     FLASH->CR |= FLASH_CR_OPTER;
 678:../Libraries/STM32F0xx_StdPeriph_Driver/src/stm32f0xx_flash.c ****     FLASH->CR |= FLASH_CR_STRT;
 679:../Libraries/STM32F0xx_StdPeriph_Driver/src/stm32f0xx_flash.c ****     
 680:../Libraries/STM32F0xx_StdPeriph_Driver/src/stm32f0xx_flash.c ****     /* Wait for last operation to be completed */
 681:../Libraries/STM32F0xx_StdPeriph_Driver/src/stm32f0xx_flash.c ****     status = FLASH_WaitForLastOperation(FLASH_ER_PRG_TIMEOUT);
 682:../Libraries/STM32F0xx_StdPeriph_Driver/src/stm32f0xx_flash.c ****     
 683:../Libraries/STM32F0xx_StdPeriph_Driver/src/stm32f0xx_flash.c ****     if(status == FLASH_COMPLETE)
 684:../Libraries/STM32F0xx_StdPeriph_Driver/src/stm32f0xx_flash.c ****     {
 685:../Libraries/STM32F0xx_StdPeriph_Driver/src/stm32f0xx_flash.c ****       /* If the erase operation is completed, disable the OPTER Bit */
 686:../Libraries/STM32F0xx_StdPeriph_Driver/src/stm32f0xx_flash.c ****       FLASH->CR &= ~FLASH_CR_OPTER;
 687:../Libraries/STM32F0xx_StdPeriph_Driver/src/stm32f0xx_flash.c ****       
 688:../Libraries/STM32F0xx_StdPeriph_Driver/src/stm32f0xx_flash.c ****       /* Enable the Option Bytes Programming operation */
 689:../Libraries/STM32F0xx_StdPeriph_Driver/src/stm32f0xx_flash.c ****       FLASH->CR |= FLASH_CR_OPTPG;
 690:../Libraries/STM32F0xx_StdPeriph_Driver/src/stm32f0xx_flash.c ****        
 691:../Libraries/STM32F0xx_StdPeriph_Driver/src/stm32f0xx_flash.c ****       OB->RDP = OB_RDP;
 692:../Libraries/STM32F0xx_StdPeriph_Driver/src/stm32f0xx_flash.c **** 
 693:../Libraries/STM32F0xx_StdPeriph_Driver/src/stm32f0xx_flash.c ****       /* Wait for last operation to be completed */
 694:../Libraries/STM32F0xx_StdPeriph_Driver/src/stm32f0xx_flash.c ****       status = FLASH_WaitForLastOperation(FLASH_ER_PRG_TIMEOUT); 
 695:../Libraries/STM32F0xx_StdPeriph_Driver/src/stm32f0xx_flash.c ****     
 696:../Libraries/STM32F0xx_StdPeriph_Driver/src/stm32f0xx_flash.c ****       if(status != FLASH_TIMEOUT)
 697:../Libraries/STM32F0xx_StdPeriph_Driver/src/stm32f0xx_flash.c ****       {
 698:../Libraries/STM32F0xx_StdPeriph_Driver/src/stm32f0xx_flash.c ****         /* if the program operation is completed, disable the OPTPG Bit */
 699:../Libraries/STM32F0xx_StdPeriph_Driver/src/stm32f0xx_flash.c ****         FLASH->CR &= ~FLASH_CR_OPTPG;
 700:../Libraries/STM32F0xx_StdPeriph_Driver/src/stm32f0xx_flash.c ****       }
 701:../Libraries/STM32F0xx_StdPeriph_Driver/src/stm32f0xx_flash.c ****     }
 702:../Libraries/STM32F0xx_StdPeriph_Driver/src/stm32f0xx_flash.c ****     else 
 703:../Libraries/STM32F0xx_StdPeriph_Driver/src/stm32f0xx_flash.c ****     {
 704:../Libraries/STM32F0xx_StdPeriph_Driver/src/stm32f0xx_flash.c ****       if(status != FLASH_TIMEOUT)
 705:../Libraries/STM32F0xx_StdPeriph_Driver/src/stm32f0xx_flash.c ****       {
 706:../Libraries/STM32F0xx_StdPeriph_Driver/src/stm32f0xx_flash.c ****         /* Disable the OPTER Bit */
 707:../Libraries/STM32F0xx_StdPeriph_Driver/src/stm32f0xx_flash.c ****         FLASH->CR &= ~FLASH_CR_OPTER;
 708:../Libraries/STM32F0xx_StdPeriph_Driver/src/stm32f0xx_flash.c ****       }
 709:../Libraries/STM32F0xx_StdPeriph_Driver/src/stm32f0xx_flash.c ****     }
 710:../Libraries/STM32F0xx_StdPeriph_Driver/src/stm32f0xx_flash.c ****   }
 711:../Libraries/STM32F0xx_StdPeriph_Driver/src/stm32f0xx_flash.c ****   /* Return the protection operation Status */
 712:../Libraries/STM32F0xx_StdPeriph_Driver/src/stm32f0xx_flash.c ****   return status;
 713:../Libraries/STM32F0xx_StdPeriph_Driver/src/stm32f0xx_flash.c **** }
 714:../Libraries/STM32F0xx_StdPeriph_Driver/src/stm32f0xx_flash.c **** 
 715:../Libraries/STM32F0xx_StdPeriph_Driver/src/stm32f0xx_flash.c **** /**
 716:../Libraries/STM32F0xx_StdPeriph_Driver/src/stm32f0xx_flash.c ****   * @brief  Programs the FLASH User Option Byte: IWDG_SW / RST_STOP / RST_STDBY.
 717:../Libraries/STM32F0xx_StdPeriph_Driver/src/stm32f0xx_flash.c ****   * @note   To correctly run this function, the FLASH_OB_Unlock() function must be called before.
 718:../Libraries/STM32F0xx_StdPeriph_Driver/src/stm32f0xx_flash.c ****   * @note   Call the FLASH_OB_Lock() to disable the flash control register access and the option
 719:../Libraries/STM32F0xx_StdPeriph_Driver/src/stm32f0xx_flash.c ****   *         bytes (recommended to protect the FLASH memory against possible unwanted operation)
 720:../Libraries/STM32F0xx_StdPeriph_Driver/src/stm32f0xx_flash.c ****   * @param  OB_IWDG: Selects the WDG mode
 721:../Libraries/STM32F0xx_StdPeriph_Driver/src/stm32f0xx_flash.c ****   *          This parameter can be one of the following values:
 722:../Libraries/STM32F0xx_StdPeriph_Driver/src/stm32f0xx_flash.c ****   *             @arg OB_IWDG_SW: Software WDG selected
 723:../Libraries/STM32F0xx_StdPeriph_Driver/src/stm32f0xx_flash.c ****   *             @arg OB_IWDG_HW: Hardware WDG selected
 724:../Libraries/STM32F0xx_StdPeriph_Driver/src/stm32f0xx_flash.c ****   * @param  OB_STOP: Reset event when entering STOP mode.
 725:../Libraries/STM32F0xx_StdPeriph_Driver/src/stm32f0xx_flash.c ****   *          This parameter can be one of the following values:
 726:../Libraries/STM32F0xx_StdPeriph_Driver/src/stm32f0xx_flash.c ****   *             @arg OB_STOP_NoRST: No reset generated when entering in STOP
 727:../Libraries/STM32F0xx_StdPeriph_Driver/src/stm32f0xx_flash.c ****   *             @arg OB_STOP_RST: Reset generated when entering in STOP
 728:../Libraries/STM32F0xx_StdPeriph_Driver/src/stm32f0xx_flash.c ****   * @param  OB_STDBY: Reset event when entering Standby mode.
 729:../Libraries/STM32F0xx_StdPeriph_Driver/src/stm32f0xx_flash.c ****   *          This parameter can be one of the following values:
 730:../Libraries/STM32F0xx_StdPeriph_Driver/src/stm32f0xx_flash.c ****   *             @arg OB_STDBY_NoRST: No reset generated when entering in STANDBY
 731:../Libraries/STM32F0xx_StdPeriph_Driver/src/stm32f0xx_flash.c ****   *             @arg OB_STDBY_RST: Reset generated when entering in STANDBY
 732:../Libraries/STM32F0xx_StdPeriph_Driver/src/stm32f0xx_flash.c ****   * @retval FLASH Status: The returned value can be: 
 733:../Libraries/STM32F0xx_StdPeriph_Driver/src/stm32f0xx_flash.c ****   *         FLASH_ERROR_PROGRAM, FLASH_ERROR_WRP, FLASH_COMPLETE or FLASH_TIMEOUT.
 734:../Libraries/STM32F0xx_StdPeriph_Driver/src/stm32f0xx_flash.c ****   */
 735:../Libraries/STM32F0xx_StdPeriph_Driver/src/stm32f0xx_flash.c **** FLASH_Status FLASH_OB_UserConfig(uint8_t OB_IWDG, uint8_t OB_STOP, uint8_t OB_STDBY)
 736:../Libraries/STM32F0xx_StdPeriph_Driver/src/stm32f0xx_flash.c **** {
 737:../Libraries/STM32F0xx_StdPeriph_Driver/src/stm32f0xx_flash.c ****   FLASH_Status status = FLASH_COMPLETE; 
 738:../Libraries/STM32F0xx_StdPeriph_Driver/src/stm32f0xx_flash.c **** 
 739:../Libraries/STM32F0xx_StdPeriph_Driver/src/stm32f0xx_flash.c ****   /* Check the parameters */
 740:../Libraries/STM32F0xx_StdPeriph_Driver/src/stm32f0xx_flash.c ****   assert_param(IS_OB_IWDG_SOURCE(OB_IWDG));
 741:../Libraries/STM32F0xx_StdPeriph_Driver/src/stm32f0xx_flash.c ****   assert_param(IS_OB_STOP_SOURCE(OB_STOP));
 742:../Libraries/STM32F0xx_StdPeriph_Driver/src/stm32f0xx_flash.c ****   assert_param(IS_OB_STDBY_SOURCE(OB_STDBY));
 743:../Libraries/STM32F0xx_StdPeriph_Driver/src/stm32f0xx_flash.c **** 
 744:../Libraries/STM32F0xx_StdPeriph_Driver/src/stm32f0xx_flash.c ****   /* Wait for last operation to be completed */
 745:../Libraries/STM32F0xx_StdPeriph_Driver/src/stm32f0xx_flash.c ****   status = FLASH_WaitForLastOperation(FLASH_ER_PRG_TIMEOUT);
 746:../Libraries/STM32F0xx_StdPeriph_Driver/src/stm32f0xx_flash.c ****   
 747:../Libraries/STM32F0xx_StdPeriph_Driver/src/stm32f0xx_flash.c ****   if(status == FLASH_COMPLETE)
 748:../Libraries/STM32F0xx_StdPeriph_Driver/src/stm32f0xx_flash.c ****   {
 749:../Libraries/STM32F0xx_StdPeriph_Driver/src/stm32f0xx_flash.c ****     /* Enable the Option Bytes Programming operation */
 750:../Libraries/STM32F0xx_StdPeriph_Driver/src/stm32f0xx_flash.c ****     FLASH->CR |= FLASH_CR_OPTPG; 
 751:../Libraries/STM32F0xx_StdPeriph_Driver/src/stm32f0xx_flash.c **** 
 752:../Libraries/STM32F0xx_StdPeriph_Driver/src/stm32f0xx_flash.c ****     OB->USER = (uint16_t)((uint16_t)(OB_IWDG | OB_STOP) | (uint16_t)(OB_STDBY | 0xF8));
 753:../Libraries/STM32F0xx_StdPeriph_Driver/src/stm32f0xx_flash.c ****   
 754:../Libraries/STM32F0xx_StdPeriph_Driver/src/stm32f0xx_flash.c ****     /* Wait for last operation to be completed */
 755:../Libraries/STM32F0xx_StdPeriph_Driver/src/stm32f0xx_flash.c ****     status = FLASH_WaitForLastOperation(FLASH_ER_PRG_TIMEOUT);
 756:../Libraries/STM32F0xx_StdPeriph_Driver/src/stm32f0xx_flash.c **** 
 757:../Libraries/STM32F0xx_StdPeriph_Driver/src/stm32f0xx_flash.c ****     if(status != FLASH_TIMEOUT)
 758:../Libraries/STM32F0xx_StdPeriph_Driver/src/stm32f0xx_flash.c ****     {
 759:../Libraries/STM32F0xx_StdPeriph_Driver/src/stm32f0xx_flash.c ****       /* If the program operation is completed, disable the OPTPG Bit */
 760:../Libraries/STM32F0xx_StdPeriph_Driver/src/stm32f0xx_flash.c ****       FLASH->CR &= ~FLASH_CR_OPTPG;
 761:../Libraries/STM32F0xx_StdPeriph_Driver/src/stm32f0xx_flash.c ****     }
 762:../Libraries/STM32F0xx_StdPeriph_Driver/src/stm32f0xx_flash.c ****   }    
 763:../Libraries/STM32F0xx_StdPeriph_Driver/src/stm32f0xx_flash.c ****   /* Return the Option Byte program Status */
 764:../Libraries/STM32F0xx_StdPeriph_Driver/src/stm32f0xx_flash.c ****   return status;
 765:../Libraries/STM32F0xx_StdPeriph_Driver/src/stm32f0xx_flash.c **** }
 766:../Libraries/STM32F0xx_StdPeriph_Driver/src/stm32f0xx_flash.c **** 
 767:../Libraries/STM32F0xx_StdPeriph_Driver/src/stm32f0xx_flash.c **** /**
 768:../Libraries/STM32F0xx_StdPeriph_Driver/src/stm32f0xx_flash.c ****   * @brief  Sets or resets the BOOT1 option bit.
 769:../Libraries/STM32F0xx_StdPeriph_Driver/src/stm32f0xx_flash.c ****   * @param  OB_BOOT1: Set or Reset the BOOT1 option bit.
 770:../Libraries/STM32F0xx_StdPeriph_Driver/src/stm32f0xx_flash.c ****   *          This parameter can be one of the following values:
 771:../Libraries/STM32F0xx_StdPeriph_Driver/src/stm32f0xx_flash.c ****   *             @arg OB_BOOT1_RESET: BOOT1 option bit reset
 772:../Libraries/STM32F0xx_StdPeriph_Driver/src/stm32f0xx_flash.c ****   *             @arg OB_BOOT1_SET: BOOT1 option bit set
 773:../Libraries/STM32F0xx_StdPeriph_Driver/src/stm32f0xx_flash.c ****   * @retval None
 774:../Libraries/STM32F0xx_StdPeriph_Driver/src/stm32f0xx_flash.c ****   */
 775:../Libraries/STM32F0xx_StdPeriph_Driver/src/stm32f0xx_flash.c **** FLASH_Status FLASH_OB_BOOTConfig(uint8_t OB_BOOT1)
 776:../Libraries/STM32F0xx_StdPeriph_Driver/src/stm32f0xx_flash.c **** {
 777:../Libraries/STM32F0xx_StdPeriph_Driver/src/stm32f0xx_flash.c ****   FLASH_Status status = FLASH_COMPLETE; 
 778:../Libraries/STM32F0xx_StdPeriph_Driver/src/stm32f0xx_flash.c **** 
 779:../Libraries/STM32F0xx_StdPeriph_Driver/src/stm32f0xx_flash.c ****   /* Check the parameters */
 780:../Libraries/STM32F0xx_StdPeriph_Driver/src/stm32f0xx_flash.c ****   assert_param(IS_OB_BOOT1(OB_BOOT1));
 781:../Libraries/STM32F0xx_StdPeriph_Driver/src/stm32f0xx_flash.c **** 
 782:../Libraries/STM32F0xx_StdPeriph_Driver/src/stm32f0xx_flash.c ****   /* Wait for last operation to be completed */
 783:../Libraries/STM32F0xx_StdPeriph_Driver/src/stm32f0xx_flash.c ****   status = FLASH_WaitForLastOperation(FLASH_ER_PRG_TIMEOUT);
 784:../Libraries/STM32F0xx_StdPeriph_Driver/src/stm32f0xx_flash.c ****   
 785:../Libraries/STM32F0xx_StdPeriph_Driver/src/stm32f0xx_flash.c ****   if(status == FLASH_COMPLETE)
 786:../Libraries/STM32F0xx_StdPeriph_Driver/src/stm32f0xx_flash.c ****   {  
 787:../Libraries/STM32F0xx_StdPeriph_Driver/src/stm32f0xx_flash.c ****     /* Enable the Option Bytes Programming operation */
 788:../Libraries/STM32F0xx_StdPeriph_Driver/src/stm32f0xx_flash.c ****     FLASH->CR |= FLASH_CR_OPTPG;
 789:../Libraries/STM32F0xx_StdPeriph_Driver/src/stm32f0xx_flash.c **** 
 790:../Libraries/STM32F0xx_StdPeriph_Driver/src/stm32f0xx_flash.c ****     OB->USER = OB_BOOT1 | 0xEF;
 791:../Libraries/STM32F0xx_StdPeriph_Driver/src/stm32f0xx_flash.c ****   
 792:../Libraries/STM32F0xx_StdPeriph_Driver/src/stm32f0xx_flash.c ****     /* Wait for last operation to be completed */
 793:../Libraries/STM32F0xx_StdPeriph_Driver/src/stm32f0xx_flash.c ****     status = FLASH_WaitForLastOperation(FLASH_ER_PRG_TIMEOUT);
 794:../Libraries/STM32F0xx_StdPeriph_Driver/src/stm32f0xx_flash.c **** 
 795:../Libraries/STM32F0xx_StdPeriph_Driver/src/stm32f0xx_flash.c ****     if(status != FLASH_TIMEOUT)
 796:../Libraries/STM32F0xx_StdPeriph_Driver/src/stm32f0xx_flash.c ****     {
 797:../Libraries/STM32F0xx_StdPeriph_Driver/src/stm32f0xx_flash.c ****       /* If the program operation is completed, disable the OPTPG Bit */
 798:../Libraries/STM32F0xx_StdPeriph_Driver/src/stm32f0xx_flash.c ****       FLASH->CR &= ~FLASH_CR_OPTPG;
 799:../Libraries/STM32F0xx_StdPeriph_Driver/src/stm32f0xx_flash.c ****     }
 800:../Libraries/STM32F0xx_StdPeriph_Driver/src/stm32f0xx_flash.c ****   }
 801:../Libraries/STM32F0xx_StdPeriph_Driver/src/stm32f0xx_flash.c ****   /* Return the Option Byte program Status */
 802:../Libraries/STM32F0xx_StdPeriph_Driver/src/stm32f0xx_flash.c ****   return status;
 803:../Libraries/STM32F0xx_StdPeriph_Driver/src/stm32f0xx_flash.c **** }
 804:../Libraries/STM32F0xx_StdPeriph_Driver/src/stm32f0xx_flash.c **** 
 805:../Libraries/STM32F0xx_StdPeriph_Driver/src/stm32f0xx_flash.c **** /**
 806:../Libraries/STM32F0xx_StdPeriph_Driver/src/stm32f0xx_flash.c ****   * @brief  Sets or resets the BOOT0 option bit.
 807:../Libraries/STM32F0xx_StdPeriph_Driver/src/stm32f0xx_flash.c ****   * @note   This function is applicable only for the STM32F042 devices.
 808:../Libraries/STM32F0xx_StdPeriph_Driver/src/stm32f0xx_flash.c ****   * @param  OB_BOOT0: Set or Reset the BOOT0 option bit.
 809:../Libraries/STM32F0xx_StdPeriph_Driver/src/stm32f0xx_flash.c ****   *          This parameter can be one of the following values:
 810:../Libraries/STM32F0xx_StdPeriph_Driver/src/stm32f0xx_flash.c ****   *             @arg OB_BOOT0_RESET: BOOT0 option bit reset
 811:../Libraries/STM32F0xx_StdPeriph_Driver/src/stm32f0xx_flash.c ****   *             @arg OB_BOOT0_SET: BOOT0 option bit set
 812:../Libraries/STM32F0xx_StdPeriph_Driver/src/stm32f0xx_flash.c ****   * @retval None
 813:../Libraries/STM32F0xx_StdPeriph_Driver/src/stm32f0xx_flash.c ****   */
 814:../Libraries/STM32F0xx_StdPeriph_Driver/src/stm32f0xx_flash.c **** FLASH_Status FLASH_OB_BOOT0Config(uint8_t OB_BOOT0)
 815:../Libraries/STM32F0xx_StdPeriph_Driver/src/stm32f0xx_flash.c **** {
 816:../Libraries/STM32F0xx_StdPeriph_Driver/src/stm32f0xx_flash.c ****   FLASH_Status status = FLASH_COMPLETE; 
 817:../Libraries/STM32F0xx_StdPeriph_Driver/src/stm32f0xx_flash.c **** 
 818:../Libraries/STM32F0xx_StdPeriph_Driver/src/stm32f0xx_flash.c ****   /* Check the parameters */
 819:../Libraries/STM32F0xx_StdPeriph_Driver/src/stm32f0xx_flash.c ****   assert_param(IS_OB_BOOT0(OB_BOOT0));
 820:../Libraries/STM32F0xx_StdPeriph_Driver/src/stm32f0xx_flash.c **** 
 821:../Libraries/STM32F0xx_StdPeriph_Driver/src/stm32f0xx_flash.c ****   /* Wait for last operation to be completed */
 822:../Libraries/STM32F0xx_StdPeriph_Driver/src/stm32f0xx_flash.c ****   status = FLASH_WaitForLastOperation(FLASH_ER_PRG_TIMEOUT);
 823:../Libraries/STM32F0xx_StdPeriph_Driver/src/stm32f0xx_flash.c ****   
 824:../Libraries/STM32F0xx_StdPeriph_Driver/src/stm32f0xx_flash.c ****   if(status == FLASH_COMPLETE)
 825:../Libraries/STM32F0xx_StdPeriph_Driver/src/stm32f0xx_flash.c ****   {  
 826:../Libraries/STM32F0xx_StdPeriph_Driver/src/stm32f0xx_flash.c ****     /* Enable the Option Bytes Programming operation */
 827:../Libraries/STM32F0xx_StdPeriph_Driver/src/stm32f0xx_flash.c ****     FLASH->CR |= FLASH_CR_OPTPG;
 828:../Libraries/STM32F0xx_StdPeriph_Driver/src/stm32f0xx_flash.c **** 
 829:../Libraries/STM32F0xx_StdPeriph_Driver/src/stm32f0xx_flash.c ****     OB->USER = OB_BOOT0 | 0xF7;
 830:../Libraries/STM32F0xx_StdPeriph_Driver/src/stm32f0xx_flash.c ****   
 831:../Libraries/STM32F0xx_StdPeriph_Driver/src/stm32f0xx_flash.c ****     /* Wait for last operation to be completed */
 832:../Libraries/STM32F0xx_StdPeriph_Driver/src/stm32f0xx_flash.c ****     status = FLASH_WaitForLastOperation(FLASH_ER_PRG_TIMEOUT);
 833:../Libraries/STM32F0xx_StdPeriph_Driver/src/stm32f0xx_flash.c **** 
 834:../Libraries/STM32F0xx_StdPeriph_Driver/src/stm32f0xx_flash.c ****     if(status != FLASH_TIMEOUT)
 835:../Libraries/STM32F0xx_StdPeriph_Driver/src/stm32f0xx_flash.c ****     {
 836:../Libraries/STM32F0xx_StdPeriph_Driver/src/stm32f0xx_flash.c ****       /* If the program operation is completed, disable the OPTPG Bit */
 837:../Libraries/STM32F0xx_StdPeriph_Driver/src/stm32f0xx_flash.c ****       FLASH->CR &= ~FLASH_CR_OPTPG;
 838:../Libraries/STM32F0xx_StdPeriph_Driver/src/stm32f0xx_flash.c ****     }
 839:../Libraries/STM32F0xx_StdPeriph_Driver/src/stm32f0xx_flash.c ****   }
 840:../Libraries/STM32F0xx_StdPeriph_Driver/src/stm32f0xx_flash.c ****   /* Return the Option Byte program Status */
 841:../Libraries/STM32F0xx_StdPeriph_Driver/src/stm32f0xx_flash.c ****   return status;
 842:../Libraries/STM32F0xx_StdPeriph_Driver/src/stm32f0xx_flash.c **** }
 843:../Libraries/STM32F0xx_StdPeriph_Driver/src/stm32f0xx_flash.c **** 
 844:../Libraries/STM32F0xx_StdPeriph_Driver/src/stm32f0xx_flash.c **** /**
 845:../Libraries/STM32F0xx_StdPeriph_Driver/src/stm32f0xx_flash.c ****   * @brief  Sets or resets the BOOT0SW option bit.
 846:../Libraries/STM32F0xx_StdPeriph_Driver/src/stm32f0xx_flash.c ****   * @note   This function is applicable only for the STM32F042 devices.   
 847:../Libraries/STM32F0xx_StdPeriph_Driver/src/stm32f0xx_flash.c ****   * @param  OB_BOOT0SW: Set or Reset the BOOT0_SW option bit.
 848:../Libraries/STM32F0xx_StdPeriph_Driver/src/stm32f0xx_flash.c ****   *          This parameter can be one of the following values:
 849:../Libraries/STM32F0xx_StdPeriph_Driver/src/stm32f0xx_flash.c ****   *             @arg OB_BOOT0_SW: BOOT0_SW option bit reset
 850:../Libraries/STM32F0xx_StdPeriph_Driver/src/stm32f0xx_flash.c ****   *             @arg OB_BOOT0_HW: BOOT0_SW option bit set
 851:../Libraries/STM32F0xx_StdPeriph_Driver/src/stm32f0xx_flash.c ****   * @retval None
 852:../Libraries/STM32F0xx_StdPeriph_Driver/src/stm32f0xx_flash.c ****   */
 853:../Libraries/STM32F0xx_StdPeriph_Driver/src/stm32f0xx_flash.c **** FLASH_Status FLASH_OB_BOOT0SWConfig(uint8_t OB_BOOT0SW)
 854:../Libraries/STM32F0xx_StdPeriph_Driver/src/stm32f0xx_flash.c **** {
 855:../Libraries/STM32F0xx_StdPeriph_Driver/src/stm32f0xx_flash.c ****   FLASH_Status status = FLASH_COMPLETE; 
 856:../Libraries/STM32F0xx_StdPeriph_Driver/src/stm32f0xx_flash.c **** 
 857:../Libraries/STM32F0xx_StdPeriph_Driver/src/stm32f0xx_flash.c ****   /* Check the parameters */
 858:../Libraries/STM32F0xx_StdPeriph_Driver/src/stm32f0xx_flash.c ****   assert_param(IS_OB_BOOT0SW(OB_BOOT0SW));
 859:../Libraries/STM32F0xx_StdPeriph_Driver/src/stm32f0xx_flash.c **** 
 860:../Libraries/STM32F0xx_StdPeriph_Driver/src/stm32f0xx_flash.c ****   /* Wait for last operation to be completed */
 861:../Libraries/STM32F0xx_StdPeriph_Driver/src/stm32f0xx_flash.c ****   status = FLASH_WaitForLastOperation(FLASH_ER_PRG_TIMEOUT);
 862:../Libraries/STM32F0xx_StdPeriph_Driver/src/stm32f0xx_flash.c ****   
 863:../Libraries/STM32F0xx_StdPeriph_Driver/src/stm32f0xx_flash.c ****   if(status == FLASH_COMPLETE)
 864:../Libraries/STM32F0xx_StdPeriph_Driver/src/stm32f0xx_flash.c ****   {  
 865:../Libraries/STM32F0xx_StdPeriph_Driver/src/stm32f0xx_flash.c ****     /* Enable the Option Bytes Programming operation */
 866:../Libraries/STM32F0xx_StdPeriph_Driver/src/stm32f0xx_flash.c ****     FLASH->CR |= FLASH_CR_OPTPG;
 867:../Libraries/STM32F0xx_StdPeriph_Driver/src/stm32f0xx_flash.c **** 
 868:../Libraries/STM32F0xx_StdPeriph_Driver/src/stm32f0xx_flash.c ****     OB->USER = OB_BOOT0SW | 0x7F;
 869:../Libraries/STM32F0xx_StdPeriph_Driver/src/stm32f0xx_flash.c ****   
 870:../Libraries/STM32F0xx_StdPeriph_Driver/src/stm32f0xx_flash.c ****     /* Wait for last operation to be completed */
 871:../Libraries/STM32F0xx_StdPeriph_Driver/src/stm32f0xx_flash.c ****     status = FLASH_WaitForLastOperation(FLASH_ER_PRG_TIMEOUT);
 872:../Libraries/STM32F0xx_StdPeriph_Driver/src/stm32f0xx_flash.c **** 
 873:../Libraries/STM32F0xx_StdPeriph_Driver/src/stm32f0xx_flash.c ****     if(status != FLASH_TIMEOUT)
 874:../Libraries/STM32F0xx_StdPeriph_Driver/src/stm32f0xx_flash.c ****     {
 875:../Libraries/STM32F0xx_StdPeriph_Driver/src/stm32f0xx_flash.c ****       /* If the program operation is completed, disable the OPTPG Bit */
 876:../Libraries/STM32F0xx_StdPeriph_Driver/src/stm32f0xx_flash.c ****       FLASH->CR &= ~FLASH_CR_OPTPG;
 877:../Libraries/STM32F0xx_StdPeriph_Driver/src/stm32f0xx_flash.c ****     }
 878:../Libraries/STM32F0xx_StdPeriph_Driver/src/stm32f0xx_flash.c ****   }
 879:../Libraries/STM32F0xx_StdPeriph_Driver/src/stm32f0xx_flash.c ****   /* Return the Option Byte program Status */
 880:../Libraries/STM32F0xx_StdPeriph_Driver/src/stm32f0xx_flash.c ****   return status;
 881:../Libraries/STM32F0xx_StdPeriph_Driver/src/stm32f0xx_flash.c **** }
 882:../Libraries/STM32F0xx_StdPeriph_Driver/src/stm32f0xx_flash.c **** 
 883:../Libraries/STM32F0xx_StdPeriph_Driver/src/stm32f0xx_flash.c **** /**
 884:../Libraries/STM32F0xx_StdPeriph_Driver/src/stm32f0xx_flash.c ****   * @brief  Sets or resets the analogue monitoring on VDDA Power source.
 885:../Libraries/STM32F0xx_StdPeriph_Driver/src/stm32f0xx_flash.c ****   * @param  OB_VDDA_ANALOG: Selects the analog monitoring on VDDA Power source.
 886:../Libraries/STM32F0xx_StdPeriph_Driver/src/stm32f0xx_flash.c ****   *          This parameter can be one of the following values:
 887:../Libraries/STM32F0xx_StdPeriph_Driver/src/stm32f0xx_flash.c ****   *             @arg OB_VDDA_ANALOG_ON: Analog monitoring on VDDA Power source ON
 888:../Libraries/STM32F0xx_StdPeriph_Driver/src/stm32f0xx_flash.c ****   *             @arg OB_VDDA_ANALOG_OFF: Analog monitoring on VDDA Power source OFF
 889:../Libraries/STM32F0xx_StdPeriph_Driver/src/stm32f0xx_flash.c ****   * @retval None
 890:../Libraries/STM32F0xx_StdPeriph_Driver/src/stm32f0xx_flash.c ****   */
 891:../Libraries/STM32F0xx_StdPeriph_Driver/src/stm32f0xx_flash.c **** FLASH_Status FLASH_OB_VDDAConfig(uint8_t OB_VDDA_ANALOG)
 892:../Libraries/STM32F0xx_StdPeriph_Driver/src/stm32f0xx_flash.c **** {
 893:../Libraries/STM32F0xx_StdPeriph_Driver/src/stm32f0xx_flash.c ****   FLASH_Status status = FLASH_COMPLETE; 
 894:../Libraries/STM32F0xx_StdPeriph_Driver/src/stm32f0xx_flash.c **** 
 895:../Libraries/STM32F0xx_StdPeriph_Driver/src/stm32f0xx_flash.c ****   /* Check the parameters */
 896:../Libraries/STM32F0xx_StdPeriph_Driver/src/stm32f0xx_flash.c ****   assert_param(IS_OB_VDDA_ANALOG(OB_VDDA_ANALOG));
 897:../Libraries/STM32F0xx_StdPeriph_Driver/src/stm32f0xx_flash.c **** 
 898:../Libraries/STM32F0xx_StdPeriph_Driver/src/stm32f0xx_flash.c ****   /* Wait for last operation to be completed */
 899:../Libraries/STM32F0xx_StdPeriph_Driver/src/stm32f0xx_flash.c ****   status = FLASH_WaitForLastOperation(FLASH_ER_PRG_TIMEOUT);
 900:../Libraries/STM32F0xx_StdPeriph_Driver/src/stm32f0xx_flash.c ****   
 901:../Libraries/STM32F0xx_StdPeriph_Driver/src/stm32f0xx_flash.c ****   if(status == FLASH_COMPLETE)
 902:../Libraries/STM32F0xx_StdPeriph_Driver/src/stm32f0xx_flash.c ****   {  
 903:../Libraries/STM32F0xx_StdPeriph_Driver/src/stm32f0xx_flash.c ****     /* Enable the Option Bytes Programming operation */
 904:../Libraries/STM32F0xx_StdPeriph_Driver/src/stm32f0xx_flash.c ****     FLASH->CR |= FLASH_CR_OPTPG; 
 905:../Libraries/STM32F0xx_StdPeriph_Driver/src/stm32f0xx_flash.c **** 
 906:../Libraries/STM32F0xx_StdPeriph_Driver/src/stm32f0xx_flash.c ****     OB->USER = OB_VDDA_ANALOG | 0xDF;
 907:../Libraries/STM32F0xx_StdPeriph_Driver/src/stm32f0xx_flash.c ****   
 908:../Libraries/STM32F0xx_StdPeriph_Driver/src/stm32f0xx_flash.c ****     /* Wait for last operation to be completed */
 909:../Libraries/STM32F0xx_StdPeriph_Driver/src/stm32f0xx_flash.c ****     status = FLASH_WaitForLastOperation(FLASH_ER_PRG_TIMEOUT);
 910:../Libraries/STM32F0xx_StdPeriph_Driver/src/stm32f0xx_flash.c **** 
 911:../Libraries/STM32F0xx_StdPeriph_Driver/src/stm32f0xx_flash.c ****     if(status != FLASH_TIMEOUT)
 912:../Libraries/STM32F0xx_StdPeriph_Driver/src/stm32f0xx_flash.c ****     {
 913:../Libraries/STM32F0xx_StdPeriph_Driver/src/stm32f0xx_flash.c ****       /* if the program operation is completed, disable the OPTPG Bit */
 914:../Libraries/STM32F0xx_StdPeriph_Driver/src/stm32f0xx_flash.c ****       FLASH->CR &= ~FLASH_CR_OPTPG;
 915:../Libraries/STM32F0xx_StdPeriph_Driver/src/stm32f0xx_flash.c ****     }
 916:../Libraries/STM32F0xx_StdPeriph_Driver/src/stm32f0xx_flash.c ****   }
 917:../Libraries/STM32F0xx_StdPeriph_Driver/src/stm32f0xx_flash.c ****   /* Return the Option Byte program Status */
 918:../Libraries/STM32F0xx_StdPeriph_Driver/src/stm32f0xx_flash.c ****   return status;
 919:../Libraries/STM32F0xx_StdPeriph_Driver/src/stm32f0xx_flash.c **** }
 920:../Libraries/STM32F0xx_StdPeriph_Driver/src/stm32f0xx_flash.c **** 
 921:../Libraries/STM32F0xx_StdPeriph_Driver/src/stm32f0xx_flash.c **** /**
 922:../Libraries/STM32F0xx_StdPeriph_Driver/src/stm32f0xx_flash.c ****   * @brief  Sets or resets the SRAM parity.
 923:../Libraries/STM32F0xx_StdPeriph_Driver/src/stm32f0xx_flash.c ****   * @param  OB_SRAM_Parity: Set or Reset the SRAM parity enable bit.
 924:../Libraries/STM32F0xx_StdPeriph_Driver/src/stm32f0xx_flash.c ****   *          This parameter can be one of the following values:
 925:../Libraries/STM32F0xx_StdPeriph_Driver/src/stm32f0xx_flash.c ****   *             @arg OB_SRAM_PARITY_SET: Set SRAM parity.
 926:../Libraries/STM32F0xx_StdPeriph_Driver/src/stm32f0xx_flash.c ****   *             @arg OB_SRAM_PARITY_RESET: Reset SRAM parity.
 927:../Libraries/STM32F0xx_StdPeriph_Driver/src/stm32f0xx_flash.c ****   * @retval None
 928:../Libraries/STM32F0xx_StdPeriph_Driver/src/stm32f0xx_flash.c ****   */
 929:../Libraries/STM32F0xx_StdPeriph_Driver/src/stm32f0xx_flash.c **** FLASH_Status FLASH_OB_SRAMParityConfig(uint8_t OB_SRAM_Parity)
 930:../Libraries/STM32F0xx_StdPeriph_Driver/src/stm32f0xx_flash.c **** {
 931:../Libraries/STM32F0xx_StdPeriph_Driver/src/stm32f0xx_flash.c ****   FLASH_Status status = FLASH_COMPLETE; 
 932:../Libraries/STM32F0xx_StdPeriph_Driver/src/stm32f0xx_flash.c **** 
 933:../Libraries/STM32F0xx_StdPeriph_Driver/src/stm32f0xx_flash.c ****   /* Check the parameters */
 934:../Libraries/STM32F0xx_StdPeriph_Driver/src/stm32f0xx_flash.c ****   assert_param(IS_OB_SRAM_PARITY(OB_SRAM_Parity));
 935:../Libraries/STM32F0xx_StdPeriph_Driver/src/stm32f0xx_flash.c **** 
 936:../Libraries/STM32F0xx_StdPeriph_Driver/src/stm32f0xx_flash.c ****   /* Wait for last operation to be completed */
 937:../Libraries/STM32F0xx_StdPeriph_Driver/src/stm32f0xx_flash.c ****   status = FLASH_WaitForLastOperation(FLASH_ER_PRG_TIMEOUT);
 938:../Libraries/STM32F0xx_StdPeriph_Driver/src/stm32f0xx_flash.c ****   
 939:../Libraries/STM32F0xx_StdPeriph_Driver/src/stm32f0xx_flash.c ****   if(status == FLASH_COMPLETE)
 940:../Libraries/STM32F0xx_StdPeriph_Driver/src/stm32f0xx_flash.c ****   {  
 941:../Libraries/STM32F0xx_StdPeriph_Driver/src/stm32f0xx_flash.c ****     /* Enable the Option Bytes Programming operation */
 942:../Libraries/STM32F0xx_StdPeriph_Driver/src/stm32f0xx_flash.c ****     FLASH->CR |= FLASH_CR_OPTPG; 
 943:../Libraries/STM32F0xx_StdPeriph_Driver/src/stm32f0xx_flash.c **** 
 944:../Libraries/STM32F0xx_StdPeriph_Driver/src/stm32f0xx_flash.c ****     OB->USER = OB_SRAM_Parity | 0xBF;
 945:../Libraries/STM32F0xx_StdPeriph_Driver/src/stm32f0xx_flash.c ****   
 946:../Libraries/STM32F0xx_StdPeriph_Driver/src/stm32f0xx_flash.c ****     /* Wait for last operation to be completed */
 947:../Libraries/STM32F0xx_StdPeriph_Driver/src/stm32f0xx_flash.c ****     status = FLASH_WaitForLastOperation(FLASH_ER_PRG_TIMEOUT);
 948:../Libraries/STM32F0xx_StdPeriph_Driver/src/stm32f0xx_flash.c **** 
 949:../Libraries/STM32F0xx_StdPeriph_Driver/src/stm32f0xx_flash.c ****     if(status != FLASH_TIMEOUT)
 950:../Libraries/STM32F0xx_StdPeriph_Driver/src/stm32f0xx_flash.c ****     {
 951:../Libraries/STM32F0xx_StdPeriph_Driver/src/stm32f0xx_flash.c ****       /* if the program operation is completed, disable the OPTPG Bit */
 952:../Libraries/STM32F0xx_StdPeriph_Driver/src/stm32f0xx_flash.c ****       FLASH->CR &= ~FLASH_CR_OPTPG;
 953:../Libraries/STM32F0xx_StdPeriph_Driver/src/stm32f0xx_flash.c ****     }
 954:../Libraries/STM32F0xx_StdPeriph_Driver/src/stm32f0xx_flash.c ****   }
 955:../Libraries/STM32F0xx_StdPeriph_Driver/src/stm32f0xx_flash.c ****   /* Return the Option Byte program Status */
 956:../Libraries/STM32F0xx_StdPeriph_Driver/src/stm32f0xx_flash.c ****   return status;
 957:../Libraries/STM32F0xx_StdPeriph_Driver/src/stm32f0xx_flash.c **** }
 958:../Libraries/STM32F0xx_StdPeriph_Driver/src/stm32f0xx_flash.c **** 
 959:../Libraries/STM32F0xx_StdPeriph_Driver/src/stm32f0xx_flash.c **** /**
 960:../Libraries/STM32F0xx_StdPeriph_Driver/src/stm32f0xx_flash.c ****   * @brief  Programs the FLASH User Option Byte: IWDG_SW, RST_STOP, RST_STDBY,
 961:../Libraries/STM32F0xx_StdPeriph_Driver/src/stm32f0xx_flash.c ****   *         BOOT1 and VDDA ANALOG monitoring.
 962:../Libraries/STM32F0xx_StdPeriph_Driver/src/stm32f0xx_flash.c ****   * @note   To correctly run this function, the FLASH_OB_Unlock() function must be called before.
 963:../Libraries/STM32F0xx_StdPeriph_Driver/src/stm32f0xx_flash.c ****   * @note   Call the FLASH_OB_Lock() to disable the flash control register access and the option
 964:../Libraries/STM32F0xx_StdPeriph_Driver/src/stm32f0xx_flash.c ****   *         bytes (recommended to protect the FLASH memory against possible unwanted operation)
 965:../Libraries/STM32F0xx_StdPeriph_Driver/src/stm32f0xx_flash.c ****   * @param  OB_USER: Selects all user option bytes
 966:../Libraries/STM32F0xx_StdPeriph_Driver/src/stm32f0xx_flash.c ****   *          This parameter is a combination of the following values:
 967:../Libraries/STM32F0xx_StdPeriph_Driver/src/stm32f0xx_flash.c ****   *             @arg OB_IWDG_SW / OB_IWDG_HW: Software / Hardware WDG selected
 968:../Libraries/STM32F0xx_StdPeriph_Driver/src/stm32f0xx_flash.c ****   *             @arg OB_STOP_NoRST / OB_STOP_RST: No reset / Reset generated when entering in STOP
 969:../Libraries/STM32F0xx_StdPeriph_Driver/src/stm32f0xx_flash.c ****   *             @arg OB_STDBY_NoRST / OB_STDBY_RST: No reset / Reset generated when entering in STA
 970:../Libraries/STM32F0xx_StdPeriph_Driver/src/stm32f0xx_flash.c ****   *             @arg OB_BOOT1_RESET / OB_BOOT1_SET: BOOT1 Reset / Set
 971:../Libraries/STM32F0xx_StdPeriph_Driver/src/stm32f0xx_flash.c ****   *             @arg OB_VDDA_ANALOG_ON / OB_VDDA_ANALOG_OFF: Analog monitoring on VDDA Power source
 972:../Libraries/STM32F0xx_StdPeriph_Driver/src/stm32f0xx_flash.c ****   *             @arg OB_SRAM_PARITY_SET / OB_SRAM_PARITY_RESET: SRAM Parity SET / RESET
 973:../Libraries/STM32F0xx_StdPeriph_Driver/src/stm32f0xx_flash.c ****   *             @arg OB_BOOT0_RESET / OB_BOOT0_SET: BOOT0 Reset / Set
 974:../Libraries/STM32F0xx_StdPeriph_Driver/src/stm32f0xx_flash.c ****   *             @arg OB_BOOT0_SW / OB_BOOT0_SW: BOOT0 pin disabled / BOOT0 pin bonded with GPIO    
 975:../Libraries/STM32F0xx_StdPeriph_Driver/src/stm32f0xx_flash.c ****   * @retval FLASH Status: The returned value can be: 
 976:../Libraries/STM32F0xx_StdPeriph_Driver/src/stm32f0xx_flash.c ****   *         FLASH_ERROR_PROGRAM, FLASH_ERROR_WRP, FLASH_COMPLETE or FLASH_TIMEOUT.
 977:../Libraries/STM32F0xx_StdPeriph_Driver/src/stm32f0xx_flash.c ****   */
 978:../Libraries/STM32F0xx_StdPeriph_Driver/src/stm32f0xx_flash.c **** FLASH_Status FLASH_OB_WriteUser(uint8_t OB_USER)
 979:../Libraries/STM32F0xx_StdPeriph_Driver/src/stm32f0xx_flash.c **** {
 980:../Libraries/STM32F0xx_StdPeriph_Driver/src/stm32f0xx_flash.c ****   FLASH_Status status = FLASH_COMPLETE; 
 981:../Libraries/STM32F0xx_StdPeriph_Driver/src/stm32f0xx_flash.c **** 
 982:../Libraries/STM32F0xx_StdPeriph_Driver/src/stm32f0xx_flash.c ****   /* Wait for last operation to be completed */
 983:../Libraries/STM32F0xx_StdPeriph_Driver/src/stm32f0xx_flash.c ****   status = FLASH_WaitForLastOperation(FLASH_ER_PRG_TIMEOUT);
 984:../Libraries/STM32F0xx_StdPeriph_Driver/src/stm32f0xx_flash.c ****   
 985:../Libraries/STM32F0xx_StdPeriph_Driver/src/stm32f0xx_flash.c ****   if(status == FLASH_COMPLETE)
 986:../Libraries/STM32F0xx_StdPeriph_Driver/src/stm32f0xx_flash.c ****   {
 987:../Libraries/STM32F0xx_StdPeriph_Driver/src/stm32f0xx_flash.c ****     /* Enable the Option Bytes Programming operation */
 988:../Libraries/STM32F0xx_StdPeriph_Driver/src/stm32f0xx_flash.c ****     FLASH->CR |= FLASH_CR_OPTPG; 
 989:../Libraries/STM32F0xx_StdPeriph_Driver/src/stm32f0xx_flash.c **** 
 990:../Libraries/STM32F0xx_StdPeriph_Driver/src/stm32f0xx_flash.c ****     OB->USER = OB_USER;
 991:../Libraries/STM32F0xx_StdPeriph_Driver/src/stm32f0xx_flash.c ****   
 992:../Libraries/STM32F0xx_StdPeriph_Driver/src/stm32f0xx_flash.c ****     /* Wait for last operation to be completed */
 993:../Libraries/STM32F0xx_StdPeriph_Driver/src/stm32f0xx_flash.c ****     status = FLASH_WaitForLastOperation(FLASH_ER_PRG_TIMEOUT);
 994:../Libraries/STM32F0xx_StdPeriph_Driver/src/stm32f0xx_flash.c **** 
 995:../Libraries/STM32F0xx_StdPeriph_Driver/src/stm32f0xx_flash.c ****     if(status != FLASH_TIMEOUT)
 996:../Libraries/STM32F0xx_StdPeriph_Driver/src/stm32f0xx_flash.c ****     {
 997:../Libraries/STM32F0xx_StdPeriph_Driver/src/stm32f0xx_flash.c ****       /* If the program operation is completed, disable the OPTPG Bit */
 998:../Libraries/STM32F0xx_StdPeriph_Driver/src/stm32f0xx_flash.c ****       FLASH->CR &= ~FLASH_CR_OPTPG;
 999:../Libraries/STM32F0xx_StdPeriph_Driver/src/stm32f0xx_flash.c ****     }
1000:../Libraries/STM32F0xx_StdPeriph_Driver/src/stm32f0xx_flash.c ****   }    
1001:../Libraries/STM32F0xx_StdPeriph_Driver/src/stm32f0xx_flash.c ****   /* Return the Option Byte program Status */
1002:../Libraries/STM32F0xx_StdPeriph_Driver/src/stm32f0xx_flash.c ****   return status;
1003:../Libraries/STM32F0xx_StdPeriph_Driver/src/stm32f0xx_flash.c **** 
1004:../Libraries/STM32F0xx_StdPeriph_Driver/src/stm32f0xx_flash.c **** }
1005:../Libraries/STM32F0xx_StdPeriph_Driver/src/stm32f0xx_flash.c **** 
1006:../Libraries/STM32F0xx_StdPeriph_Driver/src/stm32f0xx_flash.c **** /**
1007:../Libraries/STM32F0xx_StdPeriph_Driver/src/stm32f0xx_flash.c ****   * @brief  Programs a half word at a specified Option Byte Data address.
1008:../Libraries/STM32F0xx_StdPeriph_Driver/src/stm32f0xx_flash.c ****   * @note   To correctly run this function, the FLASH_OB_Unlock() function must be called before.
1009:../Libraries/STM32F0xx_StdPeriph_Driver/src/stm32f0xx_flash.c ****   * @note   Call the FLASH_OB_Lock() to disable the flash control register access and the option
1010:../Libraries/STM32F0xx_StdPeriph_Driver/src/stm32f0xx_flash.c ****   *         bytes (recommended to protect the FLASH memory against possible unwanted operation)
1011:../Libraries/STM32F0xx_StdPeriph_Driver/src/stm32f0xx_flash.c ****   * @param  Address: specifies the address to be programmed.
1012:../Libraries/STM32F0xx_StdPeriph_Driver/src/stm32f0xx_flash.c ****   *          This parameter can be 0x1FFFF804 or 0x1FFFF806. 
1013:../Libraries/STM32F0xx_StdPeriph_Driver/src/stm32f0xx_flash.c ****   * @param  Data: specifies the data to be programmed.
1014:../Libraries/STM32F0xx_StdPeriph_Driver/src/stm32f0xx_flash.c ****   * @retval FLASH Status: The returned value can be: FLASH_ERROR_PG,
1015:../Libraries/STM32F0xx_StdPeriph_Driver/src/stm32f0xx_flash.c ****   *         FLASH_ERROR_WRP, FLASH_COMPLETE or FLASH_TIMEOUT.
1016:../Libraries/STM32F0xx_StdPeriph_Driver/src/stm32f0xx_flash.c ****   */
1017:../Libraries/STM32F0xx_StdPeriph_Driver/src/stm32f0xx_flash.c **** FLASH_Status FLASH_OB_ProgramData(uint32_t Address, uint8_t Data)
1018:../Libraries/STM32F0xx_StdPeriph_Driver/src/stm32f0xx_flash.c **** {
1019:../Libraries/STM32F0xx_StdPeriph_Driver/src/stm32f0xx_flash.c ****   FLASH_Status status = FLASH_COMPLETE;
1020:../Libraries/STM32F0xx_StdPeriph_Driver/src/stm32f0xx_flash.c ****   /* Check the parameters */
1021:../Libraries/STM32F0xx_StdPeriph_Driver/src/stm32f0xx_flash.c ****   assert_param(IS_OB_DATA_ADDRESS(Address));
1022:../Libraries/STM32F0xx_StdPeriph_Driver/src/stm32f0xx_flash.c ****   status = FLASH_WaitForLastOperation(FLASH_ER_PRG_TIMEOUT);
1023:../Libraries/STM32F0xx_StdPeriph_Driver/src/stm32f0xx_flash.c **** 
1024:../Libraries/STM32F0xx_StdPeriph_Driver/src/stm32f0xx_flash.c ****   if(status == FLASH_COMPLETE)
1025:../Libraries/STM32F0xx_StdPeriph_Driver/src/stm32f0xx_flash.c ****   {
1026:../Libraries/STM32F0xx_StdPeriph_Driver/src/stm32f0xx_flash.c ****     /* Enables the Option Bytes Programming operation */
1027:../Libraries/STM32F0xx_StdPeriph_Driver/src/stm32f0xx_flash.c ****     FLASH->CR |= FLASH_CR_OPTPG; 
1028:../Libraries/STM32F0xx_StdPeriph_Driver/src/stm32f0xx_flash.c ****     *(__IO uint16_t*)Address = Data;
1029:../Libraries/STM32F0xx_StdPeriph_Driver/src/stm32f0xx_flash.c ****     
1030:../Libraries/STM32F0xx_StdPeriph_Driver/src/stm32f0xx_flash.c ****     /* Wait for last operation to be completed */
1031:../Libraries/STM32F0xx_StdPeriph_Driver/src/stm32f0xx_flash.c ****     status = FLASH_WaitForLastOperation(FLASH_ER_PRG_TIMEOUT);
1032:../Libraries/STM32F0xx_StdPeriph_Driver/src/stm32f0xx_flash.c ****     
1033:../Libraries/STM32F0xx_StdPeriph_Driver/src/stm32f0xx_flash.c ****     if(status != FLASH_TIMEOUT)
1034:../Libraries/STM32F0xx_StdPeriph_Driver/src/stm32f0xx_flash.c ****     {
1035:../Libraries/STM32F0xx_StdPeriph_Driver/src/stm32f0xx_flash.c ****       /* If the program operation is completed, disable the OPTPG Bit */
1036:../Libraries/STM32F0xx_StdPeriph_Driver/src/stm32f0xx_flash.c ****       FLASH->CR &= ~FLASH_CR_OPTPG;
1037:../Libraries/STM32F0xx_StdPeriph_Driver/src/stm32f0xx_flash.c ****     }
1038:../Libraries/STM32F0xx_StdPeriph_Driver/src/stm32f0xx_flash.c ****   }
1039:../Libraries/STM32F0xx_StdPeriph_Driver/src/stm32f0xx_flash.c ****   /* Return the Option Byte Data Program Status */
1040:../Libraries/STM32F0xx_StdPeriph_Driver/src/stm32f0xx_flash.c ****   return status;
1041:../Libraries/STM32F0xx_StdPeriph_Driver/src/stm32f0xx_flash.c **** }
1042:../Libraries/STM32F0xx_StdPeriph_Driver/src/stm32f0xx_flash.c **** 
1043:../Libraries/STM32F0xx_StdPeriph_Driver/src/stm32f0xx_flash.c **** /**
1044:../Libraries/STM32F0xx_StdPeriph_Driver/src/stm32f0xx_flash.c ****   * @brief  Returns the FLASH User Option Bytes values.
1045:../Libraries/STM32F0xx_StdPeriph_Driver/src/stm32f0xx_flash.c ****   * @param  None
1046:../Libraries/STM32F0xx_StdPeriph_Driver/src/stm32f0xx_flash.c ****   * @retval The FLASH User Option Bytes .
1047:../Libraries/STM32F0xx_StdPeriph_Driver/src/stm32f0xx_flash.c ****   */
1048:../Libraries/STM32F0xx_StdPeriph_Driver/src/stm32f0xx_flash.c **** uint8_t FLASH_OB_GetUser(void)
1049:../Libraries/STM32F0xx_StdPeriph_Driver/src/stm32f0xx_flash.c **** {
 291              		.loc 1 1049 0
 292              		.cfi_startproc
1050:../Libraries/STM32F0xx_StdPeriph_Driver/src/stm32f0xx_flash.c ****   /* Return the User Option Byte */
1051:../Libraries/STM32F0xx_StdPeriph_Driver/src/stm32f0xx_flash.c ****   return (uint8_t)(FLASH->OBR >> 8);
 293              		.loc 1 1051 0
 294 0000 024B     		ldr	r3, .L31
 295              		@ sp needed for prologue
 296 0002 D969     		ldr	r1, [r3, #28]
 297 0004 080A     		lsr	r0, r1, #8
 298 0006 C0B2     		uxtb	r0, r0
1052:../Libraries/STM32F0xx_StdPeriph_Driver/src/stm32f0xx_flash.c **** }
 299              		.loc 1 1052 0
 300 0008 7047     		bx	lr
 301              	.L32:
 302 000a C046     		.align	2
 303              	.L31:
 304 000c 00200240 		.word	1073881088
 305              		.cfi_endproc
 306              	.LFE56:
 308              		.section	.text.FLASH_OB_GetWRP,"ax",%progbits
 309              		.align	1
 310              		.global	FLASH_OB_GetWRP
 311              		.code	16
 312              		.thumb_func
 314              	FLASH_OB_GetWRP:
 315              	.LFB57:
1053:../Libraries/STM32F0xx_StdPeriph_Driver/src/stm32f0xx_flash.c **** 
1054:../Libraries/STM32F0xx_StdPeriph_Driver/src/stm32f0xx_flash.c **** /**
1055:../Libraries/STM32F0xx_StdPeriph_Driver/src/stm32f0xx_flash.c ****   * @brief  Returns the FLASH Write Protection Option Bytes value.
1056:../Libraries/STM32F0xx_StdPeriph_Driver/src/stm32f0xx_flash.c ****   * @param  None
1057:../Libraries/STM32F0xx_StdPeriph_Driver/src/stm32f0xx_flash.c ****   * @retval The FLASH Write Protection Option Bytes value
1058:../Libraries/STM32F0xx_StdPeriph_Driver/src/stm32f0xx_flash.c ****   */
1059:../Libraries/STM32F0xx_StdPeriph_Driver/src/stm32f0xx_flash.c **** uint32_t FLASH_OB_GetWRP(void)
1060:../Libraries/STM32F0xx_StdPeriph_Driver/src/stm32f0xx_flash.c **** {
 316              		.loc 1 1060 0
 317              		.cfi_startproc
1061:../Libraries/STM32F0xx_StdPeriph_Driver/src/stm32f0xx_flash.c ****   /* Return the FLASH write protection Register value */
1062:../Libraries/STM32F0xx_StdPeriph_Driver/src/stm32f0xx_flash.c ****   return (uint32_t)(FLASH->WRPR);
 318              		.loc 1 1062 0
 319 0000 014B     		ldr	r3, .L34
 320              		@ sp needed for prologue
 321 0002 186A     		ldr	r0, [r3, #32]
1063:../Libraries/STM32F0xx_StdPeriph_Driver/src/stm32f0xx_flash.c **** }
 322              		.loc 1 1063 0
 323 0004 7047     		bx	lr
 324              	.L35:
 325 0006 C046     		.align	2
 326              	.L34:
 327 0008 00200240 		.word	1073881088
 328              		.cfi_endproc
 329              	.LFE57:
 331              		.section	.text.FLASH_OB_GetRDP,"ax",%progbits
 332              		.align	1
 333              		.global	FLASH_OB_GetRDP
 334              		.code	16
 335              		.thumb_func
 337              	FLASH_OB_GetRDP:
 338              	.LFB58:
1064:../Libraries/STM32F0xx_StdPeriph_Driver/src/stm32f0xx_flash.c **** 
1065:../Libraries/STM32F0xx_StdPeriph_Driver/src/stm32f0xx_flash.c **** /**
1066:../Libraries/STM32F0xx_StdPeriph_Driver/src/stm32f0xx_flash.c ****   * @brief  Checks whether the FLASH Read out Protection Status is set or not.
1067:../Libraries/STM32F0xx_StdPeriph_Driver/src/stm32f0xx_flash.c ****   * @param  None
1068:../Libraries/STM32F0xx_StdPeriph_Driver/src/stm32f0xx_flash.c ****   * @retval FLASH ReadOut Protection Status(SET or RESET)
1069:../Libraries/STM32F0xx_StdPeriph_Driver/src/stm32f0xx_flash.c ****   */
1070:../Libraries/STM32F0xx_StdPeriph_Driver/src/stm32f0xx_flash.c **** FlagStatus FLASH_OB_GetRDP(void)
1071:../Libraries/STM32F0xx_StdPeriph_Driver/src/stm32f0xx_flash.c **** {
 339              		.loc 1 1071 0
 340              		.cfi_startproc
 341              	.LVL7:
1072:../Libraries/STM32F0xx_StdPeriph_Driver/src/stm32f0xx_flash.c ****   FlagStatus readstatus = RESET;
1073:../Libraries/STM32F0xx_StdPeriph_Driver/src/stm32f0xx_flash.c ****   
1074:../Libraries/STM32F0xx_StdPeriph_Driver/src/stm32f0xx_flash.c ****   if ((uint8_t)(FLASH->OBR & (FLASH_OBR_RDPRT1 | FLASH_OBR_RDPRT2)) != RESET)
 342              		.loc 1 1074 0
 343 0000 0348     		ldr	r0, .L37
 344 0002 0623     		mov	r3, #6
 345 0004 C069     		ldr	r0, [r0, #28]
 346              	.LVL8:
 347              		@ sp needed for prologue
 348 0006 1840     		and	r0, r3
 349              	.LVL9:
1075:../Libraries/STM32F0xx_StdPeriph_Driver/src/stm32f0xx_flash.c ****   {
1076:../Libraries/STM32F0xx_StdPeriph_Driver/src/stm32f0xx_flash.c ****     readstatus = SET;
1077:../Libraries/STM32F0xx_StdPeriph_Driver/src/stm32f0xx_flash.c ****   }
1078:../Libraries/STM32F0xx_StdPeriph_Driver/src/stm32f0xx_flash.c ****   else
1079:../Libraries/STM32F0xx_StdPeriph_Driver/src/stm32f0xx_flash.c ****   {
1080:../Libraries/STM32F0xx_StdPeriph_Driver/src/stm32f0xx_flash.c ****     readstatus = RESET;
1081:../Libraries/STM32F0xx_StdPeriph_Driver/src/stm32f0xx_flash.c ****   }
1082:../Libraries/STM32F0xx_StdPeriph_Driver/src/stm32f0xx_flash.c ****   return readstatus;
 350              		.loc 1 1082 0
 351 0008 431E     		sub	r3, r0, #1
 352 000a 9841     		sbc	r0, r0, r3
1083:../Libraries/STM32F0xx_StdPeriph_Driver/src/stm32f0xx_flash.c **** }
 353              		.loc 1 1083 0
 354 000c 7047     		bx	lr
 355              	.L38:
 356 000e C046     		.align	2
 357              	.L37:
 358 0010 00200240 		.word	1073881088
 359              		.cfi_endproc
 360              	.LFE58:
 362              		.section	.text.FLASH_ITConfig,"ax",%progbits
 363              		.align	1
 364              		.global	FLASH_ITConfig
 365              		.code	16
 366              		.thumb_func
 368              	FLASH_ITConfig:
 369              	.LFB59:
1084:../Libraries/STM32F0xx_StdPeriph_Driver/src/stm32f0xx_flash.c **** 
1085:../Libraries/STM32F0xx_StdPeriph_Driver/src/stm32f0xx_flash.c **** /**
1086:../Libraries/STM32F0xx_StdPeriph_Driver/src/stm32f0xx_flash.c ****   * @}
1087:../Libraries/STM32F0xx_StdPeriph_Driver/src/stm32f0xx_flash.c ****   */
1088:../Libraries/STM32F0xx_StdPeriph_Driver/src/stm32f0xx_flash.c **** 
1089:../Libraries/STM32F0xx_StdPeriph_Driver/src/stm32f0xx_flash.c **** /** @defgroup FLASH_Group4 Interrupts and flags management functions
1090:../Libraries/STM32F0xx_StdPeriph_Driver/src/stm32f0xx_flash.c ****  *  @brief   Interrupts and flags management functions
1091:../Libraries/STM32F0xx_StdPeriph_Driver/src/stm32f0xx_flash.c ****  *
1092:../Libraries/STM32F0xx_StdPeriph_Driver/src/stm32f0xx_flash.c **** @verbatim   
1093:../Libraries/STM32F0xx_StdPeriph_Driver/src/stm32f0xx_flash.c ****  ===============================================================================
1094:../Libraries/STM32F0xx_StdPeriph_Driver/src/stm32f0xx_flash.c ****              ##### Interrupts and flags management functions #####
1095:../Libraries/STM32F0xx_StdPeriph_Driver/src/stm32f0xx_flash.c ****  ===============================================================================  
1096:../Libraries/STM32F0xx_StdPeriph_Driver/src/stm32f0xx_flash.c **** 
1097:../Libraries/STM32F0xx_StdPeriph_Driver/src/stm32f0xx_flash.c **** @endverbatim
1098:../Libraries/STM32F0xx_StdPeriph_Driver/src/stm32f0xx_flash.c ****   * @{
1099:../Libraries/STM32F0xx_StdPeriph_Driver/src/stm32f0xx_flash.c ****   */
1100:../Libraries/STM32F0xx_StdPeriph_Driver/src/stm32f0xx_flash.c **** 
1101:../Libraries/STM32F0xx_StdPeriph_Driver/src/stm32f0xx_flash.c **** /**
1102:../Libraries/STM32F0xx_StdPeriph_Driver/src/stm32f0xx_flash.c ****   * @brief  Enables or disables the specified FLASH interrupts.
1103:../Libraries/STM32F0xx_StdPeriph_Driver/src/stm32f0xx_flash.c ****   * @param  FLASH_IT: specifies the FLASH interrupt sources to be enabled or 
1104:../Libraries/STM32F0xx_StdPeriph_Driver/src/stm32f0xx_flash.c ****   *         disabled.
1105:../Libraries/STM32F0xx_StdPeriph_Driver/src/stm32f0xx_flash.c ****   *          This parameter can be any combination of the following values:
1106:../Libraries/STM32F0xx_StdPeriph_Driver/src/stm32f0xx_flash.c ****   *             @arg FLASH_IT_EOP: FLASH end of programming Interrupt
1107:../Libraries/STM32F0xx_StdPeriph_Driver/src/stm32f0xx_flash.c ****   *             @arg FLASH_IT_ERR: FLASH Error Interrupt
1108:../Libraries/STM32F0xx_StdPeriph_Driver/src/stm32f0xx_flash.c ****   * @retval None 
1109:../Libraries/STM32F0xx_StdPeriph_Driver/src/stm32f0xx_flash.c ****   */
1110:../Libraries/STM32F0xx_StdPeriph_Driver/src/stm32f0xx_flash.c **** void FLASH_ITConfig(uint32_t FLASH_IT, FunctionalState NewState)
1111:../Libraries/STM32F0xx_StdPeriph_Driver/src/stm32f0xx_flash.c **** {
 370              		.loc 1 1111 0
 371              		.cfi_startproc
 372 0000 00B5     		push	{lr}
 373              	.LCFI3:
 374              		.cfi_def_cfa_offset 4
 375              		.cfi_offset 14, -4
 376              	.LVL10:
 377 0002 054B     		ldr	r3, .L42
1112:../Libraries/STM32F0xx_StdPeriph_Driver/src/stm32f0xx_flash.c ****   /* Check the parameters */
1113:../Libraries/STM32F0xx_StdPeriph_Driver/src/stm32f0xx_flash.c ****   assert_param(IS_FLASH_IT(FLASH_IT)); 
1114:../Libraries/STM32F0xx_StdPeriph_Driver/src/stm32f0xx_flash.c ****   assert_param(IS_FUNCTIONAL_STATE(NewState));
1115:../Libraries/STM32F0xx_StdPeriph_Driver/src/stm32f0xx_flash.c ****   
1116:../Libraries/STM32F0xx_StdPeriph_Driver/src/stm32f0xx_flash.c ****   if(NewState != DISABLE)
1117:../Libraries/STM32F0xx_StdPeriph_Driver/src/stm32f0xx_flash.c ****   {
1118:../Libraries/STM32F0xx_StdPeriph_Driver/src/stm32f0xx_flash.c ****     /* Enable the interrupt sources */
1119:../Libraries/STM32F0xx_StdPeriph_Driver/src/stm32f0xx_flash.c ****     FLASH->CR |= FLASH_IT;
 378              		.loc 1 1119 0
 379 0004 1A69     		ldr	r2, [r3, #16]
1116:../Libraries/STM32F0xx_StdPeriph_Driver/src/stm32f0xx_flash.c ****   if(NewState != DISABLE)
 380              		.loc 1 1116 0
 381 0006 0029     		cmp	r1, #0
 382 0008 02D0     		beq	.L40
 383              		.loc 1 1119 0
 384 000a 1043     		orr	r0, r2
 385              	.LVL11:
 386 000c 1861     		str	r0, [r3, #16]
 387 000e 01E0     		b	.L39
 388              	.LVL12:
 389              	.L40:
1120:../Libraries/STM32F0xx_StdPeriph_Driver/src/stm32f0xx_flash.c ****   }
1121:../Libraries/STM32F0xx_StdPeriph_Driver/src/stm32f0xx_flash.c ****   else
1122:../Libraries/STM32F0xx_StdPeriph_Driver/src/stm32f0xx_flash.c ****   {
1123:../Libraries/STM32F0xx_StdPeriph_Driver/src/stm32f0xx_flash.c ****     /* Disable the interrupt sources */
1124:../Libraries/STM32F0xx_StdPeriph_Driver/src/stm32f0xx_flash.c ****     FLASH->CR &= ~(uint32_t)FLASH_IT;
 390              		.loc 1 1124 0
 391 0010 8243     		bic	r2, r0
 392 0012 1A61     		str	r2, [r3, #16]
 393              	.LVL13:
 394              	.L39:
 395              		@ sp needed for prologue
1125:../Libraries/STM32F0xx_StdPeriph_Driver/src/stm32f0xx_flash.c ****   }
1126:../Libraries/STM32F0xx_StdPeriph_Driver/src/stm32f0xx_flash.c **** }
 396              		.loc 1 1126 0
 397 0014 00BD     		pop	{pc}
 398              	.L43:
 399 0016 C046     		.align	2
 400              	.L42:
 401 0018 00200240 		.word	1073881088
 402              		.cfi_endproc
 403              	.LFE59:
 405              		.section	.text.FLASH_GetFlagStatus,"ax",%progbits
 406              		.align	1
 407              		.global	FLASH_GetFlagStatus
 408              		.code	16
 409              		.thumb_func
 411              	FLASH_GetFlagStatus:
 412              	.LFB60:
1127:../Libraries/STM32F0xx_StdPeriph_Driver/src/stm32f0xx_flash.c **** 
1128:../Libraries/STM32F0xx_StdPeriph_Driver/src/stm32f0xx_flash.c **** /**
1129:../Libraries/STM32F0xx_StdPeriph_Driver/src/stm32f0xx_flash.c ****   * @brief  Checks whether the specified FLASH flag is set or not.
1130:../Libraries/STM32F0xx_StdPeriph_Driver/src/stm32f0xx_flash.c ****   * @param  FLASH_FLAG: specifies the FLASH flag to check.
1131:../Libraries/STM32F0xx_StdPeriph_Driver/src/stm32f0xx_flash.c ****   *          This parameter can be one of the following values:
1132:../Libraries/STM32F0xx_StdPeriph_Driver/src/stm32f0xx_flash.c ****   *             @arg FLASH_FLAG_BSY: FLASH write/erase operations in progress flag 
1133:../Libraries/STM32F0xx_StdPeriph_Driver/src/stm32f0xx_flash.c ****   *             @arg FLASH_FLAG_PGERR: FLASH Programming error flag flag
1134:../Libraries/STM32F0xx_StdPeriph_Driver/src/stm32f0xx_flash.c ****   *             @arg FLASH_FLAG_WRPERR: FLASH Write protected error flag
1135:../Libraries/STM32F0xx_StdPeriph_Driver/src/stm32f0xx_flash.c ****   *             @arg FLASH_FLAG_EOP: FLASH End of Programming flag
1136:../Libraries/STM32F0xx_StdPeriph_Driver/src/stm32f0xx_flash.c ****   * @retval The new state of FLASH_FLAG (SET or RESET).
1137:../Libraries/STM32F0xx_StdPeriph_Driver/src/stm32f0xx_flash.c ****   */
1138:../Libraries/STM32F0xx_StdPeriph_Driver/src/stm32f0xx_flash.c **** FlagStatus FLASH_GetFlagStatus(uint32_t FLASH_FLAG)
1139:../Libraries/STM32F0xx_StdPeriph_Driver/src/stm32f0xx_flash.c **** {
 413              		.loc 1 1139 0
 414              		.cfi_startproc
 415              	.LVL14:
1140:../Libraries/STM32F0xx_StdPeriph_Driver/src/stm32f0xx_flash.c ****   FlagStatus bitstatus = RESET;
1141:../Libraries/STM32F0xx_StdPeriph_Driver/src/stm32f0xx_flash.c **** 
1142:../Libraries/STM32F0xx_StdPeriph_Driver/src/stm32f0xx_flash.c ****   /* Check the parameters */
1143:../Libraries/STM32F0xx_StdPeriph_Driver/src/stm32f0xx_flash.c ****   assert_param(IS_FLASH_GET_FLAG(FLASH_FLAG));
1144:../Libraries/STM32F0xx_StdPeriph_Driver/src/stm32f0xx_flash.c **** 
1145:../Libraries/STM32F0xx_StdPeriph_Driver/src/stm32f0xx_flash.c ****   if((FLASH->SR & FLASH_FLAG) != (uint32_t)RESET)
 416              		.loc 1 1145 0
 417 0000 0249     		ldr	r1, .L45
 418              		@ sp needed for prologue
 419 0002 CB68     		ldr	r3, [r1, #12]
 420              	.LVL15:
 421 0004 1840     		and	r0, r3
 422              	.LVL16:
1146:../Libraries/STM32F0xx_StdPeriph_Driver/src/stm32f0xx_flash.c ****   {
1147:../Libraries/STM32F0xx_StdPeriph_Driver/src/stm32f0xx_flash.c ****     bitstatus = SET;
1148:../Libraries/STM32F0xx_StdPeriph_Driver/src/stm32f0xx_flash.c ****   }
1149:../Libraries/STM32F0xx_StdPeriph_Driver/src/stm32f0xx_flash.c ****   else
1150:../Libraries/STM32F0xx_StdPeriph_Driver/src/stm32f0xx_flash.c ****   {
1151:../Libraries/STM32F0xx_StdPeriph_Driver/src/stm32f0xx_flash.c ****     bitstatus = RESET;
1152:../Libraries/STM32F0xx_StdPeriph_Driver/src/stm32f0xx_flash.c ****   }
1153:../Libraries/STM32F0xx_StdPeriph_Driver/src/stm32f0xx_flash.c ****   /* Return the new state of FLASH_FLAG (SET or RESET) */
1154:../Libraries/STM32F0xx_StdPeriph_Driver/src/stm32f0xx_flash.c ****   return bitstatus; 
 423              		.loc 1 1154 0
 424 0006 431E     		sub	r3, r0, #1
 425 0008 9841     		sbc	r0, r0, r3
1155:../Libraries/STM32F0xx_StdPeriph_Driver/src/stm32f0xx_flash.c **** }
 426              		.loc 1 1155 0
 427 000a 7047     		bx	lr
 428              	.L46:
 429              		.align	2
 430              	.L45:
 431 000c 00200240 		.word	1073881088
 432              		.cfi_endproc
 433              	.LFE60:
 435              		.section	.text.FLASH_ClearFlag,"ax",%progbits
 436              		.align	1
 437              		.global	FLASH_ClearFlag
 438              		.code	16
 439              		.thumb_func
 441              	FLASH_ClearFlag:
 442              	.LFB61:
1156:../Libraries/STM32F0xx_StdPeriph_Driver/src/stm32f0xx_flash.c **** 
1157:../Libraries/STM32F0xx_StdPeriph_Driver/src/stm32f0xx_flash.c **** /**
1158:../Libraries/STM32F0xx_StdPeriph_Driver/src/stm32f0xx_flash.c ****   * @brief  Clears the FLASH's pending flags.
1159:../Libraries/STM32F0xx_StdPeriph_Driver/src/stm32f0xx_flash.c ****   * @param  FLASH_FLAG: specifies the FLASH flags to clear.
1160:../Libraries/STM32F0xx_StdPeriph_Driver/src/stm32f0xx_flash.c ****   *          This parameter can be any combination of the following values:
1161:../Libraries/STM32F0xx_StdPeriph_Driver/src/stm32f0xx_flash.c ****   *             @arg FLASH_FLAG_PGERR: FLASH Programming error flag flag
1162:../Libraries/STM32F0xx_StdPeriph_Driver/src/stm32f0xx_flash.c ****   *             @arg FLASH_FLAG_WRPERR: FLASH Write protected error flag
1163:../Libraries/STM32F0xx_StdPeriph_Driver/src/stm32f0xx_flash.c ****   *             @arg FLASH_FLAG_EOP: FLASH End of Programming flag
1164:../Libraries/STM32F0xx_StdPeriph_Driver/src/stm32f0xx_flash.c ****   * @retval None
1165:../Libraries/STM32F0xx_StdPeriph_Driver/src/stm32f0xx_flash.c ****   */
1166:../Libraries/STM32F0xx_StdPeriph_Driver/src/stm32f0xx_flash.c **** void FLASH_ClearFlag(uint32_t FLASH_FLAG)
1167:../Libraries/STM32F0xx_StdPeriph_Driver/src/stm32f0xx_flash.c **** {
 443              		.loc 1 1167 0
 444              		.cfi_startproc
 445              	.LVL17:
1168:../Libraries/STM32F0xx_StdPeriph_Driver/src/stm32f0xx_flash.c ****   /* Check the parameters */
1169:../Libraries/STM32F0xx_StdPeriph_Driver/src/stm32f0xx_flash.c ****   assert_param(IS_FLASH_CLEAR_FLAG(FLASH_FLAG));
1170:../Libraries/STM32F0xx_StdPeriph_Driver/src/stm32f0xx_flash.c ****   
1171:../Libraries/STM32F0xx_StdPeriph_Driver/src/stm32f0xx_flash.c ****   /* Clear the flags */
1172:../Libraries/STM32F0xx_StdPeriph_Driver/src/stm32f0xx_flash.c ****   FLASH->SR = FLASH_FLAG;
 446              		.loc 1 1172 0
 447 0000 014B     		ldr	r3, .L48
 448              		@ sp needed for prologue
 449 0002 D860     		str	r0, [r3, #12]
1173:../Libraries/STM32F0xx_StdPeriph_Driver/src/stm32f0xx_flash.c **** }
 450              		.loc 1 1173 0
 451 0004 7047     		bx	lr
 452              	.L49:
 453 0006 C046     		.align	2
 454              	.L48:
 455 0008 00200240 		.word	1073881088
 456              		.cfi_endproc
 457              	.LFE61:
 459              		.section	.text.FLASH_GetStatus,"ax",%progbits
 460              		.align	1
 461              		.global	FLASH_GetStatus
 462              		.code	16
 463              		.thumb_func
 465              	FLASH_GetStatus:
 466              	.LFB62:
1174:../Libraries/STM32F0xx_StdPeriph_Driver/src/stm32f0xx_flash.c **** 
1175:../Libraries/STM32F0xx_StdPeriph_Driver/src/stm32f0xx_flash.c **** /**
1176:../Libraries/STM32F0xx_StdPeriph_Driver/src/stm32f0xx_flash.c ****   * @brief  Returns the FLASH Status.
1177:../Libraries/STM32F0xx_StdPeriph_Driver/src/stm32f0xx_flash.c ****   * @param  None
1178:../Libraries/STM32F0xx_StdPeriph_Driver/src/stm32f0xx_flash.c ****   * @retval FLASH Status: The returned value can be: 
1179:../Libraries/STM32F0xx_StdPeriph_Driver/src/stm32f0xx_flash.c ****   *         FLASH_BUSY, FLASH_ERROR_PROGRAM, FLASH_ERROR_WRP or FLASH_COMPLETE.
1180:../Libraries/STM32F0xx_StdPeriph_Driver/src/stm32f0xx_flash.c ****   */
1181:../Libraries/STM32F0xx_StdPeriph_Driver/src/stm32f0xx_flash.c **** FLASH_Status FLASH_GetStatus(void)
1182:../Libraries/STM32F0xx_StdPeriph_Driver/src/stm32f0xx_flash.c **** {
 467              		.loc 1 1182 0
 468              		.cfi_startproc
 469 0000 00B5     		push	{lr}
 470              	.LCFI4:
 471              		.cfi_def_cfa_offset 4
 472              		.cfi_offset 14, -4
 473              	.LVL18:
1183:../Libraries/STM32F0xx_StdPeriph_Driver/src/stm32f0xx_flash.c ****   FLASH_Status FLASHstatus = FLASH_COMPLETE;
1184:../Libraries/STM32F0xx_StdPeriph_Driver/src/stm32f0xx_flash.c ****   
1185:../Libraries/STM32F0xx_StdPeriph_Driver/src/stm32f0xx_flash.c ****   if((FLASH->SR & FLASH_FLAG_BSY) == FLASH_FLAG_BSY) 
 474              		.loc 1 1185 0
 475 0002 084B     		ldr	r3, .L55
1186:../Libraries/STM32F0xx_StdPeriph_Driver/src/stm32f0xx_flash.c ****   {
1187:../Libraries/STM32F0xx_StdPeriph_Driver/src/stm32f0xx_flash.c ****     FLASHstatus = FLASH_BUSY;
 476              		.loc 1 1187 0
 477 0004 0120     		mov	r0, #1
1185:../Libraries/STM32F0xx_StdPeriph_Driver/src/stm32f0xx_flash.c ****   if((FLASH->SR & FLASH_FLAG_BSY) == FLASH_FLAG_BSY) 
 478              		.loc 1 1185 0
 479 0006 DA68     		ldr	r2, [r3, #12]
 480 0008 0242     		tst	r2, r0
 481 000a 09D1     		bne	.L51
1188:../Libraries/STM32F0xx_StdPeriph_Driver/src/stm32f0xx_flash.c ****   }
1189:../Libraries/STM32F0xx_StdPeriph_Driver/src/stm32f0xx_flash.c ****   else 
1190:../Libraries/STM32F0xx_StdPeriph_Driver/src/stm32f0xx_flash.c ****   {  
1191:../Libraries/STM32F0xx_StdPeriph_Driver/src/stm32f0xx_flash.c ****     if((FLASH->SR & (uint32_t)FLASH_FLAG_WRPERR)!= (uint32_t)0x00)
 482              		.loc 1 1191 0
 483 000c D968     		ldr	r1, [r3, #12]
1192:../Libraries/STM32F0xx_StdPeriph_Driver/src/stm32f0xx_flash.c ****     { 
1193:../Libraries/STM32F0xx_StdPeriph_Driver/src/stm32f0xx_flash.c ****       FLASHstatus = FLASH_ERROR_WRP;
 484              		.loc 1 1193 0
 485 000e 0220     		mov	r0, #2
1191:../Libraries/STM32F0xx_StdPeriph_Driver/src/stm32f0xx_flash.c ****     if((FLASH->SR & (uint32_t)FLASH_FLAG_WRPERR)!= (uint32_t)0x00)
 486              		.loc 1 1191 0
 487 0010 C906     		lsl	r1, r1, #27
 488 0012 05D4     		bmi	.L51
1194:../Libraries/STM32F0xx_StdPeriph_Driver/src/stm32f0xx_flash.c ****     }
1195:../Libraries/STM32F0xx_StdPeriph_Driver/src/stm32f0xx_flash.c ****     else 
1196:../Libraries/STM32F0xx_StdPeriph_Driver/src/stm32f0xx_flash.c ****     {
1197:../Libraries/STM32F0xx_StdPeriph_Driver/src/stm32f0xx_flash.c ****       if((FLASH->SR & (uint32_t)(FLASH_SR_PGERR)) != (uint32_t)0x00)
 489              		.loc 1 1197 0
 490 0014 D868     		ldr	r0, [r3, #12]
 491 0016 0423     		mov	r3, #4
 492 0018 1840     		and	r0, r3
1198:../Libraries/STM32F0xx_StdPeriph_Driver/src/stm32f0xx_flash.c ****       {
1199:../Libraries/STM32F0xx_StdPeriph_Driver/src/stm32f0xx_flash.c ****         FLASHstatus = FLASH_ERROR_PROGRAM; 
 493              		.loc 1 1199 0
 494 001a 4342     		neg	r3, r0
 495 001c 5841     		adc	r0, r0, r3
 496 001e 0330     		add	r0, r0, #3
 497              	.L51:
 498              	.LVL19:
 499              		@ sp needed for prologue
1200:../Libraries/STM32F0xx_StdPeriph_Driver/src/stm32f0xx_flash.c ****       }
1201:../Libraries/STM32F0xx_StdPeriph_Driver/src/stm32f0xx_flash.c ****       else
1202:../Libraries/STM32F0xx_StdPeriph_Driver/src/stm32f0xx_flash.c ****       {
1203:../Libraries/STM32F0xx_StdPeriph_Driver/src/stm32f0xx_flash.c ****         FLASHstatus = FLASH_COMPLETE;
1204:../Libraries/STM32F0xx_StdPeriph_Driver/src/stm32f0xx_flash.c ****       }
1205:../Libraries/STM32F0xx_StdPeriph_Driver/src/stm32f0xx_flash.c ****     }
1206:../Libraries/STM32F0xx_StdPeriph_Driver/src/stm32f0xx_flash.c ****   }
1207:../Libraries/STM32F0xx_StdPeriph_Driver/src/stm32f0xx_flash.c ****   /* Return the FLASH Status */
1208:../Libraries/STM32F0xx_StdPeriph_Driver/src/stm32f0xx_flash.c ****   return FLASHstatus;
1209:../Libraries/STM32F0xx_StdPeriph_Driver/src/stm32f0xx_flash.c **** }
 500              		.loc 1 1209 0
 501 0020 00BD     		pop	{pc}
 502              	.L56:
 503 0022 C046     		.align	2
 504              	.L55:
 505 0024 00200240 		.word	1073881088
 506              		.cfi_endproc
 507              	.LFE62:
 509              		.section	.text.FLASH_WaitForLastOperation.constprop.0,"ax",%progbits
 510              		.align	1
 511              		.code	16
 512              		.thumb_func
 514              	FLASH_WaitForLastOperation.constprop.0:
 515              	.LFB64:
1210:../Libraries/STM32F0xx_StdPeriph_Driver/src/stm32f0xx_flash.c **** 
1211:../Libraries/STM32F0xx_StdPeriph_Driver/src/stm32f0xx_flash.c **** 
1212:../Libraries/STM32F0xx_StdPeriph_Driver/src/stm32f0xx_flash.c **** /**
1213:../Libraries/STM32F0xx_StdPeriph_Driver/src/stm32f0xx_flash.c ****   * @brief  Waits for a FLASH operation to complete or a TIMEOUT to occur.
1214:../Libraries/STM32F0xx_StdPeriph_Driver/src/stm32f0xx_flash.c ****   * @param  Timeout: FLASH programming Timeout
1215:../Libraries/STM32F0xx_StdPeriph_Driver/src/stm32f0xx_flash.c ****   * @retval FLASH Status: The returned value can be: FLASH_BUSY, 
1216:../Libraries/STM32F0xx_StdPeriph_Driver/src/stm32f0xx_flash.c ****   *         FLASH_ERROR_PROGRAM, FLASH_ERROR_WRP, FLASH_COMPLETE or FLASH_TIMEOUT.
1217:../Libraries/STM32F0xx_StdPeriph_Driver/src/stm32f0xx_flash.c ****   */
1218:../Libraries/STM32F0xx_StdPeriph_Driver/src/stm32f0xx_flash.c **** FLASH_Status FLASH_WaitForLastOperation(uint32_t Timeout)
 516              		.loc 1 1218 0
 517              		.cfi_startproc
 518 0000 10B5     		push	{r4, lr}
 519              	.LCFI5:
 520              		.cfi_def_cfa_offset 8
 521              		.cfi_offset 4, -8
 522              		.cfi_offset 14, -4
 523              	.LVL20:
1219:../Libraries/STM32F0xx_StdPeriph_Driver/src/stm32f0xx_flash.c **** { 
1220:../Libraries/STM32F0xx_StdPeriph_Driver/src/stm32f0xx_flash.c ****   FLASH_Status status = FLASH_COMPLETE;
1221:../Libraries/STM32F0xx_StdPeriph_Driver/src/stm32f0xx_flash.c ****    
1222:../Libraries/STM32F0xx_StdPeriph_Driver/src/stm32f0xx_flash.c ****   /* Check for the FLASH Status */
1223:../Libraries/STM32F0xx_StdPeriph_Driver/src/stm32f0xx_flash.c ****   status = FLASH_GetStatus();
 524              		.loc 1 1223 0
 525 0002 B024     		mov	r4, #176
 526 0004 FFF7FEFF 		bl	FLASH_GetStatus
 527              	.LVL21:
 528 0008 2403     		lsl	r4, r4, #12
 529 000a 02E0     		b	.L58
 530              	.LVL22:
 531              	.L59:
1224:../Libraries/STM32F0xx_StdPeriph_Driver/src/stm32f0xx_flash.c ****   
1225:../Libraries/STM32F0xx_StdPeriph_Driver/src/stm32f0xx_flash.c ****   /* Wait for a FLASH operation to complete or a TIMEOUT to occur */
1226:../Libraries/STM32F0xx_StdPeriph_Driver/src/stm32f0xx_flash.c ****   while((status == FLASH_BUSY) && (Timeout != 0x00))
1227:../Libraries/STM32F0xx_StdPeriph_Driver/src/stm32f0xx_flash.c ****   {
1228:../Libraries/STM32F0xx_StdPeriph_Driver/src/stm32f0xx_flash.c ****     status = FLASH_GetStatus();
 532              		.loc 1 1228 0
 533 000c FFF7FEFF 		bl	FLASH_GetStatus
 534              	.LVL23:
1229:../Libraries/STM32F0xx_StdPeriph_Driver/src/stm32f0xx_flash.c ****     Timeout--;
 535              		.loc 1 1229 0
 536 0010 013C     		sub	r4, r4, #1
 537              	.LVL24:
 538              	.L58:
1226:../Libraries/STM32F0xx_StdPeriph_Driver/src/stm32f0xx_flash.c ****   while((status == FLASH_BUSY) && (Timeout != 0x00))
 539              		.loc 1 1226 0
 540 0012 002C     		cmp	r4, #0
 541 0014 01D0     		beq	.L63
 542 0016 0128     		cmp	r0, #1
 543 0018 F8D0     		beq	.L59
 544              	.L63:
1230:../Libraries/STM32F0xx_StdPeriph_Driver/src/stm32f0xx_flash.c ****   }
1231:../Libraries/STM32F0xx_StdPeriph_Driver/src/stm32f0xx_flash.c ****   
1232:../Libraries/STM32F0xx_StdPeriph_Driver/src/stm32f0xx_flash.c ****   if(Timeout == 0x00 )
 545              		.loc 1 1232 0
 546 001a 002C     		cmp	r4, #0
 547 001c 00D1     		bne	.L61
1233:../Libraries/STM32F0xx_StdPeriph_Driver/src/stm32f0xx_flash.c ****   {
1234:../Libraries/STM32F0xx_StdPeriph_Driver/src/stm32f0xx_flash.c ****     status = FLASH_TIMEOUT;
 548              		.loc 1 1234 0
 549 001e 0520     		mov	r0, #5
 550              	.LVL25:
 551              	.L61:
 552              		@ sp needed for prologue
 553              	.LVL26:
1235:../Libraries/STM32F0xx_StdPeriph_Driver/src/stm32f0xx_flash.c ****   }
1236:../Libraries/STM32F0xx_StdPeriph_Driver/src/stm32f0xx_flash.c ****   /* Return the operation status */
1237:../Libraries/STM32F0xx_StdPeriph_Driver/src/stm32f0xx_flash.c ****   return status;
1238:../Libraries/STM32F0xx_StdPeriph_Driver/src/stm32f0xx_flash.c **** }
 554              		.loc 1 1238 0
 555 0020 10BD     		pop	{r4, pc}
 556              		.cfi_endproc
 557              	.LFE64:
 559              		.section	.text.FLASH_ErasePage,"ax",%progbits
 560              		.align	1
 561              		.global	FLASH_ErasePage
 562              		.code	16
 563              		.thumb_func
 565              	FLASH_ErasePage:
 566              	.LFB38:
 265:../Libraries/STM32F0xx_StdPeriph_Driver/src/stm32f0xx_flash.c **** {
 567              		.loc 1 265 0
 568              		.cfi_startproc
 569 0000 70B5     		push	{r4, r5, r6, lr}
 570              	.LCFI6:
 571              		.cfi_def_cfa_offset 16
 572              		.cfi_offset 4, -16
 573              		.cfi_offset 5, -12
 574              		.cfi_offset 6, -8
 575              		.cfi_offset 14, -4
 576              	.LVL27:
 265:../Libraries/STM32F0xx_StdPeriph_Driver/src/stm32f0xx_flash.c **** {
 577              		.loc 1 265 0
 578 0002 061C     		mov	r6, r0
 272:../Libraries/STM32F0xx_StdPeriph_Driver/src/stm32f0xx_flash.c ****   status = FLASH_WaitForLastOperation(FLASH_ER_PRG_TIMEOUT);
 579              		.loc 1 272 0
 580 0004 FFF7FEFF 		bl	FLASH_WaitForLastOperation.constprop.0
 581              	.LVL28:
 274:../Libraries/STM32F0xx_StdPeriph_Driver/src/stm32f0xx_flash.c ****   if(status == FLASH_COMPLETE)
 582              		.loc 1 274 0
 583 0008 0428     		cmp	r0, #4
 584 000a 0ED1     		bne	.L65
 277:../Libraries/STM32F0xx_StdPeriph_Driver/src/stm32f0xx_flash.c ****     FLASH->CR |= FLASH_CR_PER;
 585              		.loc 1 277 0
 586 000c 074C     		ldr	r4, .L66
 587 000e 0225     		mov	r5, #2
 588 0010 2169     		ldr	r1, [r4, #16]
 279:../Libraries/STM32F0xx_StdPeriph_Driver/src/stm32f0xx_flash.c ****     FLASH->CR |= FLASH_CR_STRT;
 589              		.loc 1 279 0
 590 0012 4022     		mov	r2, #64
 277:../Libraries/STM32F0xx_StdPeriph_Driver/src/stm32f0xx_flash.c ****     FLASH->CR |= FLASH_CR_PER;
 591              		.loc 1 277 0
 592 0014 2943     		orr	r1, r5
 593 0016 2161     		str	r1, [r4, #16]
 278:../Libraries/STM32F0xx_StdPeriph_Driver/src/stm32f0xx_flash.c ****     FLASH->AR  = Page_Address;
 594              		.loc 1 278 0
 595 0018 6661     		str	r6, [r4, #20]
 279:../Libraries/STM32F0xx_StdPeriph_Driver/src/stm32f0xx_flash.c ****     FLASH->CR |= FLASH_CR_STRT;
 596              		.loc 1 279 0
 597 001a 2069     		ldr	r0, [r4, #16]
 598              	.LVL29:
 599 001c 1043     		orr	r0, r2
 600 001e 2061     		str	r0, [r4, #16]
 282:../Libraries/STM32F0xx_StdPeriph_Driver/src/stm32f0xx_flash.c ****     status = FLASH_WaitForLastOperation(FLASH_ER_PRG_TIMEOUT);
 601              		.loc 1 282 0
 602 0020 FFF7FEFF 		bl	FLASH_WaitForLastOperation.constprop.0
 603              	.LVL30:
 285:../Libraries/STM32F0xx_StdPeriph_Driver/src/stm32f0xx_flash.c ****     FLASH->CR &= ~FLASH_CR_PER;
 604              		.loc 1 285 0
 605 0024 2369     		ldr	r3, [r4, #16]
 606 0026 AB43     		bic	r3, r5
 607 0028 2361     		str	r3, [r4, #16]
 608              	.LVL31:
 609              	.L65:
 610              		@ sp needed for prologue
 611              	.LVL32:
 290:../Libraries/STM32F0xx_StdPeriph_Driver/src/stm32f0xx_flash.c **** }
 612              		.loc 1 290 0
 613 002a 70BD     		pop	{r4, r5, r6, pc}
 614              	.L67:
 615              		.align	2
 616              	.L66:
 617 002c 00200240 		.word	1073881088
 618              		.cfi_endproc
 619              	.LFE38:
 621              		.section	.text.FLASH_EraseAllPages,"ax",%progbits
 622              		.align	1
 623              		.global	FLASH_EraseAllPages
 624              		.code	16
 625              		.thumb_func
 627              	FLASH_EraseAllPages:
 628              	.LFB39:
 302:../Libraries/STM32F0xx_StdPeriph_Driver/src/stm32f0xx_flash.c **** {
 629              		.loc 1 302 0
 630              		.cfi_startproc
 631 0000 38B5     		push	{r3, r4, r5, lr}
 632              	.LCFI7:
 633              		.cfi_def_cfa_offset 16
 634              		.cfi_offset 3, -16
 635              		.cfi_offset 4, -12
 636              		.cfi_offset 5, -8
 637              		.cfi_offset 14, -4
 638              	.LVL33:
 306:../Libraries/STM32F0xx_StdPeriph_Driver/src/stm32f0xx_flash.c ****   status = FLASH_WaitForLastOperation(FLASH_ER_PRG_TIMEOUT);
 639              		.loc 1 306 0
 640 0002 FFF7FEFF 		bl	FLASH_WaitForLastOperation.constprop.0
 641 0006 051C     		mov	r5, r0
 642              	.LVL34:
 308:../Libraries/STM32F0xx_StdPeriph_Driver/src/stm32f0xx_flash.c ****   if(status == FLASH_COMPLETE)
 643              		.loc 1 308 0
 644 0008 0428     		cmp	r0, #4
 645 000a 0CD1     		bne	.L69
 311:../Libraries/STM32F0xx_StdPeriph_Driver/src/stm32f0xx_flash.c ****      FLASH->CR |= FLASH_CR_MER;
 646              		.loc 1 311 0
 647 000c 064C     		ldr	r4, .L70
 312:../Libraries/STM32F0xx_StdPeriph_Driver/src/stm32f0xx_flash.c ****      FLASH->CR |= FLASH_CR_STRT;
 648              		.loc 1 312 0
 649 000e 4022     		mov	r2, #64
 311:../Libraries/STM32F0xx_StdPeriph_Driver/src/stm32f0xx_flash.c ****      FLASH->CR |= FLASH_CR_MER;
 650              		.loc 1 311 0
 651 0010 2169     		ldr	r1, [r4, #16]
 652 0012 0843     		orr	r0, r1
 653              	.LVL35:
 654 0014 2061     		str	r0, [r4, #16]
 312:../Libraries/STM32F0xx_StdPeriph_Driver/src/stm32f0xx_flash.c ****      FLASH->CR |= FLASH_CR_STRT;
 655              		.loc 1 312 0
 656 0016 2069     		ldr	r0, [r4, #16]
 657 0018 1043     		orr	r0, r2
 658 001a 2061     		str	r0, [r4, #16]
 315:../Libraries/STM32F0xx_StdPeriph_Driver/src/stm32f0xx_flash.c ****     status = FLASH_WaitForLastOperation(FLASH_ER_PRG_TIMEOUT);
 659              		.loc 1 315 0
 660 001c FFF7FEFF 		bl	FLASH_WaitForLastOperation.constprop.0
 661              	.LVL36:
 318:../Libraries/STM32F0xx_StdPeriph_Driver/src/stm32f0xx_flash.c ****     FLASH->CR &= ~FLASH_CR_MER;
 662              		.loc 1 318 0
 663 0020 2369     		ldr	r3, [r4, #16]
 664 0022 AB43     		bic	r3, r5
 665 0024 2361     		str	r3, [r4, #16]
 666              	.LVL37:
 667              	.L69:
 668              		@ sp needed for prologue
 323:../Libraries/STM32F0xx_StdPeriph_Driver/src/stm32f0xx_flash.c **** }
 669              		.loc 1 323 0
 670 0026 38BD     		pop	{r3, r4, r5, pc}
 671              	.L71:
 672              		.align	2
 673              	.L70:
 674 0028 00200240 		.word	1073881088
 675              		.cfi_endproc
 676              	.LFE39:
 678              		.section	.text.FLASH_ProgramWord,"ax",%progbits
 679              		.align	1
 680              		.global	FLASH_ProgramWord
 681              		.code	16
 682              		.thumb_func
 684              	FLASH_ProgramWord:
 685              	.LFB40:
 336:../Libraries/STM32F0xx_StdPeriph_Driver/src/stm32f0xx_flash.c **** {
 686              		.loc 1 336 0
 687              		.cfi_startproc
 688 0000 F7B5     		push	{r0, r1, r2, r4, r5, r6, r7, lr}
 689              	.LCFI8:
 690              		.cfi_def_cfa_offset 32
 691              		.cfi_offset 0, -32
 692              		.cfi_offset 1, -28
 693              		.cfi_offset 2, -24
 694              		.cfi_offset 4, -20
 695              		.cfi_offset 5, -16
 696              		.cfi_offset 6, -12
 697              		.cfi_offset 7, -8
 698              		.cfi_offset 14, -4
 699              	.LVL38:
 338:../Libraries/STM32F0xx_StdPeriph_Driver/src/stm32f0xx_flash.c ****   __IO uint32_t tmp = 0;
 700              		.loc 1 338 0
 701 0002 0023     		mov	r3, #0
 336:../Libraries/STM32F0xx_StdPeriph_Driver/src/stm32f0xx_flash.c **** {
 702              		.loc 1 336 0
 703 0004 061C     		mov	r6, r0
 704 0006 0F1C     		mov	r7, r1
 338:../Libraries/STM32F0xx_StdPeriph_Driver/src/stm32f0xx_flash.c ****   __IO uint32_t tmp = 0;
 705              		.loc 1 338 0
 706 0008 0193     		str	r3, [sp, #4]
 707              	.LVL39:
 344:../Libraries/STM32F0xx_StdPeriph_Driver/src/stm32f0xx_flash.c ****   status = FLASH_WaitForLastOperation(FLASH_ER_PRG_TIMEOUT);
 708              		.loc 1 344 0
 709 000a FFF7FEFF 		bl	FLASH_WaitForLastOperation.constprop.0
 710              	.LVL40:
 346:../Libraries/STM32F0xx_StdPeriph_Driver/src/stm32f0xx_flash.c ****   if(status == FLASH_COMPLETE)
 711              		.loc 1 346 0
 712 000e 0428     		cmp	r0, #4
 713 0010 13D1     		bne	.L73
 350:../Libraries/STM32F0xx_StdPeriph_Driver/src/stm32f0xx_flash.c ****     FLASH->CR |= FLASH_CR_PG;
 714              		.loc 1 350 0
 715 0012 0A4C     		ldr	r4, .L75
 716 0014 0125     		mov	r5, #1
 717 0016 2169     		ldr	r1, [r4, #16]
 718 0018 2943     		orr	r1, r5
 719 001a 2161     		str	r1, [r4, #16]
 352:../Libraries/STM32F0xx_StdPeriph_Driver/src/stm32f0xx_flash.c ****     *(__IO uint16_t*)Address = (uint16_t)Data;
 720              		.loc 1 352 0
 721 001c 3780     		strh	r7, [r6]
 355:../Libraries/STM32F0xx_StdPeriph_Driver/src/stm32f0xx_flash.c ****     status = FLASH_WaitForLastOperation(FLASH_ER_PRG_TIMEOUT);
 722              		.loc 1 355 0
 723 001e FFF7FEFF 		bl	FLASH_WaitForLastOperation.constprop.0
 724              	.LVL41:
 357:../Libraries/STM32F0xx_StdPeriph_Driver/src/stm32f0xx_flash.c ****     if(status == FLASH_COMPLETE)
 725              		.loc 1 357 0
 726 0022 0428     		cmp	r0, #4
 727 0024 06D1     		bne	.L74
 361:../Libraries/STM32F0xx_StdPeriph_Driver/src/stm32f0xx_flash.c ****       tmp = Address + 2;
 728              		.loc 1 361 0
 729 0026 0236     		add	r6, r6, #2
 730              	.LVL42:
 731 0028 0196     		str	r6, [sp, #4]
 732              	.LVL43:
 363:../Libraries/STM32F0xx_StdPeriph_Driver/src/stm32f0xx_flash.c ****       *(__IO uint16_t*) tmp = Data >> 16;
 733              		.loc 1 363 0
 734 002a 019A     		ldr	r2, [sp, #4]
 735 002c 3F0C     		lsr	r7, r7, #16
 736              	.LVL44:
 737 002e 1780     		strh	r7, [r2]
 366:../Libraries/STM32F0xx_StdPeriph_Driver/src/stm32f0xx_flash.c ****       status = FLASH_WaitForLastOperation(FLASH_ER_PRG_TIMEOUT);
 738              		.loc 1 366 0
 739 0030 FFF7FEFF 		bl	FLASH_WaitForLastOperation.constprop.0
 740              	.LVL45:
 741              	.L74:
 374:../Libraries/STM32F0xx_StdPeriph_Driver/src/stm32f0xx_flash.c ****       FLASH->CR &= ~FLASH_CR_PG;
 742              		.loc 1 374 0
 743 0034 2669     		ldr	r6, [r4, #16]
 744              	.LVL46:
 745 0036 AE43     		bic	r6, r5
 746 0038 2661     		str	r6, [r4, #16]
 747              	.L73:
 748              	.LVL47:
 749              		@ sp needed for prologue
 380:../Libraries/STM32F0xx_StdPeriph_Driver/src/stm32f0xx_flash.c **** }
 750              		.loc 1 380 0
 751 003a FEBD     		pop	{r1, r2, r3, r4, r5, r6, r7, pc}
 752              	.L76:
 753              		.align	2
 754              	.L75:
 755 003c 00200240 		.word	1073881088
 756              		.cfi_endproc
 757              	.LFE40:
 759              		.section	.text.FLASH_ProgramHalfWord,"ax",%progbits
 760              		.align	1
 761              		.global	FLASH_ProgramHalfWord
 762              		.code	16
 763              		.thumb_func
 765              	FLASH_ProgramHalfWord:
 766              	.LFB41:
 393:../Libraries/STM32F0xx_StdPeriph_Driver/src/stm32f0xx_flash.c **** {
 767              		.loc 1 393 0
 768              		.cfi_startproc
 769 0000 F8B5     		push	{r3, r4, r5, r6, r7, lr}
 770              	.LCFI9:
 771              		.cfi_def_cfa_offset 24
 772              		.cfi_offset 3, -24
 773              		.cfi_offset 4, -20
 774              		.cfi_offset 5, -16
 775              		.cfi_offset 6, -12
 776              		.cfi_offset 7, -8
 777              		.cfi_offset 14, -4
 778              	.LVL48:
 393:../Libraries/STM32F0xx_StdPeriph_Driver/src/stm32f0xx_flash.c **** {
 779              		.loc 1 393 0
 780 0002 071C     		mov	r7, r0
 781 0004 0E1C     		mov	r6, r1
 400:../Libraries/STM32F0xx_StdPeriph_Driver/src/stm32f0xx_flash.c ****   status = FLASH_WaitForLastOperation(FLASH_ER_PRG_TIMEOUT);
 782              		.loc 1 400 0
 783 0006 FFF7FEFF 		bl	FLASH_WaitForLastOperation.constprop.0
 784              	.LVL49:
 402:../Libraries/STM32F0xx_StdPeriph_Driver/src/stm32f0xx_flash.c ****   if(status == FLASH_COMPLETE)
 785              		.loc 1 402 0
 786 000a 0428     		cmp	r0, #4
 787 000c 0AD1     		bne	.L78
 405:../Libraries/STM32F0xx_StdPeriph_Driver/src/stm32f0xx_flash.c ****     FLASH->CR |= FLASH_CR_PG;
 788              		.loc 1 405 0
 789 000e 064C     		ldr	r4, .L79
 790 0010 0125     		mov	r5, #1
 791 0012 2069     		ldr	r0, [r4, #16]
 792              	.LVL50:
 793 0014 2843     		orr	r0, r5
 794 0016 2061     		str	r0, [r4, #16]
 407:../Libraries/STM32F0xx_StdPeriph_Driver/src/stm32f0xx_flash.c ****     *(__IO uint16_t*)Address = Data;
 795              		.loc 1 407 0
 796 0018 3E80     		strh	r6, [r7]
 410:../Libraries/STM32F0xx_StdPeriph_Driver/src/stm32f0xx_flash.c ****     status = FLASH_WaitForLastOperation(FLASH_ER_PRG_TIMEOUT);
 797              		.loc 1 410 0
 798 001a FFF7FEFF 		bl	FLASH_WaitForLastOperation.constprop.0
 799              	.LVL51:
 413:../Libraries/STM32F0xx_StdPeriph_Driver/src/stm32f0xx_flash.c ****     FLASH->CR &= ~FLASH_CR_PG;
 800              		.loc 1 413 0
 801 001e 2369     		ldr	r3, [r4, #16]
 802 0020 AB43     		bic	r3, r5
 803 0022 2361     		str	r3, [r4, #16]
 804              	.LVL52:
 805              	.L78:
 806              		@ sp needed for prologue
 807              	.LVL53:
 418:../Libraries/STM32F0xx_StdPeriph_Driver/src/stm32f0xx_flash.c **** }
 808              		.loc 1 418 0
 809 0024 F8BD     		pop	{r3, r4, r5, r6, r7, pc}
 810              	.L80:
 811 0026 C046     		.align	2
 812              	.L79:
 813 0028 00200240 		.word	1073881088
 814              		.cfi_endproc
 815              	.LFE41:
 817              		.section	.text.FLASH_OB_Erase,"ax",%progbits
 818              		.align	1
 819              		.global	FLASH_OB_Erase
 820              		.code	16
 821              		.thumb_func
 823              	FLASH_OB_Erase:
 824              	.LFB45:
 525:../Libraries/STM32F0xx_StdPeriph_Driver/src/stm32f0xx_flash.c **** {
 825              		.loc 1 525 0
 826              		.cfi_startproc
 827 0000 70B5     		push	{r4, r5, r6, lr}
 828              	.LCFI10:
 829              		.cfi_def_cfa_offset 16
 830              		.cfi_offset 4, -16
 831              		.cfi_offset 5, -12
 832              		.cfi_offset 6, -8
 833              		.cfi_offset 14, -4
 834              	.LVL54:
 531:../Libraries/STM32F0xx_StdPeriph_Driver/src/stm32f0xx_flash.c ****   if(FLASH_OB_GetRDP() != RESET)
 835              		.loc 1 531 0
 836 0002 FFF7FEFF 		bl	FLASH_OB_GetRDP
 533:../Libraries/STM32F0xx_StdPeriph_Driver/src/stm32f0xx_flash.c ****     rdptmp = 0x00;  
 837              		.loc 1 533 0
 838 0006 0026     		mov	r6, #0
 531:../Libraries/STM32F0xx_StdPeriph_Driver/src/stm32f0xx_flash.c ****   if(FLASH_OB_GetRDP() != RESET)
 839              		.loc 1 531 0
 840 0008 B042     		cmp	r0, r6
 841 000a 00D1     		bne	.L82
 526:../Libraries/STM32F0xx_StdPeriph_Driver/src/stm32f0xx_flash.c ****   uint16_t rdptmp = OB_RDP_Level_0;
 842              		.loc 1 526 0
 843 000c AA26     		mov	r6, #170
 844              	.L82:
 845              	.LVL55:
 537:../Libraries/STM32F0xx_StdPeriph_Driver/src/stm32f0xx_flash.c ****   status = FLASH_WaitForLastOperation(FLASH_ER_PRG_TIMEOUT);
 846              		.loc 1 537 0
 847 000e FFF7FEFF 		bl	FLASH_WaitForLastOperation.constprop.0
 848              	.LVL56:
 539:../Libraries/STM32F0xx_StdPeriph_Driver/src/stm32f0xx_flash.c ****   if(status == FLASH_COMPLETE)
 849              		.loc 1 539 0
 850 0012 0428     		cmp	r0, #4
 851 0014 22D1     		bne	.L83
 542:../Libraries/STM32F0xx_StdPeriph_Driver/src/stm32f0xx_flash.c ****     FLASH->CR |= FLASH_CR_OPTER;
 852              		.loc 1 542 0
 853 0016 124C     		ldr	r4, .L87
 854 0018 2025     		mov	r5, #32
 855 001a 2069     		ldr	r0, [r4, #16]
 856              	.LVL57:
 543:../Libraries/STM32F0xx_StdPeriph_Driver/src/stm32f0xx_flash.c ****     FLASH->CR |= FLASH_CR_STRT;
 857              		.loc 1 543 0
 858 001c 4022     		mov	r2, #64
 542:../Libraries/STM32F0xx_StdPeriph_Driver/src/stm32f0xx_flash.c ****     FLASH->CR |= FLASH_CR_OPTER;
 859              		.loc 1 542 0
 860 001e 2843     		orr	r0, r5
 861 0020 2061     		str	r0, [r4, #16]
 543:../Libraries/STM32F0xx_StdPeriph_Driver/src/stm32f0xx_flash.c ****     FLASH->CR |= FLASH_CR_STRT;
 862              		.loc 1 543 0
 863 0022 2369     		ldr	r3, [r4, #16]
 864 0024 1343     		orr	r3, r2
 865 0026 2361     		str	r3, [r4, #16]
 546:../Libraries/STM32F0xx_StdPeriph_Driver/src/stm32f0xx_flash.c ****     status = FLASH_WaitForLastOperation(FLASH_ER_PRG_TIMEOUT);
 866              		.loc 1 546 0
 867 0028 FFF7FEFF 		bl	FLASH_WaitForLastOperation.constprop.0
 868              	.LVL58:
 548:../Libraries/STM32F0xx_StdPeriph_Driver/src/stm32f0xx_flash.c ****     if(status == FLASH_COMPLETE)
 869              		.loc 1 548 0
 870 002c 0428     		cmp	r0, #4
 871 002e 0FD1     		bne	.L84
 551:../Libraries/STM32F0xx_StdPeriph_Driver/src/stm32f0xx_flash.c ****       FLASH->CR &= ~FLASH_CR_OPTER;
 872              		.loc 1 551 0
 873 0030 2269     		ldr	r2, [r4, #16]
 557:../Libraries/STM32F0xx_StdPeriph_Driver/src/stm32f0xx_flash.c ****       OB->RDP = (uint16_t)rdptmp; 
 874              		.loc 1 557 0
 875 0032 0C49     		ldr	r1, .L87+4
 551:../Libraries/STM32F0xx_StdPeriph_Driver/src/stm32f0xx_flash.c ****       FLASH->CR &= ~FLASH_CR_OPTER;
 876              		.loc 1 551 0
 877 0034 AA43     		bic	r2, r5
 878 0036 2261     		str	r2, [r4, #16]
 554:../Libraries/STM32F0xx_StdPeriph_Driver/src/stm32f0xx_flash.c ****       FLASH->CR |= FLASH_CR_OPTPG;
 879              		.loc 1 554 0
 880 0038 2369     		ldr	r3, [r4, #16]
 881 003a 1025     		mov	r5, #16
 882 003c 2B43     		orr	r3, r5
 883 003e 2361     		str	r3, [r4, #16]
 557:../Libraries/STM32F0xx_StdPeriph_Driver/src/stm32f0xx_flash.c ****       OB->RDP = (uint16_t)rdptmp; 
 884              		.loc 1 557 0
 885 0040 0E80     		strh	r6, [r1]
 560:../Libraries/STM32F0xx_StdPeriph_Driver/src/stm32f0xx_flash.c ****       status = FLASH_WaitForLastOperation(FLASH_ER_PRG_TIMEOUT);
 886              		.loc 1 560 0
 887 0042 FFF7FEFF 		bl	FLASH_WaitForLastOperation.constprop.0
 888              	.LVL59:
 562:../Libraries/STM32F0xx_StdPeriph_Driver/src/stm32f0xx_flash.c ****       if(status != FLASH_TIMEOUT)
 889              		.loc 1 562 0
 890 0046 0528     		cmp	r0, #5
 891 0048 08D0     		beq	.L83
 565:../Libraries/STM32F0xx_StdPeriph_Driver/src/stm32f0xx_flash.c ****         FLASH->CR &= ~FLASH_CR_OPTPG;
 892              		.loc 1 565 0
 893 004a 2369     		ldr	r3, [r4, #16]
 894 004c AB43     		bic	r3, r5
 895 004e 04E0     		b	.L86
 896              	.L84:
 570:../Libraries/STM32F0xx_StdPeriph_Driver/src/stm32f0xx_flash.c ****       if (status != FLASH_TIMEOUT)
 897              		.loc 1 570 0
 898 0050 0528     		cmp	r0, #5
 899 0052 03D0     		beq	.L83
 573:../Libraries/STM32F0xx_StdPeriph_Driver/src/stm32f0xx_flash.c ****         FLASH->CR &= ~FLASH_CR_OPTPG;
 900              		.loc 1 573 0
 901 0054 2369     		ldr	r3, [r4, #16]
 902 0056 1025     		mov	r5, #16
 903 0058 AB43     		bic	r3, r5
 904              	.LVL60:
 905              	.L86:
 906 005a 2361     		str	r3, [r4, #16]
 907              	.L83:
 908              	.LVL61:
 909              		@ sp needed for prologue
 910              	.LVL62:
 579:../Libraries/STM32F0xx_StdPeriph_Driver/src/stm32f0xx_flash.c **** }
 911              		.loc 1 579 0
 912 005c 70BD     		pop	{r4, r5, r6, pc}
 913              	.L88:
 914 005e C046     		.align	2
 915              	.L87:
 916 0060 00200240 		.word	1073881088
 917 0064 00F8FF1F 		.word	536868864
 918              		.cfi_endproc
 919              	.LFE45:
 921              		.section	.text.FLASH_OB_EnableWRP,"ax",%progbits
 922              		.align	1
 923              		.global	FLASH_OB_EnableWRP
 924              		.code	16
 925              		.thumb_func
 927              	FLASH_OB_EnableWRP:
 928              	.LFB46:
 594:../Libraries/STM32F0xx_StdPeriph_Driver/src/stm32f0xx_flash.c **** {
 929              		.loc 1 594 0
 930              		.cfi_startproc
 931 0000 38B5     		push	{r3, r4, r5, lr}
 932              	.LCFI11:
 933              		.cfi_def_cfa_offset 16
 934              		.cfi_offset 3, -16
 935              		.cfi_offset 4, -12
 936              		.cfi_offset 5, -8
 937              		.cfi_offset 14, -4
 938              	.LVL63:
 594:../Libraries/STM32F0xx_StdPeriph_Driver/src/stm32f0xx_flash.c **** {
 939              		.loc 1 594 0
 940 0002 041C     		mov	r4, r0
 941              	.LVL64:
 609:../Libraries/STM32F0xx_StdPeriph_Driver/src/stm32f0xx_flash.c ****   status = FLASH_WaitForLastOperation(FLASH_ER_PRG_TIMEOUT);
 942              		.loc 1 609 0
 943 0004 FFF7FEFF 		bl	FLASH_WaitForLastOperation.constprop.0
 944              	.LVL65:
 611:../Libraries/STM32F0xx_StdPeriph_Driver/src/stm32f0xx_flash.c ****   if(status == FLASH_COMPLETE)
 945              		.loc 1 611 0
 946 0008 0428     		cmp	r0, #4
 947 000a 2FD1     		bne	.L90
 613:../Libraries/STM32F0xx_StdPeriph_Driver/src/stm32f0xx_flash.c ****     FLASH->CR |= FLASH_CR_OPTPG;
 948              		.loc 1 613 0
 949 000c 184D     		ldr	r5, .L95
 602:../Libraries/STM32F0xx_StdPeriph_Driver/src/stm32f0xx_flash.c ****   OB_WRP = (uint32_t)(~OB_WRP);
 950              		.loc 1 602 0
 951 000e E443     		mvn	r4, r4
 952              	.LVL66:
 613:../Libraries/STM32F0xx_StdPeriph_Driver/src/stm32f0xx_flash.c ****     FLASH->CR |= FLASH_CR_OPTPG;
 953              		.loc 1 613 0
 954 0010 2A69     		ldr	r2, [r5, #16]
 955 0012 1021     		mov	r1, #16
 956 0014 0A43     		orr	r2, r1
 603:../Libraries/STM32F0xx_StdPeriph_Driver/src/stm32f0xx_flash.c ****   WRP0_Data = (uint16_t)(OB_WRP & OB_WRP0_WRP0);
 957              		.loc 1 603 0
 958 0016 E3B2     		uxtb	r3, r4
 613:../Libraries/STM32F0xx_StdPeriph_Driver/src/stm32f0xx_flash.c ****     FLASH->CR |= FLASH_CR_OPTPG;
 959              		.loc 1 613 0
 960 0018 2A61     		str	r2, [r5, #16]
 615:../Libraries/STM32F0xx_StdPeriph_Driver/src/stm32f0xx_flash.c ****     if(WRP0_Data != 0xFF)
 961              		.loc 1 615 0
 962 001a FF2B     		cmp	r3, #255
 963 001c 03D0     		beq	.L91
 617:../Libraries/STM32F0xx_StdPeriph_Driver/src/stm32f0xx_flash.c ****       OB->WRP0 = WRP0_Data;
 964              		.loc 1 617 0
 965 001e 1548     		ldr	r0, .L95+4
 966              	.LVL67:
 967 0020 0381     		strh	r3, [r0, #8]
 620:../Libraries/STM32F0xx_StdPeriph_Driver/src/stm32f0xx_flash.c ****       status = FLASH_WaitForLastOperation(FLASH_ER_PRG_TIMEOUT);
 968              		.loc 1 620 0
 969 0022 FFF7FEFF 		bl	FLASH_WaitForLastOperation.constprop.0
 970              	.LVL68:
 971              	.L91:
 604:../Libraries/STM32F0xx_StdPeriph_Driver/src/stm32f0xx_flash.c ****   WRP1_Data = (uint16_t)((OB_WRP >> 8) & OB_WRP0_WRP0);
 972              		.loc 1 604 0
 973 0026 230A     		lsr	r3, r4, #8
 974 0028 DBB2     		uxtb	r3, r3
 975              	.LVL69:
 622:../Libraries/STM32F0xx_StdPeriph_Driver/src/stm32f0xx_flash.c ****     if((status == FLASH_COMPLETE) && (WRP1_Data != 0xFF))
 976              		.loc 1 622 0
 977 002a 0428     		cmp	r0, #4
 978 002c 05D1     		bne	.L92
 979 002e FF2B     		cmp	r3, #255
 980 0030 03D0     		beq	.L92
 624:../Libraries/STM32F0xx_StdPeriph_Driver/src/stm32f0xx_flash.c ****       OB->WRP1 = WRP1_Data;
 981              		.loc 1 624 0
 982 0032 104A     		ldr	r2, .L95+4
 983 0034 5381     		strh	r3, [r2, #10]
 627:../Libraries/STM32F0xx_StdPeriph_Driver/src/stm32f0xx_flash.c ****       status = FLASH_WaitForLastOperation(FLASH_ER_PRG_TIMEOUT);
 984              		.loc 1 627 0
 985 0036 FFF7FEFF 		bl	FLASH_WaitForLastOperation.constprop.0
 986              	.LVL70:
 987              	.L92:
 605:../Libraries/STM32F0xx_StdPeriph_Driver/src/stm32f0xx_flash.c ****   WRP2_Data = (uint16_t)((OB_WRP >> 16) & OB_WRP0_WRP0) ;
 988              		.loc 1 605 0
 989 003a 210C     		lsr	r1, r4, #16
 990 003c CBB2     		uxtb	r3, r1
 991              	.LVL71:
 629:../Libraries/STM32F0xx_StdPeriph_Driver/src/stm32f0xx_flash.c ****     if((status == FLASH_COMPLETE) && (WRP2_Data != 0xFF))
 992              		.loc 1 629 0
 993 003e 0428     		cmp	r0, #4
 994 0040 05D1     		bne	.L93
 995 0042 FF2B     		cmp	r3, #255
 996 0044 03D0     		beq	.L93
 631:../Libraries/STM32F0xx_StdPeriph_Driver/src/stm32f0xx_flash.c ****       OB->WRP2 = WRP2_Data;
 997              		.loc 1 631 0
 998 0046 0B48     		ldr	r0, .L95+4
 999              	.LVL72:
 1000 0048 8381     		strh	r3, [r0, #12]
 634:../Libraries/STM32F0xx_StdPeriph_Driver/src/stm32f0xx_flash.c ****       status = FLASH_WaitForLastOperation(FLASH_ER_PRG_TIMEOUT);
 1001              		.loc 1 634 0
 1002 004a FFF7FEFF 		bl	FLASH_WaitForLastOperation.constprop.0
 1003              	.LVL73:
 1004              	.L93:
 606:../Libraries/STM32F0xx_StdPeriph_Driver/src/stm32f0xx_flash.c ****   WRP3_Data = (uint16_t)((OB_WRP >> 24) & OB_WRP0_WRP0) ;
 1005              		.loc 1 606 0
 1006 004e 240E     		lsr	r4, r4, #24
 1007              	.LVL74:
 636:../Libraries/STM32F0xx_StdPeriph_Driver/src/stm32f0xx_flash.c ****     if((status == FLASH_COMPLETE) && (WRP3_Data != 0xFF))
 1008              		.loc 1 636 0
 1009 0050 0428     		cmp	r0, #4
 1010 0052 05D1     		bne	.L94
 1011 0054 FF2C     		cmp	r4, #255
 1012 0056 03D0     		beq	.L94
 638:../Libraries/STM32F0xx_StdPeriph_Driver/src/stm32f0xx_flash.c ****       OB->WRP3 = WRP3_Data;
 1013              		.loc 1 638 0
 1014 0058 064B     		ldr	r3, .L95+4
 1015 005a DC81     		strh	r4, [r3, #14]
 641:../Libraries/STM32F0xx_StdPeriph_Driver/src/stm32f0xx_flash.c ****       status = FLASH_WaitForLastOperation(FLASH_ER_PRG_TIMEOUT);
 1016              		.loc 1 641 0
 1017 005c FFF7FEFF 		bl	FLASH_WaitForLastOperation.constprop.0
 1018              	.LVL75:
 1019              	.L94:
 643:../Libraries/STM32F0xx_StdPeriph_Driver/src/stm32f0xx_flash.c ****     if(status != FLASH_TIMEOUT)
 1020              		.loc 1 643 0
 1021 0060 0528     		cmp	r0, #5
 1022 0062 03D0     		beq	.L90
 646:../Libraries/STM32F0xx_StdPeriph_Driver/src/stm32f0xx_flash.c ****       FLASH->CR &= ~FLASH_CR_OPTPG;
 1023              		.loc 1 646 0
 1024 0064 2C69     		ldr	r4, [r5, #16]
 1025 0066 1022     		mov	r2, #16
 1026 0068 9443     		bic	r4, r2
 1027 006a 2C61     		str	r4, [r5, #16]
 1028              	.LVL76:
 1029              	.L90:
 1030              		@ sp needed for prologue
 651:../Libraries/STM32F0xx_StdPeriph_Driver/src/stm32f0xx_flash.c **** }
 1031              		.loc 1 651 0
 1032 006c 38BD     		pop	{r3, r4, r5, pc}
 1033              	.L96:
 1034 006e C046     		.align	2
 1035              	.L95:
 1036 0070 00200240 		.word	1073881088
 1037 0074 00F8FF1F 		.word	536868864
 1038              		.cfi_endproc
 1039              	.LFE46:
 1041              		.section	.text.FLASH_OB_RDPConfig,"ax",%progbits
 1042              		.align	1
 1043              		.global	FLASH_OB_RDPConfig
 1044              		.code	16
 1045              		.thumb_func
 1047              	FLASH_OB_RDPConfig:
 1048              	.LFB47:
 668:../Libraries/STM32F0xx_StdPeriph_Driver/src/stm32f0xx_flash.c **** {
 1049              		.loc 1 668 0
 1050              		.cfi_startproc
 1051 0000 70B5     		push	{r4, r5, r6, lr}
 1052              	.LCFI12:
 1053              		.cfi_def_cfa_offset 16
 1054              		.cfi_offset 4, -16
 1055              		.cfi_offset 5, -12
 1056              		.cfi_offset 6, -8
 1057              		.cfi_offset 14, -4
 1058              	.LVL77:
 668:../Libraries/STM32F0xx_StdPeriph_Driver/src/stm32f0xx_flash.c **** {
 1059              		.loc 1 668 0
 1060 0002 061C     		mov	r6, r0
 673:../Libraries/STM32F0xx_StdPeriph_Driver/src/stm32f0xx_flash.c ****   status = FLASH_WaitForLastOperation(FLASH_ER_PRG_TIMEOUT);
 1061              		.loc 1 673 0
 1062 0004 FFF7FEFF 		bl	FLASH_WaitForLastOperation.constprop.0
 1063              	.LVL78:
 675:../Libraries/STM32F0xx_StdPeriph_Driver/src/stm32f0xx_flash.c ****   if(status == FLASH_COMPLETE)
 1064              		.loc 1 675 0
 1065 0008 0428     		cmp	r0, #4
 1066 000a 1CD1     		bne	.L98
 677:../Libraries/STM32F0xx_StdPeriph_Driver/src/stm32f0xx_flash.c ****     FLASH->CR |= FLASH_CR_OPTER;
 1067              		.loc 1 677 0
 1068 000c 0E4C     		ldr	r4, .L102
 1069 000e 2025     		mov	r5, #32
 1070 0010 2069     		ldr	r0, [r4, #16]
 1071              	.LVL79:
 678:../Libraries/STM32F0xx_StdPeriph_Driver/src/stm32f0xx_flash.c ****     FLASH->CR |= FLASH_CR_STRT;
 1072              		.loc 1 678 0
 1073 0012 4022     		mov	r2, #64
 677:../Libraries/STM32F0xx_StdPeriph_Driver/src/stm32f0xx_flash.c ****     FLASH->CR |= FLASH_CR_OPTER;
 1074              		.loc 1 677 0
 1075 0014 2843     		orr	r0, r5
 1076 0016 2061     		str	r0, [r4, #16]
 678:../Libraries/STM32F0xx_StdPeriph_Driver/src/stm32f0xx_flash.c ****     FLASH->CR |= FLASH_CR_STRT;
 1077              		.loc 1 678 0
 1078 0018 2369     		ldr	r3, [r4, #16]
 1079 001a 1343     		orr	r3, r2
 1080 001c 2361     		str	r3, [r4, #16]
 681:../Libraries/STM32F0xx_StdPeriph_Driver/src/stm32f0xx_flash.c ****     status = FLASH_WaitForLastOperation(FLASH_ER_PRG_TIMEOUT);
 1081              		.loc 1 681 0
 1082 001e FFF7FEFF 		bl	FLASH_WaitForLastOperation.constprop.0
 1083              	.LVL80:
 683:../Libraries/STM32F0xx_StdPeriph_Driver/src/stm32f0xx_flash.c ****     if(status == FLASH_COMPLETE)
 1084              		.loc 1 683 0
 1085 0022 0428     		cmp	r0, #4
 1086 0024 0AD1     		bne	.L99
 686:../Libraries/STM32F0xx_StdPeriph_Driver/src/stm32f0xx_flash.c ****       FLASH->CR &= ~FLASH_CR_OPTER;
 1087              		.loc 1 686 0
 1088 0026 2269     		ldr	r2, [r4, #16]
 691:../Libraries/STM32F0xx_StdPeriph_Driver/src/stm32f0xx_flash.c ****       OB->RDP = OB_RDP;
 1089              		.loc 1 691 0
 1090 0028 0849     		ldr	r1, .L102+4
 686:../Libraries/STM32F0xx_StdPeriph_Driver/src/stm32f0xx_flash.c ****       FLASH->CR &= ~FLASH_CR_OPTER;
 1091              		.loc 1 686 0
 1092 002a AA43     		bic	r2, r5
 1093 002c 2261     		str	r2, [r4, #16]
 689:../Libraries/STM32F0xx_StdPeriph_Driver/src/stm32f0xx_flash.c ****       FLASH->CR |= FLASH_CR_OPTPG;
 1094              		.loc 1 689 0
 1095 002e 2369     		ldr	r3, [r4, #16]
 1096 0030 1025     		mov	r5, #16
 1097 0032 2B43     		orr	r3, r5
 1098 0034 2361     		str	r3, [r4, #16]
 691:../Libraries/STM32F0xx_StdPeriph_Driver/src/stm32f0xx_flash.c ****       OB->RDP = OB_RDP;
 1099              		.loc 1 691 0
 1100 0036 0E80     		strh	r6, [r1]
 694:../Libraries/STM32F0xx_StdPeriph_Driver/src/stm32f0xx_flash.c ****       status = FLASH_WaitForLastOperation(FLASH_ER_PRG_TIMEOUT); 
 1101              		.loc 1 694 0
 1102 0038 FFF7FEFF 		bl	FLASH_WaitForLastOperation.constprop.0
 1103              	.LVL81:
 1104              	.L99:
 704:../Libraries/STM32F0xx_StdPeriph_Driver/src/stm32f0xx_flash.c ****       if(status != FLASH_TIMEOUT)
 1105              		.loc 1 704 0
 1106 003c 0528     		cmp	r0, #5
 1107 003e 02D0     		beq	.L98
 707:../Libraries/STM32F0xx_StdPeriph_Driver/src/stm32f0xx_flash.c ****         FLASH->CR &= ~FLASH_CR_OPTER;
 1108              		.loc 1 707 0
 1109 0040 2669     		ldr	r6, [r4, #16]
 1110 0042 AE43     		bic	r6, r5
 1111 0044 2661     		str	r6, [r4, #16]
 1112              	.L98:
 1113              	.LVL82:
 1114              		@ sp needed for prologue
 713:../Libraries/STM32F0xx_StdPeriph_Driver/src/stm32f0xx_flash.c **** }
 1115              		.loc 1 713 0
 1116 0046 70BD     		pop	{r4, r5, r6, pc}
 1117              	.L103:
 1118              		.align	2
 1119              	.L102:
 1120 0048 00200240 		.word	1073881088
 1121 004c 00F8FF1F 		.word	536868864
 1122              		.cfi_endproc
 1123              	.LFE47:
 1125              		.section	.text.FLASH_OB_UserConfig,"ax",%progbits
 1126              		.align	1
 1127              		.global	FLASH_OB_UserConfig
 1128              		.code	16
 1129              		.thumb_func
 1131              	FLASH_OB_UserConfig:
 1132              	.LFB48:
 736:../Libraries/STM32F0xx_StdPeriph_Driver/src/stm32f0xx_flash.c **** {
 1133              		.loc 1 736 0
 1134              		.cfi_startproc
 1135 0000 F7B5     		push	{r0, r1, r2, r4, r5, r6, r7, lr}
 1136              	.LCFI13:
 1137              		.cfi_def_cfa_offset 32
 1138              		.cfi_offset 0, -32
 1139              		.cfi_offset 1, -28
 1140              		.cfi_offset 2, -24
 1141              		.cfi_offset 4, -20
 1142              		.cfi_offset 5, -16
 1143              		.cfi_offset 6, -12
 1144              		.cfi_offset 7, -8
 1145              		.cfi_offset 14, -4
 1146              	.LVL83:
 736:../Libraries/STM32F0xx_StdPeriph_Driver/src/stm32f0xx_flash.c **** {
 1147              		.loc 1 736 0
 1148 0002 061C     		mov	r6, r0
 1149 0004 0F1C     		mov	r7, r1
 1150 0006 0192     		str	r2, [sp, #4]
 745:../Libraries/STM32F0xx_StdPeriph_Driver/src/stm32f0xx_flash.c ****   status = FLASH_WaitForLastOperation(FLASH_ER_PRG_TIMEOUT);
 1151              		.loc 1 745 0
 1152 0008 FFF7FEFF 		bl	FLASH_WaitForLastOperation.constprop.0
 1153              	.LVL84:
 747:../Libraries/STM32F0xx_StdPeriph_Driver/src/stm32f0xx_flash.c ****   if(status == FLASH_COMPLETE)
 1154              		.loc 1 747 0
 1155 000c 0428     		cmp	r0, #4
 1156 000e 14D1     		bne	.L105
 750:../Libraries/STM32F0xx_StdPeriph_Driver/src/stm32f0xx_flash.c ****     FLASH->CR |= FLASH_CR_OPTPG; 
 1157              		.loc 1 750 0
 1158 0010 0A4C     		ldr	r4, .L106
 752:../Libraries/STM32F0xx_StdPeriph_Driver/src/stm32f0xx_flash.c ****     OB->USER = (uint16_t)((uint16_t)(OB_IWDG | OB_STOP) | (uint16_t)(OB_STDBY | 0xF8));
 1159              		.loc 1 752 0
 1160 0012 0822     		mov	r2, #8
 750:../Libraries/STM32F0xx_StdPeriph_Driver/src/stm32f0xx_flash.c ****     FLASH->CR |= FLASH_CR_OPTPG; 
 1161              		.loc 1 750 0
 1162 0014 2369     		ldr	r3, [r4, #16]
 752:../Libraries/STM32F0xx_StdPeriph_Driver/src/stm32f0xx_flash.c ****     OB->USER = (uint16_t)((uint16_t)(OB_IWDG | OB_STOP) | (uint16_t)(OB_STDBY | 0xF8));
 1163              		.loc 1 752 0
 1164 0016 5142     		neg	r1, r2
 1165 0018 0198     		ldr	r0, [sp, #4]
 1166              	.LVL85:
 750:../Libraries/STM32F0xx_StdPeriph_Driver/src/stm32f0xx_flash.c ****     FLASH->CR |= FLASH_CR_OPTPG; 
 1167              		.loc 1 750 0
 1168 001a 1025     		mov	r5, #16
 752:../Libraries/STM32F0xx_StdPeriph_Driver/src/stm32f0xx_flash.c ****     OB->USER = (uint16_t)((uint16_t)(OB_IWDG | OB_STOP) | (uint16_t)(OB_STDBY | 0xF8));
 1169              		.loc 1 752 0
 1170 001c 0E43     		orr	r6, r1
 750:../Libraries/STM32F0xx_StdPeriph_Driver/src/stm32f0xx_flash.c ****     FLASH->CR |= FLASH_CR_OPTPG; 
 1171              		.loc 1 750 0
 1172 001e 2B43     		orr	r3, r5
 752:../Libraries/STM32F0xx_StdPeriph_Driver/src/stm32f0xx_flash.c ****     OB->USER = (uint16_t)((uint16_t)(OB_IWDG | OB_STOP) | (uint16_t)(OB_STDBY | 0xF8));
 1173              		.loc 1 752 0
 1174 0020 3743     		orr	r7, r6
 750:../Libraries/STM32F0xx_StdPeriph_Driver/src/stm32f0xx_flash.c ****     FLASH->CR |= FLASH_CR_OPTPG; 
 1175              		.loc 1 750 0
 1176 0022 2361     		str	r3, [r4, #16]
 752:../Libraries/STM32F0xx_StdPeriph_Driver/src/stm32f0xx_flash.c ****     OB->USER = (uint16_t)((uint16_t)(OB_IWDG | OB_STOP) | (uint16_t)(OB_STDBY | 0xF8));
 1177              		.loc 1 752 0
 1178 0024 0743     		orr	r7, r0
 1179 0026 064B     		ldr	r3, .L106+4
 1180 0028 FFB2     		uxtb	r7, r7
 1181 002a 5F80     		strh	r7, [r3, #2]
 755:../Libraries/STM32F0xx_StdPeriph_Driver/src/stm32f0xx_flash.c ****     status = FLASH_WaitForLastOperation(FLASH_ER_PRG_TIMEOUT);
 1182              		.loc 1 755 0
 1183 002c FFF7FEFF 		bl	FLASH_WaitForLastOperation.constprop.0
 1184              	.LVL86:
 757:../Libraries/STM32F0xx_StdPeriph_Driver/src/stm32f0xx_flash.c ****     if(status != FLASH_TIMEOUT)
 1185              		.loc 1 757 0
 1186 0030 0528     		cmp	r0, #5
 1187 0032 02D0     		beq	.L105
 760:../Libraries/STM32F0xx_StdPeriph_Driver/src/stm32f0xx_flash.c ****       FLASH->CR &= ~FLASH_CR_OPTPG;
 1188              		.loc 1 760 0
 1189 0034 2669     		ldr	r6, [r4, #16]
 1190 0036 AE43     		bic	r6, r5
 1191 0038 2661     		str	r6, [r4, #16]
 1192              	.LVL87:
 1193              	.L105:
 1194              		@ sp needed for prologue
 765:../Libraries/STM32F0xx_StdPeriph_Driver/src/stm32f0xx_flash.c **** }
 1195              		.loc 1 765 0
 1196 003a FEBD     		pop	{r1, r2, r3, r4, r5, r6, r7, pc}
 1197              	.L107:
 1198              		.align	2
 1199              	.L106:
 1200 003c 00200240 		.word	1073881088
 1201 0040 00F8FF1F 		.word	536868864
 1202              		.cfi_endproc
 1203              	.LFE48:
 1205              		.section	.text.FLASH_OB_BOOTConfig,"ax",%progbits
 1206              		.align	1
 1207              		.global	FLASH_OB_BOOTConfig
 1208              		.code	16
 1209              		.thumb_func
 1211              	FLASH_OB_BOOTConfig:
 1212              	.LFB49:
 776:../Libraries/STM32F0xx_StdPeriph_Driver/src/stm32f0xx_flash.c **** {
 1213              		.loc 1 776 0
 1214              		.cfi_startproc
 1215 0000 70B5     		push	{r4, r5, r6, lr}
 1216              	.LCFI14:
 1217              		.cfi_def_cfa_offset 16
 1218              		.cfi_offset 4, -16
 1219              		.cfi_offset 5, -12
 1220              		.cfi_offset 6, -8
 1221              		.cfi_offset 14, -4
 1222              	.LVL88:
 776:../Libraries/STM32F0xx_StdPeriph_Driver/src/stm32f0xx_flash.c **** {
 1223              		.loc 1 776 0
 1224 0002 061C     		mov	r6, r0
 783:../Libraries/STM32F0xx_StdPeriph_Driver/src/stm32f0xx_flash.c ****   status = FLASH_WaitForLastOperation(FLASH_ER_PRG_TIMEOUT);
 1225              		.loc 1 783 0
 1226 0004 FFF7FEFF 		bl	FLASH_WaitForLastOperation.constprop.0
 1227              	.LVL89:
 785:../Libraries/STM32F0xx_StdPeriph_Driver/src/stm32f0xx_flash.c ****   if(status == FLASH_COMPLETE)
 1228              		.loc 1 785 0
 1229 0008 0428     		cmp	r0, #4
 1230 000a 0FD1     		bne	.L109
 788:../Libraries/STM32F0xx_StdPeriph_Driver/src/stm32f0xx_flash.c ****     FLASH->CR |= FLASH_CR_OPTPG;
 1231              		.loc 1 788 0
 1232 000c 084C     		ldr	r4, .L110
 1233 000e 1025     		mov	r5, #16
 1234 0010 2169     		ldr	r1, [r4, #16]
 790:../Libraries/STM32F0xx_StdPeriph_Driver/src/stm32f0xx_flash.c ****     OB->USER = OB_BOOT1 | 0xEF;
 1235              		.loc 1 790 0
 1236 0012 EF20     		mov	r0, #239
 1237              	.LVL90:
 1238 0014 074B     		ldr	r3, .L110+4
 788:../Libraries/STM32F0xx_StdPeriph_Driver/src/stm32f0xx_flash.c ****     FLASH->CR |= FLASH_CR_OPTPG;
 1239              		.loc 1 788 0
 1240 0016 2943     		orr	r1, r5
 790:../Libraries/STM32F0xx_StdPeriph_Driver/src/stm32f0xx_flash.c ****     OB->USER = OB_BOOT1 | 0xEF;
 1241              		.loc 1 790 0
 1242 0018 0643     		orr	r6, r0
 788:../Libraries/STM32F0xx_StdPeriph_Driver/src/stm32f0xx_flash.c ****     FLASH->CR |= FLASH_CR_OPTPG;
 1243              		.loc 1 788 0
 1244 001a 2161     		str	r1, [r4, #16]
 790:../Libraries/STM32F0xx_StdPeriph_Driver/src/stm32f0xx_flash.c ****     OB->USER = OB_BOOT1 | 0xEF;
 1245              		.loc 1 790 0
 1246 001c 5E80     		strh	r6, [r3, #2]
 793:../Libraries/STM32F0xx_StdPeriph_Driver/src/stm32f0xx_flash.c ****     status = FLASH_WaitForLastOperation(FLASH_ER_PRG_TIMEOUT);
 1247              		.loc 1 793 0
 1248 001e FFF7FEFF 		bl	FLASH_WaitForLastOperation.constprop.0
 1249              	.LVL91:
 795:../Libraries/STM32F0xx_StdPeriph_Driver/src/stm32f0xx_flash.c ****     if(status != FLASH_TIMEOUT)
 1250              		.loc 1 795 0
 1251 0022 0528     		cmp	r0, #5
 1252 0024 02D0     		beq	.L109
 798:../Libraries/STM32F0xx_StdPeriph_Driver/src/stm32f0xx_flash.c ****       FLASH->CR &= ~FLASH_CR_OPTPG;
 1253              		.loc 1 798 0
 1254 0026 2269     		ldr	r2, [r4, #16]
 1255 0028 AA43     		bic	r2, r5
 1256 002a 2261     		str	r2, [r4, #16]
 1257              	.LVL92:
 1258              	.L109:
 1259              		@ sp needed for prologue
 803:../Libraries/STM32F0xx_StdPeriph_Driver/src/stm32f0xx_flash.c **** }
 1260              		.loc 1 803 0
 1261 002c 70BD     		pop	{r4, r5, r6, pc}
 1262              	.L111:
 1263 002e C046     		.align	2
 1264              	.L110:
 1265 0030 00200240 		.word	1073881088
 1266 0034 00F8FF1F 		.word	536868864
 1267              		.cfi_endproc
 1268              	.LFE49:
 1270              		.section	.text.FLASH_OB_BOOT0Config,"ax",%progbits
 1271              		.align	1
 1272              		.global	FLASH_OB_BOOT0Config
 1273              		.code	16
 1274              		.thumb_func
 1276              	FLASH_OB_BOOT0Config:
 1277              	.LFB50:
 815:../Libraries/STM32F0xx_StdPeriph_Driver/src/stm32f0xx_flash.c **** {
 1278              		.loc 1 815 0
 1279              		.cfi_startproc
 1280 0000 70B5     		push	{r4, r5, r6, lr}
 1281              	.LCFI15:
 1282              		.cfi_def_cfa_offset 16
 1283              		.cfi_offset 4, -16
 1284              		.cfi_offset 5, -12
 1285              		.cfi_offset 6, -8
 1286              		.cfi_offset 14, -4
 1287              	.LVL93:
 815:../Libraries/STM32F0xx_StdPeriph_Driver/src/stm32f0xx_flash.c **** {
 1288              		.loc 1 815 0
 1289 0002 061C     		mov	r6, r0
 822:../Libraries/STM32F0xx_StdPeriph_Driver/src/stm32f0xx_flash.c ****   status = FLASH_WaitForLastOperation(FLASH_ER_PRG_TIMEOUT);
 1290              		.loc 1 822 0
 1291 0004 FFF7FEFF 		bl	FLASH_WaitForLastOperation.constprop.0
 1292              	.LVL94:
 824:../Libraries/STM32F0xx_StdPeriph_Driver/src/stm32f0xx_flash.c ****   if(status == FLASH_COMPLETE)
 1293              		.loc 1 824 0
 1294 0008 0428     		cmp	r0, #4
 1295 000a 0FD1     		bne	.L113
 827:../Libraries/STM32F0xx_StdPeriph_Driver/src/stm32f0xx_flash.c ****     FLASH->CR |= FLASH_CR_OPTPG;
 1296              		.loc 1 827 0
 1297 000c 084C     		ldr	r4, .L114
 1298 000e 1025     		mov	r5, #16
 1299 0010 2169     		ldr	r1, [r4, #16]
 829:../Libraries/STM32F0xx_StdPeriph_Driver/src/stm32f0xx_flash.c ****     OB->USER = OB_BOOT0 | 0xF7;
 1300              		.loc 1 829 0
 1301 0012 F720     		mov	r0, #247
 1302              	.LVL95:
 1303 0014 074B     		ldr	r3, .L114+4
 827:../Libraries/STM32F0xx_StdPeriph_Driver/src/stm32f0xx_flash.c ****     FLASH->CR |= FLASH_CR_OPTPG;
 1304              		.loc 1 827 0
 1305 0016 2943     		orr	r1, r5
 829:../Libraries/STM32F0xx_StdPeriph_Driver/src/stm32f0xx_flash.c ****     OB->USER = OB_BOOT0 | 0xF7;
 1306              		.loc 1 829 0
 1307 0018 0643     		orr	r6, r0
 827:../Libraries/STM32F0xx_StdPeriph_Driver/src/stm32f0xx_flash.c ****     FLASH->CR |= FLASH_CR_OPTPG;
 1308              		.loc 1 827 0
 1309 001a 2161     		str	r1, [r4, #16]
 829:../Libraries/STM32F0xx_StdPeriph_Driver/src/stm32f0xx_flash.c ****     OB->USER = OB_BOOT0 | 0xF7;
 1310              		.loc 1 829 0
 1311 001c 5E80     		strh	r6, [r3, #2]
 832:../Libraries/STM32F0xx_StdPeriph_Driver/src/stm32f0xx_flash.c ****     status = FLASH_WaitForLastOperation(FLASH_ER_PRG_TIMEOUT);
 1312              		.loc 1 832 0
 1313 001e FFF7FEFF 		bl	FLASH_WaitForLastOperation.constprop.0
 1314              	.LVL96:
 834:../Libraries/STM32F0xx_StdPeriph_Driver/src/stm32f0xx_flash.c ****     if(status != FLASH_TIMEOUT)
 1315              		.loc 1 834 0
 1316 0022 0528     		cmp	r0, #5
 1317 0024 02D0     		beq	.L113
 837:../Libraries/STM32F0xx_StdPeriph_Driver/src/stm32f0xx_flash.c ****       FLASH->CR &= ~FLASH_CR_OPTPG;
 1318              		.loc 1 837 0
 1319 0026 2269     		ldr	r2, [r4, #16]
 1320 0028 AA43     		bic	r2, r5
 1321 002a 2261     		str	r2, [r4, #16]
 1322              	.LVL97:
 1323              	.L113:
 1324              		@ sp needed for prologue
 842:../Libraries/STM32F0xx_StdPeriph_Driver/src/stm32f0xx_flash.c **** }
 1325              		.loc 1 842 0
 1326 002c 70BD     		pop	{r4, r5, r6, pc}
 1327              	.L115:
 1328 002e C046     		.align	2
 1329              	.L114:
 1330 0030 00200240 		.word	1073881088
 1331 0034 00F8FF1F 		.word	536868864
 1332              		.cfi_endproc
 1333              	.LFE50:
 1335              		.section	.text.FLASH_OB_BOOT0SWConfig,"ax",%progbits
 1336              		.align	1
 1337              		.global	FLASH_OB_BOOT0SWConfig
 1338              		.code	16
 1339              		.thumb_func
 1341              	FLASH_OB_BOOT0SWConfig:
 1342              	.LFB51:
 854:../Libraries/STM32F0xx_StdPeriph_Driver/src/stm32f0xx_flash.c **** {
 1343              		.loc 1 854 0
 1344              		.cfi_startproc
 1345 0000 70B5     		push	{r4, r5, r6, lr}
 1346              	.LCFI16:
 1347              		.cfi_def_cfa_offset 16
 1348              		.cfi_offset 4, -16
 1349              		.cfi_offset 5, -12
 1350              		.cfi_offset 6, -8
 1351              		.cfi_offset 14, -4
 1352              	.LVL98:
 854:../Libraries/STM32F0xx_StdPeriph_Driver/src/stm32f0xx_flash.c **** {
 1353              		.loc 1 854 0
 1354 0002 061C     		mov	r6, r0
 861:../Libraries/STM32F0xx_StdPeriph_Driver/src/stm32f0xx_flash.c ****   status = FLASH_WaitForLastOperation(FLASH_ER_PRG_TIMEOUT);
 1355              		.loc 1 861 0
 1356 0004 FFF7FEFF 		bl	FLASH_WaitForLastOperation.constprop.0
 1357              	.LVL99:
 863:../Libraries/STM32F0xx_StdPeriph_Driver/src/stm32f0xx_flash.c ****   if(status == FLASH_COMPLETE)
 1358              		.loc 1 863 0
 1359 0008 0428     		cmp	r0, #4
 1360 000a 0FD1     		bne	.L117
 866:../Libraries/STM32F0xx_StdPeriph_Driver/src/stm32f0xx_flash.c ****     FLASH->CR |= FLASH_CR_OPTPG;
 1361              		.loc 1 866 0
 1362 000c 084C     		ldr	r4, .L118
 1363 000e 1025     		mov	r5, #16
 1364 0010 2169     		ldr	r1, [r4, #16]
 868:../Libraries/STM32F0xx_StdPeriph_Driver/src/stm32f0xx_flash.c ****     OB->USER = OB_BOOT0SW | 0x7F;
 1365              		.loc 1 868 0
 1366 0012 7F20     		mov	r0, #127
 1367              	.LVL100:
 1368 0014 074B     		ldr	r3, .L118+4
 866:../Libraries/STM32F0xx_StdPeriph_Driver/src/stm32f0xx_flash.c ****     FLASH->CR |= FLASH_CR_OPTPG;
 1369              		.loc 1 866 0
 1370 0016 2943     		orr	r1, r5
 868:../Libraries/STM32F0xx_StdPeriph_Driver/src/stm32f0xx_flash.c ****     OB->USER = OB_BOOT0SW | 0x7F;
 1371              		.loc 1 868 0
 1372 0018 0643     		orr	r6, r0
 866:../Libraries/STM32F0xx_StdPeriph_Driver/src/stm32f0xx_flash.c ****     FLASH->CR |= FLASH_CR_OPTPG;
 1373              		.loc 1 866 0
 1374 001a 2161     		str	r1, [r4, #16]
 868:../Libraries/STM32F0xx_StdPeriph_Driver/src/stm32f0xx_flash.c ****     OB->USER = OB_BOOT0SW | 0x7F;
 1375              		.loc 1 868 0
 1376 001c 5E80     		strh	r6, [r3, #2]
 871:../Libraries/STM32F0xx_StdPeriph_Driver/src/stm32f0xx_flash.c ****     status = FLASH_WaitForLastOperation(FLASH_ER_PRG_TIMEOUT);
 1377              		.loc 1 871 0
 1378 001e FFF7FEFF 		bl	FLASH_WaitForLastOperation.constprop.0
 1379              	.LVL101:
 873:../Libraries/STM32F0xx_StdPeriph_Driver/src/stm32f0xx_flash.c ****     if(status != FLASH_TIMEOUT)
 1380              		.loc 1 873 0
 1381 0022 0528     		cmp	r0, #5
 1382 0024 02D0     		beq	.L117
 876:../Libraries/STM32F0xx_StdPeriph_Driver/src/stm32f0xx_flash.c ****       FLASH->CR &= ~FLASH_CR_OPTPG;
 1383              		.loc 1 876 0
 1384 0026 2269     		ldr	r2, [r4, #16]
 1385 0028 AA43     		bic	r2, r5
 1386 002a 2261     		str	r2, [r4, #16]
 1387              	.LVL102:
 1388              	.L117:
 1389              		@ sp needed for prologue
 881:../Libraries/STM32F0xx_StdPeriph_Driver/src/stm32f0xx_flash.c **** }
 1390              		.loc 1 881 0
 1391 002c 70BD     		pop	{r4, r5, r6, pc}
 1392              	.L119:
 1393 002e C046     		.align	2
 1394              	.L118:
 1395 0030 00200240 		.word	1073881088
 1396 0034 00F8FF1F 		.word	536868864
 1397              		.cfi_endproc
 1398              	.LFE51:
 1400              		.section	.text.FLASH_OB_VDDAConfig,"ax",%progbits
 1401              		.align	1
 1402              		.global	FLASH_OB_VDDAConfig
 1403              		.code	16
 1404              		.thumb_func
 1406              	FLASH_OB_VDDAConfig:
 1407              	.LFB52:
 892:../Libraries/STM32F0xx_StdPeriph_Driver/src/stm32f0xx_flash.c **** {
 1408              		.loc 1 892 0
 1409              		.cfi_startproc
 1410 0000 70B5     		push	{r4, r5, r6, lr}
 1411              	.LCFI17:
 1412              		.cfi_def_cfa_offset 16
 1413              		.cfi_offset 4, -16
 1414              		.cfi_offset 5, -12
 1415              		.cfi_offset 6, -8
 1416              		.cfi_offset 14, -4
 1417              	.LVL103:
 892:../Libraries/STM32F0xx_StdPeriph_Driver/src/stm32f0xx_flash.c **** {
 1418              		.loc 1 892 0
 1419 0002 061C     		mov	r6, r0
 899:../Libraries/STM32F0xx_StdPeriph_Driver/src/stm32f0xx_flash.c ****   status = FLASH_WaitForLastOperation(FLASH_ER_PRG_TIMEOUT);
 1420              		.loc 1 899 0
 1421 0004 FFF7FEFF 		bl	FLASH_WaitForLastOperation.constprop.0
 1422              	.LVL104:
 901:../Libraries/STM32F0xx_StdPeriph_Driver/src/stm32f0xx_flash.c ****   if(status == FLASH_COMPLETE)
 1423              		.loc 1 901 0
 1424 0008 0428     		cmp	r0, #4
 1425 000a 0FD1     		bne	.L121
 904:../Libraries/STM32F0xx_StdPeriph_Driver/src/stm32f0xx_flash.c ****     FLASH->CR |= FLASH_CR_OPTPG; 
 1426              		.loc 1 904 0
 1427 000c 084C     		ldr	r4, .L122
 1428 000e 1025     		mov	r5, #16
 1429 0010 2169     		ldr	r1, [r4, #16]
 906:../Libraries/STM32F0xx_StdPeriph_Driver/src/stm32f0xx_flash.c ****     OB->USER = OB_VDDA_ANALOG | 0xDF;
 1430              		.loc 1 906 0
 1431 0012 DF20     		mov	r0, #223
 1432              	.LVL105:
 1433 0014 074B     		ldr	r3, .L122+4
 904:../Libraries/STM32F0xx_StdPeriph_Driver/src/stm32f0xx_flash.c ****     FLASH->CR |= FLASH_CR_OPTPG; 
 1434              		.loc 1 904 0
 1435 0016 2943     		orr	r1, r5
 906:../Libraries/STM32F0xx_StdPeriph_Driver/src/stm32f0xx_flash.c ****     OB->USER = OB_VDDA_ANALOG | 0xDF;
 1436              		.loc 1 906 0
 1437 0018 0643     		orr	r6, r0
 904:../Libraries/STM32F0xx_StdPeriph_Driver/src/stm32f0xx_flash.c ****     FLASH->CR |= FLASH_CR_OPTPG; 
 1438              		.loc 1 904 0
 1439 001a 2161     		str	r1, [r4, #16]
 906:../Libraries/STM32F0xx_StdPeriph_Driver/src/stm32f0xx_flash.c ****     OB->USER = OB_VDDA_ANALOG | 0xDF;
 1440              		.loc 1 906 0
 1441 001c 5E80     		strh	r6, [r3, #2]
 909:../Libraries/STM32F0xx_StdPeriph_Driver/src/stm32f0xx_flash.c ****     status = FLASH_WaitForLastOperation(FLASH_ER_PRG_TIMEOUT);
 1442              		.loc 1 909 0
 1443 001e FFF7FEFF 		bl	FLASH_WaitForLastOperation.constprop.0
 1444              	.LVL106:
 911:../Libraries/STM32F0xx_StdPeriph_Driver/src/stm32f0xx_flash.c ****     if(status != FLASH_TIMEOUT)
 1445              		.loc 1 911 0
 1446 0022 0528     		cmp	r0, #5
 1447 0024 02D0     		beq	.L121
 914:../Libraries/STM32F0xx_StdPeriph_Driver/src/stm32f0xx_flash.c ****       FLASH->CR &= ~FLASH_CR_OPTPG;
 1448              		.loc 1 914 0
 1449 0026 2269     		ldr	r2, [r4, #16]
 1450 0028 AA43     		bic	r2, r5
 1451 002a 2261     		str	r2, [r4, #16]
 1452              	.LVL107:
 1453              	.L121:
 1454              		@ sp needed for prologue
 919:../Libraries/STM32F0xx_StdPeriph_Driver/src/stm32f0xx_flash.c **** }
 1455              		.loc 1 919 0
 1456 002c 70BD     		pop	{r4, r5, r6, pc}
 1457              	.L123:
 1458 002e C046     		.align	2
 1459              	.L122:
 1460 0030 00200240 		.word	1073881088
 1461 0034 00F8FF1F 		.word	536868864
 1462              		.cfi_endproc
 1463              	.LFE52:
 1465              		.section	.text.FLASH_OB_SRAMParityConfig,"ax",%progbits
 1466              		.align	1
 1467              		.global	FLASH_OB_SRAMParityConfig
 1468              		.code	16
 1469              		.thumb_func
 1471              	FLASH_OB_SRAMParityConfig:
 1472              	.LFB53:
 930:../Libraries/STM32F0xx_StdPeriph_Driver/src/stm32f0xx_flash.c **** {
 1473              		.loc 1 930 0
 1474              		.cfi_startproc
 1475 0000 70B5     		push	{r4, r5, r6, lr}
 1476              	.LCFI18:
 1477              		.cfi_def_cfa_offset 16
 1478              		.cfi_offset 4, -16
 1479              		.cfi_offset 5, -12
 1480              		.cfi_offset 6, -8
 1481              		.cfi_offset 14, -4
 1482              	.LVL108:
 930:../Libraries/STM32F0xx_StdPeriph_Driver/src/stm32f0xx_flash.c **** {
 1483              		.loc 1 930 0
 1484 0002 061C     		mov	r6, r0
 937:../Libraries/STM32F0xx_StdPeriph_Driver/src/stm32f0xx_flash.c ****   status = FLASH_WaitForLastOperation(FLASH_ER_PRG_TIMEOUT);
 1485              		.loc 1 937 0
 1486 0004 FFF7FEFF 		bl	FLASH_WaitForLastOperation.constprop.0
 1487              	.LVL109:
 939:../Libraries/STM32F0xx_StdPeriph_Driver/src/stm32f0xx_flash.c ****   if(status == FLASH_COMPLETE)
 1488              		.loc 1 939 0
 1489 0008 0428     		cmp	r0, #4
 1490 000a 0FD1     		bne	.L125
 942:../Libraries/STM32F0xx_StdPeriph_Driver/src/stm32f0xx_flash.c ****     FLASH->CR |= FLASH_CR_OPTPG; 
 1491              		.loc 1 942 0
 1492 000c 084C     		ldr	r4, .L126
 1493 000e 1025     		mov	r5, #16
 1494 0010 2169     		ldr	r1, [r4, #16]
 944:../Libraries/STM32F0xx_StdPeriph_Driver/src/stm32f0xx_flash.c ****     OB->USER = OB_SRAM_Parity | 0xBF;
 1495              		.loc 1 944 0
 1496 0012 BF20     		mov	r0, #191
 1497              	.LVL110:
 1498 0014 074B     		ldr	r3, .L126+4
 942:../Libraries/STM32F0xx_StdPeriph_Driver/src/stm32f0xx_flash.c ****     FLASH->CR |= FLASH_CR_OPTPG; 
 1499              		.loc 1 942 0
 1500 0016 2943     		orr	r1, r5
 944:../Libraries/STM32F0xx_StdPeriph_Driver/src/stm32f0xx_flash.c ****     OB->USER = OB_SRAM_Parity | 0xBF;
 1501              		.loc 1 944 0
 1502 0018 0643     		orr	r6, r0
 942:../Libraries/STM32F0xx_StdPeriph_Driver/src/stm32f0xx_flash.c ****     FLASH->CR |= FLASH_CR_OPTPG; 
 1503              		.loc 1 942 0
 1504 001a 2161     		str	r1, [r4, #16]
 944:../Libraries/STM32F0xx_StdPeriph_Driver/src/stm32f0xx_flash.c ****     OB->USER = OB_SRAM_Parity | 0xBF;
 1505              		.loc 1 944 0
 1506 001c 5E80     		strh	r6, [r3, #2]
 947:../Libraries/STM32F0xx_StdPeriph_Driver/src/stm32f0xx_flash.c ****     status = FLASH_WaitForLastOperation(FLASH_ER_PRG_TIMEOUT);
 1507              		.loc 1 947 0
 1508 001e FFF7FEFF 		bl	FLASH_WaitForLastOperation.constprop.0
 1509              	.LVL111:
 949:../Libraries/STM32F0xx_StdPeriph_Driver/src/stm32f0xx_flash.c ****     if(status != FLASH_TIMEOUT)
 1510              		.loc 1 949 0
 1511 0022 0528     		cmp	r0, #5
 1512 0024 02D0     		beq	.L125
 952:../Libraries/STM32F0xx_StdPeriph_Driver/src/stm32f0xx_flash.c ****       FLASH->CR &= ~FLASH_CR_OPTPG;
 1513              		.loc 1 952 0
 1514 0026 2269     		ldr	r2, [r4, #16]
 1515 0028 AA43     		bic	r2, r5
 1516 002a 2261     		str	r2, [r4, #16]
 1517              	.LVL112:
 1518              	.L125:
 1519              		@ sp needed for prologue
 957:../Libraries/STM32F0xx_StdPeriph_Driver/src/stm32f0xx_flash.c **** }
 1520              		.loc 1 957 0
 1521 002c 70BD     		pop	{r4, r5, r6, pc}
 1522              	.L127:
 1523 002e C046     		.align	2
 1524              	.L126:
 1525 0030 00200240 		.word	1073881088
 1526 0034 00F8FF1F 		.word	536868864
 1527              		.cfi_endproc
 1528              	.LFE53:
 1530              		.section	.text.FLASH_OB_WriteUser,"ax",%progbits
 1531              		.align	1
 1532              		.global	FLASH_OB_WriteUser
 1533              		.code	16
 1534              		.thumb_func
 1536              	FLASH_OB_WriteUser:
 1537              	.LFB54:
 979:../Libraries/STM32F0xx_StdPeriph_Driver/src/stm32f0xx_flash.c **** {
 1538              		.loc 1 979 0
 1539              		.cfi_startproc
 1540 0000 70B5     		push	{r4, r5, r6, lr}
 1541              	.LCFI19:
 1542              		.cfi_def_cfa_offset 16
 1543              		.cfi_offset 4, -16
 1544              		.cfi_offset 5, -12
 1545              		.cfi_offset 6, -8
 1546              		.cfi_offset 14, -4
 1547              	.LVL113:
 979:../Libraries/STM32F0xx_StdPeriph_Driver/src/stm32f0xx_flash.c **** {
 1548              		.loc 1 979 0
 1549 0002 061C     		mov	r6, r0
 983:../Libraries/STM32F0xx_StdPeriph_Driver/src/stm32f0xx_flash.c ****   status = FLASH_WaitForLastOperation(FLASH_ER_PRG_TIMEOUT);
 1550              		.loc 1 983 0
 1551 0004 FFF7FEFF 		bl	FLASH_WaitForLastOperation.constprop.0
 1552              	.LVL114:
 985:../Libraries/STM32F0xx_StdPeriph_Driver/src/stm32f0xx_flash.c ****   if(status == FLASH_COMPLETE)
 1553              		.loc 1 985 0
 1554 0008 0428     		cmp	r0, #4
 1555 000a 0DD1     		bne	.L129
 988:../Libraries/STM32F0xx_StdPeriph_Driver/src/stm32f0xx_flash.c ****     FLASH->CR |= FLASH_CR_OPTPG; 
 1556              		.loc 1 988 0
 1557 000c 074C     		ldr	r4, .L130
 1558 000e 1025     		mov	r5, #16
 1559 0010 2069     		ldr	r0, [r4, #16]
 1560              	.LVL115:
 990:../Libraries/STM32F0xx_StdPeriph_Driver/src/stm32f0xx_flash.c ****     OB->USER = OB_USER;
 1561              		.loc 1 990 0
 1562 0012 074B     		ldr	r3, .L130+4
 988:../Libraries/STM32F0xx_StdPeriph_Driver/src/stm32f0xx_flash.c ****     FLASH->CR |= FLASH_CR_OPTPG; 
 1563              		.loc 1 988 0
 1564 0014 2843     		orr	r0, r5
 1565 0016 2061     		str	r0, [r4, #16]
 990:../Libraries/STM32F0xx_StdPeriph_Driver/src/stm32f0xx_flash.c ****     OB->USER = OB_USER;
 1566              		.loc 1 990 0
 1567 0018 5E80     		strh	r6, [r3, #2]
 993:../Libraries/STM32F0xx_StdPeriph_Driver/src/stm32f0xx_flash.c ****     status = FLASH_WaitForLastOperation(FLASH_ER_PRG_TIMEOUT);
 1568              		.loc 1 993 0
 1569 001a FFF7FEFF 		bl	FLASH_WaitForLastOperation.constprop.0
 1570              	.LVL116:
 995:../Libraries/STM32F0xx_StdPeriph_Driver/src/stm32f0xx_flash.c ****     if(status != FLASH_TIMEOUT)
 1571              		.loc 1 995 0
 1572 001e 0528     		cmp	r0, #5
 1573 0020 02D0     		beq	.L129
 998:../Libraries/STM32F0xx_StdPeriph_Driver/src/stm32f0xx_flash.c ****       FLASH->CR &= ~FLASH_CR_OPTPG;
 1574              		.loc 1 998 0
 1575 0022 2169     		ldr	r1, [r4, #16]
 1576 0024 A943     		bic	r1, r5
 1577 0026 2161     		str	r1, [r4, #16]
 1578              	.LVL117:
 1579              	.L129:
 1580              		@ sp needed for prologue
1004:../Libraries/STM32F0xx_StdPeriph_Driver/src/stm32f0xx_flash.c **** }
 1581              		.loc 1 1004 0
 1582 0028 70BD     		pop	{r4, r5, r6, pc}
 1583              	.L131:
 1584 002a C046     		.align	2
 1585              	.L130:
 1586 002c 00200240 		.word	1073881088
 1587 0030 00F8FF1F 		.word	536868864
 1588              		.cfi_endproc
 1589              	.LFE54:
 1591              		.section	.text.FLASH_OB_ProgramData,"ax",%progbits
 1592              		.align	1
 1593              		.global	FLASH_OB_ProgramData
 1594              		.code	16
 1595              		.thumb_func
 1597              	FLASH_OB_ProgramData:
 1598              	.LFB55:
1018:../Libraries/STM32F0xx_StdPeriph_Driver/src/stm32f0xx_flash.c **** {
 1599              		.loc 1 1018 0
 1600              		.cfi_startproc
 1601 0000 F8B5     		push	{r3, r4, r5, r6, r7, lr}
 1602              	.LCFI20:
 1603              		.cfi_def_cfa_offset 24
 1604              		.cfi_offset 3, -24
 1605              		.cfi_offset 4, -20
 1606              		.cfi_offset 5, -16
 1607              		.cfi_offset 6, -12
 1608              		.cfi_offset 7, -8
 1609              		.cfi_offset 14, -4
 1610              	.LVL118:
1018:../Libraries/STM32F0xx_StdPeriph_Driver/src/stm32f0xx_flash.c **** {
 1611              		.loc 1 1018 0
 1612 0002 071C     		mov	r7, r0
 1613 0004 0E1C     		mov	r6, r1
1022:../Libraries/STM32F0xx_StdPeriph_Driver/src/stm32f0xx_flash.c ****   status = FLASH_WaitForLastOperation(FLASH_ER_PRG_TIMEOUT);
 1614              		.loc 1 1022 0
 1615 0006 FFF7FEFF 		bl	FLASH_WaitForLastOperation.constprop.0
 1616              	.LVL119:
1024:../Libraries/STM32F0xx_StdPeriph_Driver/src/stm32f0xx_flash.c ****   if(status == FLASH_COMPLETE)
 1617              		.loc 1 1024 0
 1618 000a 0428     		cmp	r0, #4
 1619 000c 0CD1     		bne	.L133
1027:../Libraries/STM32F0xx_StdPeriph_Driver/src/stm32f0xx_flash.c ****     FLASH->CR |= FLASH_CR_OPTPG; 
 1620              		.loc 1 1027 0
 1621 000e 074C     		ldr	r4, .L134
 1622 0010 1025     		mov	r5, #16
 1623 0012 2369     		ldr	r3, [r4, #16]
 1624 0014 2B43     		orr	r3, r5
 1625 0016 2361     		str	r3, [r4, #16]
1028:../Libraries/STM32F0xx_StdPeriph_Driver/src/stm32f0xx_flash.c ****     *(__IO uint16_t*)Address = Data;
 1626              		.loc 1 1028 0
 1627 0018 3E80     		strh	r6, [r7]
1031:../Libraries/STM32F0xx_StdPeriph_Driver/src/stm32f0xx_flash.c ****     status = FLASH_WaitForLastOperation(FLASH_ER_PRG_TIMEOUT);
 1628              		.loc 1 1031 0
 1629 001a FFF7FEFF 		bl	FLASH_WaitForLastOperation.constprop.0
 1630              	.LVL120:
1033:../Libraries/STM32F0xx_StdPeriph_Driver/src/stm32f0xx_flash.c ****     if(status != FLASH_TIMEOUT)
 1631              		.loc 1 1033 0
 1632 001e 0528     		cmp	r0, #5
 1633 0020 02D0     		beq	.L133
1036:../Libraries/STM32F0xx_StdPeriph_Driver/src/stm32f0xx_flash.c ****       FLASH->CR &= ~FLASH_CR_OPTPG;
 1634              		.loc 1 1036 0
 1635 0022 2169     		ldr	r1, [r4, #16]
 1636 0024 A943     		bic	r1, r5
 1637 0026 2161     		str	r1, [r4, #16]
 1638              	.LVL121:
 1639              	.L133:
 1640              		@ sp needed for prologue
 1641              	.LVL122:
1041:../Libraries/STM32F0xx_StdPeriph_Driver/src/stm32f0xx_flash.c **** }
 1642              		.loc 1 1041 0
 1643 0028 F8BD     		pop	{r3, r4, r5, r6, r7, pc}
 1644              	.L135:
 1645 002a C046     		.align	2
 1646              	.L134:
 1647 002c 00200240 		.word	1073881088
 1648              		.cfi_endproc
 1649              	.LFE55:
 1651              		.section	.text.FLASH_WaitForLastOperation,"ax",%progbits
 1652              		.align	1
 1653              		.global	FLASH_WaitForLastOperation
 1654              		.code	16
 1655              		.thumb_func
 1657              	FLASH_WaitForLastOperation:
 1658              	.LFB63:
1219:../Libraries/STM32F0xx_StdPeriph_Driver/src/stm32f0xx_flash.c **** { 
 1659              		.loc 1 1219 0
 1660              		.cfi_startproc
 1661 0000 10B5     		push	{r4, lr}
 1662              	.LCFI21:
 1663              		.cfi_def_cfa_offset 8
 1664              		.cfi_offset 4, -8
 1665              		.cfi_offset 14, -4
 1666              	.LVL123:
1219:../Libraries/STM32F0xx_StdPeriph_Driver/src/stm32f0xx_flash.c **** { 
 1667              		.loc 1 1219 0
 1668 0002 041C     		mov	r4, r0
1223:../Libraries/STM32F0xx_StdPeriph_Driver/src/stm32f0xx_flash.c ****   status = FLASH_GetStatus();
 1669              		.loc 1 1223 0
 1670 0004 FFF7FEFF 		bl	FLASH_GetStatus
 1671              	.LVL124:
1226:../Libraries/STM32F0xx_StdPeriph_Driver/src/stm32f0xx_flash.c ****   while((status == FLASH_BUSY) && (Timeout != 0x00))
 1672              		.loc 1 1226 0
 1673 0008 02E0     		b	.L137
 1674              	.L138:
1228:../Libraries/STM32F0xx_StdPeriph_Driver/src/stm32f0xx_flash.c ****     status = FLASH_GetStatus();
 1675              		.loc 1 1228 0
 1676 000a FFF7FEFF 		bl	FLASH_GetStatus
 1677              	.LVL125:
1229:../Libraries/STM32F0xx_StdPeriph_Driver/src/stm32f0xx_flash.c ****     Timeout--;
 1678              		.loc 1 1229 0
 1679 000e 013C     		sub	r4, r4, #1
 1680              	.LVL126:
 1681              	.L137:
1226:../Libraries/STM32F0xx_StdPeriph_Driver/src/stm32f0xx_flash.c ****   while((status == FLASH_BUSY) && (Timeout != 0x00))
 1682              		.loc 1 1226 0 discriminator 1
 1683 0010 002C     		cmp	r4, #0
 1684 0012 01D0     		beq	.L142
 1685 0014 0128     		cmp	r0, #1
 1686 0016 F8D0     		beq	.L138
 1687              	.L142:
1232:../Libraries/STM32F0xx_StdPeriph_Driver/src/stm32f0xx_flash.c ****   if(Timeout == 0x00 )
 1688              		.loc 1 1232 0
 1689 0018 002C     		cmp	r4, #0
 1690 001a 00D1     		bne	.L140
1234:../Libraries/STM32F0xx_StdPeriph_Driver/src/stm32f0xx_flash.c ****     status = FLASH_TIMEOUT;
 1691              		.loc 1 1234 0
 1692 001c 0520     		mov	r0, #5
 1693              	.LVL127:
 1694              	.L140:
 1695              		@ sp needed for prologue
 1696              	.LVL128:
 1697              		.loc 1 1238 0
 1698 001e 10BD     		pop	{r4, pc}
 1699              		.cfi_endproc
 1700              	.LFE63:
 1702              		.text
 1703              	.Letext0:
 1704              		.file 2 "c:\\eclipseindigo\\codesourcery\\sourcery_codebench_lite_for_arm_eabi\\bin\\../lib/gcc/ar
 1705              		.file 3 "C:\\Working\\CURRENT_PROJECT\\SKYBOX\\skysoft_lls_stm32f030c8t6\\main_code\\Source/stm32f
 1706              		.file 4 "C:\\Working\\CURRENT_PROJECT\\SKYBOX\\skysoft_lls_stm32f030c8t6\\main_code\\Libraries\\ST